ARM GAS  C:\Users\Jannai\AppData\Local\Temp\cc8fvKff.s 			page 1


   1              		.cpu cortex-m0
   2              		.fpu softvfp
   3              		.eabi_attribute 20, 1
   4              		.eabi_attribute 21, 1
   5              		.eabi_attribute 23, 3
   6              		.eabi_attribute 24, 1
   7              		.eabi_attribute 25, 1
   8              		.eabi_attribute 26, 1
   9              		.eabi_attribute 30, 1
  10              		.eabi_attribute 34, 0
  11              		.eabi_attribute 18, 4
  12              		.code	16
  13              		.file	"CapSense_Processing.c"
  14              		.text
  15              	.Ltext0:
  16              		.cfi_sections	.debug_frame
  17              		.section	.text.CapSense_DpInitialize,"ax",%progbits
  18              		.align	2
  19              		.global	CapSense_DpInitialize
  20              		.code	16
  21              		.thumb_func
  22              		.type	CapSense_DpInitialize, %function
  23              	CapSense_DpInitialize:
  24              	.LFB2:
  25              		.file 1 "Generated_Source\\PSoC4\\CapSense_Processing.c"
   1:Generated_Source\PSoC4/CapSense_Processing.c **** /***************************************************************************//**
   2:Generated_Source\PSoC4/CapSense_Processing.c **** * \file CapSense_Processing.c
   3:Generated_Source\PSoC4/CapSense_Processing.c **** * \version 3.0
   4:Generated_Source\PSoC4/CapSense_Processing.c **** *
   5:Generated_Source\PSoC4/CapSense_Processing.c **** * \brief
   6:Generated_Source\PSoC4/CapSense_Processing.c **** * This file provides the source code for the Data Processing module APIs
   7:Generated_Source\PSoC4/CapSense_Processing.c **** * of the component. The Data Processing module is responsible for the
   8:Generated_Source\PSoC4/CapSense_Processing.c **** * low level raw counts processing provided by the sensing module, maintaining
   9:Generated_Source\PSoC4/CapSense_Processing.c **** * baseline and difference values and performing high-level widget processing
  10:Generated_Source\PSoC4/CapSense_Processing.c **** * like updating button status or calculating slider position.
  11:Generated_Source\PSoC4/CapSense_Processing.c **** *
  12:Generated_Source\PSoC4/CapSense_Processing.c **** * \see CapSense P4 v3.0 Datasheet
  13:Generated_Source\PSoC4/CapSense_Processing.c **** *
  14:Generated_Source\PSoC4/CapSense_Processing.c **** *//*****************************************************************************
  15:Generated_Source\PSoC4/CapSense_Processing.c **** * Copyright (2016), Cypress Semiconductor Corporation.
  16:Generated_Source\PSoC4/CapSense_Processing.c **** ********************************************************************************
  17:Generated_Source\PSoC4/CapSense_Processing.c **** * This software is owned by Cypress Semiconductor Corporation (Cypress) and is
  18:Generated_Source\PSoC4/CapSense_Processing.c **** * protected by and subject to worldwide patent protection (United States and
  19:Generated_Source\PSoC4/CapSense_Processing.c **** * foreign), United States copyright laws and international treaty provisions.
  20:Generated_Source\PSoC4/CapSense_Processing.c **** * Cypress hereby grants to licensee a personal, non-exclusive, non-transferable
  21:Generated_Source\PSoC4/CapSense_Processing.c **** * license to copy, use, modify, create derivative works of, and compile the
  22:Generated_Source\PSoC4/CapSense_Processing.c **** * Cypress Source Code and derivative works for the sole purpose of creating
  23:Generated_Source\PSoC4/CapSense_Processing.c **** * custom software in support of licensee product to be used only in conjunction
  24:Generated_Source\PSoC4/CapSense_Processing.c **** * with a Cypress integrated circuit as specified in the applicable agreement.
  25:Generated_Source\PSoC4/CapSense_Processing.c **** * Any reproduction, modification, translation, compilation, or representation of
  26:Generated_Source\PSoC4/CapSense_Processing.c **** * this software except as specified above is prohibited without the express
  27:Generated_Source\PSoC4/CapSense_Processing.c **** * written permission of Cypress.
  28:Generated_Source\PSoC4/CapSense_Processing.c **** *
  29:Generated_Source\PSoC4/CapSense_Processing.c **** * Disclaimer: CYPRESS MAKES NO WARRANTY OF ANY KIND, EXPRESS OR IMPLIED, WITH
  30:Generated_Source\PSoC4/CapSense_Processing.c **** * REGARD TO THIS MATERIAL, INCLUDING, BUT NOT LIMITED TO, THE IMPLIED
  31:Generated_Source\PSoC4/CapSense_Processing.c **** * WARRANTIES OF MERCHANTABILITY AND FITNESS FOR A PARTICULAR PURPOSE.
  32:Generated_Source\PSoC4/CapSense_Processing.c **** * Cypress reserves the right to make changes without further notice to the
ARM GAS  C:\Users\Jannai\AppData\Local\Temp\cc8fvKff.s 			page 2


  33:Generated_Source\PSoC4/CapSense_Processing.c **** * materials described herein. Cypress does not assume any liability arising out
  34:Generated_Source\PSoC4/CapSense_Processing.c **** * of the application or use of any product or circuit described herein. Cypress
  35:Generated_Source\PSoC4/CapSense_Processing.c **** * does not authorize its products for use as critical components in life-support
  36:Generated_Source\PSoC4/CapSense_Processing.c **** * systems where a malfunction or failure may reasonably be expected to result in
  37:Generated_Source\PSoC4/CapSense_Processing.c **** * significant injury to the user. The inclusion of Cypress' product in a life-
  38:Generated_Source\PSoC4/CapSense_Processing.c **** * support systems application implies that the manufacturer assumes all risk of
  39:Generated_Source\PSoC4/CapSense_Processing.c **** * such use and in doing so indemnifies Cypress against all charges. Use may be
  40:Generated_Source\PSoC4/CapSense_Processing.c **** * limited by and subject to the applicable Cypress software license agreement.
  41:Generated_Source\PSoC4/CapSense_Processing.c **** *******************************************************************************/
  42:Generated_Source\PSoC4/CapSense_Processing.c **** 
  43:Generated_Source\PSoC4/CapSense_Processing.c **** #include "cytypes.h"
  44:Generated_Source\PSoC4/CapSense_Processing.c **** #include "CapSense_Configuration.h"
  45:Generated_Source\PSoC4/CapSense_Processing.c **** #include "CapSense_Processing.h"
  46:Generated_Source\PSoC4/CapSense_Processing.c **** #include "CapSense_Filter.h"
  47:Generated_Source\PSoC4/CapSense_Processing.c **** 
  48:Generated_Source\PSoC4/CapSense_Processing.c **** #if (0u != CapSense_CENTROID_EN)
  49:Generated_Source\PSoC4/CapSense_Processing.c ****     #include "CapSense_Centroid_LL.h"
  50:Generated_Source\PSoC4/CapSense_Processing.c **** #endif /* (0 != CapSense_CENTROID_EN) */
  51:Generated_Source\PSoC4/CapSense_Processing.c **** 
  52:Generated_Source\PSoC4/CapSense_Processing.c **** #if (0 != (CapSense_CSD_AUTOTUNE & CapSense_CSD_SS_TH_EN))
  53:Generated_Source\PSoC4/CapSense_Processing.c ****     #include "CapSense_SmartSense_LL.h"
  54:Generated_Source\PSoC4/CapSense_Processing.c **** #endif /* (0 != (CapSense_CSD_AUTOTUNE & CapSense_CSD_SS_TH_EN)) */
  55:Generated_Source\PSoC4/CapSense_Processing.c **** 
  56:Generated_Source\PSoC4/CapSense_Processing.c **** #include "CyLib.h"
  57:Generated_Source\PSoC4/CapSense_Processing.c **** 
  58:Generated_Source\PSoC4/CapSense_Processing.c **** /**************************************************************************************************
  59:Generated_Source\PSoC4/CapSense_Processing.c **** * Local definition
  60:Generated_Source\PSoC4/CapSense_Processing.c **** ***************************************************************************************************
  61:Generated_Source\PSoC4/CapSense_Processing.c **** 
  62:Generated_Source\PSoC4/CapSense_Processing.c **** /* This definition resolves to TRUE if any of the FW filters for raw counts are enabled */
  63:Generated_Source\PSoC4/CapSense_Processing.c **** #define DP_FW_FILTER_EN                                 \
  64:Generated_Source\PSoC4/CapSense_Processing.c ****             (CapSense_REGULAR_RC_FILTER_EN |  \
  65:Generated_Source\PSoC4/CapSense_Processing.c ****              CapSense_PROX_RC_FILTER_EN)
  66:Generated_Source\PSoC4/CapSense_Processing.c **** 
  67:Generated_Source\PSoC4/CapSense_Processing.c **** /* This definition resolves to TRUE if any of the position filters are enabled */
  68:Generated_Source\PSoC4/CapSense_Processing.c **** #define DP_POSITION_FILTER_EN                           \
  69:Generated_Source\PSoC4/CapSense_Processing.c ****             (CapSense_POS_IIR_FILTER_EN      || \
  70:Generated_Source\PSoC4/CapSense_Processing.c ****              CapSense_POS_MEDIAN_FILTER_EN   || \
  71:Generated_Source\PSoC4/CapSense_Processing.c ****              CapSense_POS_AVERAGE_FILTER_EN  || \
  72:Generated_Source\PSoC4/CapSense_Processing.c ****              CapSense_POS_JITTER_FILTER_EN)
  73:Generated_Source\PSoC4/CapSense_Processing.c **** 
  74:Generated_Source\PSoC4/CapSense_Processing.c **** /* This definition resolves to TRUE if any of position filters are enabled and component has slider
  75:Generated_Source\PSoC4/CapSense_Processing.c ****  * The processing function of the CSD touchpad reuses the filtering function of the slider widget. 
  76:Generated_Source\PSoC4/CapSense_Processing.c **** #define DP_LINEAR_SLIDER_FILTER_EN                                             \
  77:Generated_Source\PSoC4/CapSense_Processing.c ****            (DP_POSITION_FILTER_EN && (CapSense_TOTAL_LINEAR_SLIDERS || \
  78:Generated_Source\PSoC4/CapSense_Processing.c ****                                       CapSense_CSD_TOUCHPAD_WIDGET_EN))
  79:Generated_Source\PSoC4/CapSense_Processing.c **** 
  80:Generated_Source\PSoC4/CapSense_Processing.c **** /* UINT32 constant with all odd bits set. It is used by the processing function of the Proximity wi
  81:Generated_Source\PSoC4/CapSense_Processing.c **** *  determine type of the status bit: odd bits report proximity status; even bits report touch statu
  82:Generated_Source\PSoC4/CapSense_Processing.c ****  */
  83:Generated_Source\PSoC4/CapSense_Processing.c **** #define UINT32_ODD_BITS_CONST       (0x55555555u)
  84:Generated_Source\PSoC4/CapSense_Processing.c **** 
  85:Generated_Source\PSoC4/CapSense_Processing.c **** /* Default value for the Off Debounce counter when the Off Debounce is disabled */
  86:Generated_Source\PSoC4/CapSense_Processing.c **** #define DEFAULT_OFF_DEBOUNCE_VALUE  (1u)
  87:Generated_Source\PSoC4/CapSense_Processing.c **** 
  88:Generated_Source\PSoC4/CapSense_Processing.c **** 
  89:Generated_Source\PSoC4/CapSense_Processing.c **** /**************************************************************************************************
ARM GAS  C:\Users\Jannai\AppData\Local\Temp\cc8fvKff.s 			page 3


  90:Generated_Source\PSoC4/CapSense_Processing.c **** * Local variables
  91:Generated_Source\PSoC4/CapSense_Processing.c **** ***************************************************************************************************
  92:Generated_Source\PSoC4/CapSense_Processing.c **** #if (0u != CapSense_CSX_MULTIPHASE_TX_EN)
  93:Generated_Source\PSoC4/CapSense_Processing.c ****     static uint16 deconvRowData[CapSense_CSX_MAX_TX_PHASE_LENGTH];
  94:Generated_Source\PSoC4/CapSense_Processing.c **** #endif
  95:Generated_Source\PSoC4/CapSense_Processing.c **** 
  96:Generated_Source\PSoC4/CapSense_Processing.c **** 
  97:Generated_Source\PSoC4/CapSense_Processing.c **** /**************************************************************************************************
  98:Generated_Source\PSoC4/CapSense_Processing.c **** * Static Function Prototypes
  99:Generated_Source\PSoC4/CapSense_Processing.c **** ***************************************************************************************************
 100:Generated_Source\PSoC4/CapSense_Processing.c **** /**
 101:Generated_Source\PSoC4/CapSense_Processing.c **** * \if SECTION_CAPSENSE_INTERNAL
 102:Generated_Source\PSoC4/CapSense_Processing.c **** * \addtogroup group_capsense_internal
 103:Generated_Source\PSoC4/CapSense_Processing.c **** * \{
 104:Generated_Source\PSoC4/CapSense_Processing.c **** */
 105:Generated_Source\PSoC4/CapSense_Processing.c **** #if (0u != CapSense_TOTAL_LINEAR_SLIDERS)
 106:Generated_Source\PSoC4/CapSense_Processing.c ****     static CY_INLINE void DpUpdateLinSlider(
 107:Generated_Source\PSoC4/CapSense_Processing.c ****                         const uint16 newPos[], uint32 numTouches,
 108:Generated_Source\PSoC4/CapSense_Processing.c ****                         CapSense_FLASH_WD_STRUCT const *ptrFlashWdgt,
 109:Generated_Source\PSoC4/CapSense_Processing.c ****                         CapSense_RAM_WD_SLIDER_STRUCT *ptrRamWdgt);
 110:Generated_Source\PSoC4/CapSense_Processing.c **** #endif /* #if (0u != CapSense_TOTAL_LINEAR_SLIDERS) */
 111:Generated_Source\PSoC4/CapSense_Processing.c **** 
 112:Generated_Source\PSoC4/CapSense_Processing.c **** #if (0u != DP_LINEAR_SLIDER_FILTER_EN)
 113:Generated_Source\PSoC4/CapSense_Processing.c ****     static CY_INLINE void DpFilterLinSlider(
 114:Generated_Source\PSoC4/CapSense_Processing.c ****                         uint16 newPos, uint32 staticConfig, uint16 *ptrCurrPos,
 115:Generated_Source\PSoC4/CapSense_Processing.c ****                         CapSense_SLIDER_POS_HISTORY_STRUCT *ptrHistory);
 116:Generated_Source\PSoC4/CapSense_Processing.c **** #endif /* #if (0u != DP_LINEAR_SLIDER_FILTER_EN) */
 117:Generated_Source\PSoC4/CapSense_Processing.c **** 
 118:Generated_Source\PSoC4/CapSense_Processing.c **** #if (0u != CapSense_TOTAL_RADIAL_SLIDERS)
 119:Generated_Source\PSoC4/CapSense_Processing.c ****     static CY_INLINE void DpUpdateRadSlider(
 120:Generated_Source\PSoC4/CapSense_Processing.c ****                         const uint16 newPos[], uint32 numTouches,
 121:Generated_Source\PSoC4/CapSense_Processing.c ****                         CapSense_FLASH_WD_STRUCT const * ptrFlashWdgt,
 122:Generated_Source\PSoC4/CapSense_Processing.c ****                         CapSense_RAM_WD_SLIDER_STRUCT *ptrRamWdgt);
 123:Generated_Source\PSoC4/CapSense_Processing.c **** #endif /* #if (0u != CapSense_TOTAL_RADIAL_SLIDERS) */
 124:Generated_Source\PSoC4/CapSense_Processing.c **** 
 125:Generated_Source\PSoC4/CapSense_Processing.c **** #if (0u != CapSense_CSD_TOUCHPAD_WIDGET_EN)
 126:Generated_Source\PSoC4/CapSense_Processing.c ****     static CY_INLINE void CapSense_DpInitCsdTouchpad(CapSense_FLASH_WD_STRUCT const * ptrFlashWdgt)
 127:Generated_Source\PSoC4/CapSense_Processing.c **** #endif /* #if (0u != CapSense_CSD_TOUCHPAD_WIDGET_EN) */
 128:Generated_Source\PSoC4/CapSense_Processing.c **** 
 129:Generated_Source\PSoC4/CapSense_Processing.c **** #if (0u != CapSense_CSX_TOUCHPAD_WIDGET_EN)
 130:Generated_Source\PSoC4/CapSense_Processing.c ****     static CY_INLINE void CapSense_DpInitCsxTouchpad(CapSense_FLASH_WD_STRUCT const * ptrFlashWdgt)
 131:Generated_Source\PSoC4/CapSense_Processing.c **** #endif /* #if (0u != CapSense_CSX_TOUCHPAD_WIDGET_EN) */
 132:Generated_Source\PSoC4/CapSense_Processing.c **** 
 133:Generated_Source\PSoC4/CapSense_Processing.c **** #if (0u != CapSense_SLIDER_WIDGET_EN)
 134:Generated_Source\PSoC4/CapSense_Processing.c ****     static CY_INLINE void CapSense_DpInitSlider(CapSense_FLASH_WD_STRUCT const * ptrFlashWdgt);
 135:Generated_Source\PSoC4/CapSense_Processing.c **** #endif /* #if (0u != CapSense_SLIDER_WIDGET_EN) */
 136:Generated_Source\PSoC4/CapSense_Processing.c **** 
 137:Generated_Source\PSoC4/CapSense_Processing.c **** #if (0u != CapSense_CSD_MATRIX_WIDGET_EN)
 138:Generated_Source\PSoC4/CapSense_Processing.c ****     static CY_INLINE void CapSense_DpInitCsdMatrix(CapSense_FLASH_WD_STRUCT const * ptrFlashWdgt);
 139:Generated_Source\PSoC4/CapSense_Processing.c **** #endif /* #if (0u != CapSense_CSD_MATRIX_WIDGET_EN) */
 140:Generated_Source\PSoC4/CapSense_Processing.c **** 
 141:Generated_Source\PSoC4/CapSense_Processing.c **** /** \}
 142:Generated_Source\PSoC4/CapSense_Processing.c **** * \endif */
 143:Generated_Source\PSoC4/CapSense_Processing.c **** 
 144:Generated_Source\PSoC4/CapSense_Processing.c **** #if (0u != CapSense_CSD_TOUCHPAD_WIDGET_EN)
 145:Generated_Source\PSoC4/CapSense_Processing.c **** /*******************************************************************************
 146:Generated_Source\PSoC4/CapSense_Processing.c **** * Function Name: CapSense_DpInitCsdTouchpad
ARM GAS  C:\Users\Jannai\AppData\Local\Temp\cc8fvKff.s 			page 4


 147:Generated_Source\PSoC4/CapSense_Processing.c **** ****************************************************************************//**
 148:Generated_Source\PSoC4/CapSense_Processing.c **** *
 149:Generated_Source\PSoC4/CapSense_Processing.c **** * \brief
 150:Generated_Source\PSoC4/CapSense_Processing.c **** *  Performs initialization of the CSD touchpad widget.
 151:Generated_Source\PSoC4/CapSense_Processing.c **** *   - Resets the position data to NONE
 152:Generated_Source\PSoC4/CapSense_Processing.c **** *   - Initializes the median filter history if the appropriate position filter is enabled.
 153:Generated_Source\PSoC4/CapSense_Processing.c **** *
 154:Generated_Source\PSoC4/CapSense_Processing.c **** * \details
 155:Generated_Source\PSoC4/CapSense_Processing.c **** *  The position data is always reset to the CapSense_TOUCHPAD_POS_NONE value.
 156:Generated_Source\PSoC4/CapSense_Processing.c **** *  The same happens to the median filter history data if this type of filter is enabled.
 157:Generated_Source\PSoC4/CapSense_Processing.c **** *
 158:Generated_Source\PSoC4/CapSense_Processing.c **** *******************************************************************************/
 159:Generated_Source\PSoC4/CapSense_Processing.c **** static CY_INLINE void CapSense_DpInitCsdTouchpad(CapSense_FLASH_WD_STRUCT const * ptrFlashWdgt)
 160:Generated_Source\PSoC4/CapSense_Processing.c **** {
 161:Generated_Source\PSoC4/CapSense_Processing.c ****     CapSense_RAM_WD_CSD_TOUCHPAD_STRUCT *ptrWdTouchpad;
 162:Generated_Source\PSoC4/CapSense_Processing.c **** 
 163:Generated_Source\PSoC4/CapSense_Processing.c ****     #if (0u != CapSense_POS_MEDIAN_FILTER_EN)
 164:Generated_Source\PSoC4/CapSense_Processing.c ****         CapSense_TOUCHPAD_POS_HISTORY_STRUCT *ptrHistory;
 165:Generated_Source\PSoC4/CapSense_Processing.c ****     #endif  /* #if (0u != CapSense_POS_MEDIAN_FILTER_EN) */
 166:Generated_Source\PSoC4/CapSense_Processing.c **** 
 167:Generated_Source\PSoC4/CapSense_Processing.c ****     ptrWdTouchpad = ptrFlashWdgt->ptr2WdgtRam;
 168:Generated_Source\PSoC4/CapSense_Processing.c **** 
 169:Generated_Source\PSoC4/CapSense_Processing.c ****     /* Reset position data */
 170:Generated_Source\PSoC4/CapSense_Processing.c ****     ptrWdTouchpad->posX = CapSense_TOUCHPAD_POS_NONE;
 171:Generated_Source\PSoC4/CapSense_Processing.c ****     ptrWdTouchpad->posY = CapSense_TOUCHPAD_POS_NONE;
 172:Generated_Source\PSoC4/CapSense_Processing.c **** 
 173:Generated_Source\PSoC4/CapSense_Processing.c ****     /* Reset median filter */
 174:Generated_Source\PSoC4/CapSense_Processing.c ****     #if (0u != CapSense_POS_MEDIAN_FILTER_EN)
 175:Generated_Source\PSoC4/CapSense_Processing.c ****         ptrHistory = ptrFlashWdgt->ptr2PosHistory;
 176:Generated_Source\PSoC4/CapSense_Processing.c **** 
 177:Generated_Source\PSoC4/CapSense_Processing.c ****         if (NULL != ptrHistory)
 178:Generated_Source\PSoC4/CapSense_Processing.c ****         {
 179:Generated_Source\PSoC4/CapSense_Processing.c ****             ptrHistory->xPos.posMedianZ1 = CapSense_TOUCHPAD_POS_NONE;
 180:Generated_Source\PSoC4/CapSense_Processing.c ****             ptrHistory->xPos.posMedianZ2 = CapSense_TOUCHPAD_POS_NONE;
 181:Generated_Source\PSoC4/CapSense_Processing.c **** 
 182:Generated_Source\PSoC4/CapSense_Processing.c ****             ptrHistory->yPos.posMedianZ1 = CapSense_TOUCHPAD_POS_NONE;
 183:Generated_Source\PSoC4/CapSense_Processing.c ****             ptrHistory->yPos.posMedianZ2 = CapSense_TOUCHPAD_POS_NONE;
 184:Generated_Source\PSoC4/CapSense_Processing.c ****         }
 185:Generated_Source\PSoC4/CapSense_Processing.c ****     #endif /* #if (0u != CapSense_POS_MEDIAN_FILTER_EN) */
 186:Generated_Source\PSoC4/CapSense_Processing.c **** }
 187:Generated_Source\PSoC4/CapSense_Processing.c **** #endif /* #if (0u != CapSense_CSD_TOUCHPAD_WIDGET_EN) */
 188:Generated_Source\PSoC4/CapSense_Processing.c **** 
 189:Generated_Source\PSoC4/CapSense_Processing.c **** #if (0u != CapSense_CSX_TOUCHPAD_WIDGET_EN)
 190:Generated_Source\PSoC4/CapSense_Processing.c **** /*******************************************************************************
 191:Generated_Source\PSoC4/CapSense_Processing.c **** * Function Name: CapSense_DpInitCsxTouchpad
 192:Generated_Source\PSoC4/CapSense_Processing.c **** ****************************************************************************//**
 193:Generated_Source\PSoC4/CapSense_Processing.c **** *
 194:Generated_Source\PSoC4/CapSense_Processing.c **** * \brief
 195:Generated_Source\PSoC4/CapSense_Processing.c **** *  Performs initialization of the CSX touchpad widget i.e. Resets the position data to NONE.
 196:Generated_Source\PSoC4/CapSense_Processing.c **** *
 197:Generated_Source\PSoC4/CapSense_Processing.c **** * \details
 198:Generated_Source\PSoC4/CapSense_Processing.c **** *  The position data is always reset to the CapSense_TOUCHPAD_POS_NONE value.
 199:Generated_Source\PSoC4/CapSense_Processing.c **** *
 200:Generated_Source\PSoC4/CapSense_Processing.c **** *******************************************************************************/
 201:Generated_Source\PSoC4/CapSense_Processing.c **** static CY_INLINE void CapSense_DpInitCsxTouchpad(CapSense_FLASH_WD_STRUCT const * ptrFlashWdgt)
 202:Generated_Source\PSoC4/CapSense_Processing.c **** {
 203:Generated_Source\PSoC4/CapSense_Processing.c ****     CapSense_RAM_WD_CSX_TOUCHPAD_STRUCT *ptrWdTouchpad;
ARM GAS  C:\Users\Jannai\AppData\Local\Temp\cc8fvKff.s 			page 5


 204:Generated_Source\PSoC4/CapSense_Processing.c **** 
 205:Generated_Source\PSoC4/CapSense_Processing.c ****     ptrWdTouchpad = ptrFlashWdgt->ptr2WdgtRam;
 206:Generated_Source\PSoC4/CapSense_Processing.c **** 
 207:Generated_Source\PSoC4/CapSense_Processing.c ****     /* Reset position data for finger */
 208:Generated_Source\PSoC4/CapSense_Processing.c ****     ptrWdTouchpad->touch[0u].x = CapSense_TOUCHPAD_POS_NONE;
 209:Generated_Source\PSoC4/CapSense_Processing.c ****     ptrWdTouchpad->touch[0u].y = CapSense_TOUCHPAD_POS_NONE;
 210:Generated_Source\PSoC4/CapSense_Processing.c ****     ptrWdTouchpad->touch[0u].z = LO8(CapSense_TOUCHPAD_POS_NONE);
 211:Generated_Source\PSoC4/CapSense_Processing.c **** 
 212:Generated_Source\PSoC4/CapSense_Processing.c ****     #if (CapSense_CSX_MAX_FINGERS > 1u)
 213:Generated_Source\PSoC4/CapSense_Processing.c ****         ptrWdTouchpad->touch[1u].x = CapSense_TOUCHPAD_POS_NONE;
 214:Generated_Source\PSoC4/CapSense_Processing.c ****         ptrWdTouchpad->touch[1u].y = CapSense_TOUCHPAD_POS_NONE;
 215:Generated_Source\PSoC4/CapSense_Processing.c ****         ptrWdTouchpad->touch[1u].z = LO8(CapSense_TOUCHPAD_POS_NONE);
 216:Generated_Source\PSoC4/CapSense_Processing.c ****     #endif /* #if (CapSense_CSX_MAX_FINGERS > 1u) */
 217:Generated_Source\PSoC4/CapSense_Processing.c **** 
 218:Generated_Source\PSoC4/CapSense_Processing.c ****     #if (CapSense_CSX_MAX_FINGERS > 2u)
 219:Generated_Source\PSoC4/CapSense_Processing.c ****         ptrWdTouchpad->touch[2u].x = CapSense_TOUCHPAD_POS_NONE;
 220:Generated_Source\PSoC4/CapSense_Processing.c ****         ptrWdTouchpad->touch[2u].y = CapSense_TOUCHPAD_POS_NONE;
 221:Generated_Source\PSoC4/CapSense_Processing.c ****         ptrWdTouchpad->touch[2u].z = LO8(CapSense_TOUCHPAD_POS_NONE);
 222:Generated_Source\PSoC4/CapSense_Processing.c ****     #endif /* #if (CapSense_CSX_MAX_FINGERS > 2u) */
 223:Generated_Source\PSoC4/CapSense_Processing.c **** }
 224:Generated_Source\PSoC4/CapSense_Processing.c **** #endif /* #if (0u != CapSense_CSX_TOUCHPAD_WIDGET_EN) */
 225:Generated_Source\PSoC4/CapSense_Processing.c **** 
 226:Generated_Source\PSoC4/CapSense_Processing.c **** #if (0u != CapSense_SLIDER_WIDGET_EN)
 227:Generated_Source\PSoC4/CapSense_Processing.c **** /*******************************************************************************
 228:Generated_Source\PSoC4/CapSense_Processing.c **** * Function Name: CapSense_DpInitSlider
 229:Generated_Source\PSoC4/CapSense_Processing.c **** ****************************************************************************//**
 230:Generated_Source\PSoC4/CapSense_Processing.c **** *
 231:Generated_Source\PSoC4/CapSense_Processing.c **** * \brief
 232:Generated_Source\PSoC4/CapSense_Processing.c **** *  Performs initialization of the Radial and Linear Slider widget.
 233:Generated_Source\PSoC4/CapSense_Processing.c **** *   - Resets the position data to NONE
 234:Generated_Source\PSoC4/CapSense_Processing.c **** *   - Initializes the median filter history to NONE if it is enabled.
 235:Generated_Source\PSoC4/CapSense_Processing.c **** *
 236:Generated_Source\PSoC4/CapSense_Processing.c **** * \details
 237:Generated_Source\PSoC4/CapSense_Processing.c **** *  Position data is always reset to the CapSense_SLIDER_POS_NONE value.
 238:Generated_Source\PSoC4/CapSense_Processing.c **** *  The same happens to the median filter history data.
 239:Generated_Source\PSoC4/CapSense_Processing.c **** *
 240:Generated_Source\PSoC4/CapSense_Processing.c **** *******************************************************************************/
 241:Generated_Source\PSoC4/CapSense_Processing.c **** static CY_INLINE void CapSense_DpInitSlider(CapSense_FLASH_WD_STRUCT const * ptrFlashWdgt)
 242:Generated_Source\PSoC4/CapSense_Processing.c **** {
 243:Generated_Source\PSoC4/CapSense_Processing.c ****     uint32 idx;
 244:Generated_Source\PSoC4/CapSense_Processing.c ****     CapSense_RAM_WD_SLIDER_STRUCT *ptrWdSlider;
 245:Generated_Source\PSoC4/CapSense_Processing.c **** 
 246:Generated_Source\PSoC4/CapSense_Processing.c ****     #if (0u != CapSense_POS_MEDIAN_FILTER_EN)
 247:Generated_Source\PSoC4/CapSense_Processing.c ****         CapSense_SLIDER_POS_HISTORY_STRUCT *ptrHistory;
 248:Generated_Source\PSoC4/CapSense_Processing.c ****     #endif /* #if (0u != CapSense_POS_MEDIAN_FILTER_EN) */
 249:Generated_Source\PSoC4/CapSense_Processing.c **** 
 250:Generated_Source\PSoC4/CapSense_Processing.c ****     ptrWdSlider = ptrFlashWdgt->ptr2WdgtRam;
 251:Generated_Source\PSoC4/CapSense_Processing.c **** 
 252:Generated_Source\PSoC4/CapSense_Processing.c ****     /* Reset slider position data to NONE */
 253:Generated_Source\PSoC4/CapSense_Processing.c ****     for (idx = 0u; idx < CapSense_NUM_CENTROIDS; idx++)
 254:Generated_Source\PSoC4/CapSense_Processing.c ****     {
 255:Generated_Source\PSoC4/CapSense_Processing.c ****         ptrWdSlider->position[idx] = CapSense_SLIDER_POS_NONE;
 256:Generated_Source\PSoC4/CapSense_Processing.c **** 
 257:Generated_Source\PSoC4/CapSense_Processing.c ****         #if (0u != CapSense_POS_MEDIAN_FILTER_EN)
 258:Generated_Source\PSoC4/CapSense_Processing.c ****             ptrHistory = ptrFlashWdgt->ptr2PosHistory;
 259:Generated_Source\PSoC4/CapSense_Processing.c ****             
 260:Generated_Source\PSoC4/CapSense_Processing.c ****             if (NULL != ptrHistory)
ARM GAS  C:\Users\Jannai\AppData\Local\Temp\cc8fvKff.s 			page 6


 261:Generated_Source\PSoC4/CapSense_Processing.c ****             {
 262:Generated_Source\PSoC4/CapSense_Processing.c ****                 ptrHistory[idx].posMedianZ1 = CapSense_SLIDER_POS_NONE;
 263:Generated_Source\PSoC4/CapSense_Processing.c ****                 ptrHistory[idx].posMedianZ2 = CapSense_SLIDER_POS_NONE;
 264:Generated_Source\PSoC4/CapSense_Processing.c ****             }
 265:Generated_Source\PSoC4/CapSense_Processing.c ****         #endif /* #if (0u != CapSense_POS_MEDIAN_FILTER_EN) */
 266:Generated_Source\PSoC4/CapSense_Processing.c ****     }
 267:Generated_Source\PSoC4/CapSense_Processing.c **** }
 268:Generated_Source\PSoC4/CapSense_Processing.c **** #endif /* #if (0u != CapSense_SLIDER_WIDGET_EN) */
 269:Generated_Source\PSoC4/CapSense_Processing.c **** 
 270:Generated_Source\PSoC4/CapSense_Processing.c **** #if (0u != CapSense_CSD_MATRIX_WIDGET_EN)
 271:Generated_Source\PSoC4/CapSense_Processing.c **** /*******************************************************************************
 272:Generated_Source\PSoC4/CapSense_Processing.c **** * Function Name: CapSense_DpInitCsdMatrix
 273:Generated_Source\PSoC4/CapSense_Processing.c **** ****************************************************************************//**
 274:Generated_Source\PSoC4/CapSense_Processing.c **** *
 275:Generated_Source\PSoC4/CapSense_Processing.c **** * \brief
 276:Generated_Source\PSoC4/CapSense_Processing.c **** *  Performs initialization of the CSD Matrix Buttons widget.
 277:Generated_Source\PSoC4/CapSense_Processing.c **** *   - Resets the active button position data to NONE.
 278:Generated_Source\PSoC4/CapSense_Processing.c **** *
 279:Generated_Source\PSoC4/CapSense_Processing.c **** * \details
 280:Generated_Source\PSoC4/CapSense_Processing.c **** *  Position data is always reset to the CapSense_MATRIX_POS_NONE value.
 281:Generated_Source\PSoC4/CapSense_Processing.c **** *
 282:Generated_Source\PSoC4/CapSense_Processing.c **** *******************************************************************************/
 283:Generated_Source\PSoC4/CapSense_Processing.c **** static CY_INLINE void CapSense_DpInitCsdMatrix(CapSense_FLASH_WD_STRUCT const * ptrFlashWdgt)
 284:Generated_Source\PSoC4/CapSense_Processing.c **** {
 285:Generated_Source\PSoC4/CapSense_Processing.c ****     CapSense_RAM_WD_CSD_MATRIX_STRUCT *ptrRamWdgt;
 286:Generated_Source\PSoC4/CapSense_Processing.c **** 
 287:Generated_Source\PSoC4/CapSense_Processing.c ****     ptrRamWdgt = ptrFlashWdgt->ptr2WdgtRam;
 288:Generated_Source\PSoC4/CapSense_Processing.c **** 
 289:Generated_Source\PSoC4/CapSense_Processing.c ****     /* Reset sensor id, row and col registers in data structure */
 290:Generated_Source\PSoC4/CapSense_Processing.c ****     ptrRamWdgt->posRow   = CapSense_MATRIX_POS_NONE;
 291:Generated_Source\PSoC4/CapSense_Processing.c ****     ptrRamWdgt->posCol   = CapSense_MATRIX_POS_NONE;
 292:Generated_Source\PSoC4/CapSense_Processing.c ****     ptrRamWdgt->posSnsId = CapSense_MATRIX_POS_NONE;
 293:Generated_Source\PSoC4/CapSense_Processing.c **** }
 294:Generated_Source\PSoC4/CapSense_Processing.c **** #endif /* #if (0u != CapSense_CSD_MATRIX_WIDGET_EN) */
 295:Generated_Source\PSoC4/CapSense_Processing.c **** 
 296:Generated_Source\PSoC4/CapSense_Processing.c **** /*******************************************************************************
 297:Generated_Source\PSoC4/CapSense_Processing.c **** * Function Name: CapSense_DpInitialize
 298:Generated_Source\PSoC4/CapSense_Processing.c **** ****************************************************************************//**
 299:Generated_Source\PSoC4/CapSense_Processing.c **** *
 300:Generated_Source\PSoC4/CapSense_Processing.c **** * \brief
 301:Generated_Source\PSoC4/CapSense_Processing.c **** *  Performs initialization of the data processing FW module:
 302:Generated_Source\PSoC4/CapSense_Processing.c **** *   - Resets the de-bounce counters of all widgets
 303:Generated_Source\PSoC4/CapSense_Processing.c **** *   - Resets the position filter history for slider and touchpad widgets
 304:Generated_Source\PSoC4/CapSense_Processing.c **** *   - Clears widget and sensor statuses
 305:Generated_Source\PSoC4/CapSense_Processing.c **** *   - Enables all widgets.
 306:Generated_Source\PSoC4/CapSense_Processing.c **** *
 307:Generated_Source\PSoC4/CapSense_Processing.c **** * \details
 308:Generated_Source\PSoC4/CapSense_Processing.c **** *  The Button and Matrix Button widgets have individual de-bounce counter per
 309:Generated_Source\PSoC4/CapSense_Processing.c **** *  sensor for the CSD widgets and per node for the CSX widgets.
 310:Generated_Source\PSoC4/CapSense_Processing.c **** *
 311:Generated_Source\PSoC4/CapSense_Processing.c **** *  The Slider and Touchpad widgets have a single de-bounce counter per widget.
 312:Generated_Source\PSoC4/CapSense_Processing.c **** *
 313:Generated_Source\PSoC4/CapSense_Processing.c **** *  The Proximity widget has two de-bounce counters per sensor. One for the
 314:Generated_Source\PSoC4/CapSense_Processing.c **** *  proximity event and second for the touch event.
 315:Generated_Source\PSoC4/CapSense_Processing.c **** *
 316:Generated_Source\PSoC4/CapSense_Processing.c **** *  All debounce counters during initialization are set to the value of the
 317:Generated_Source\PSoC4/CapSense_Processing.c **** *  onDebounce widget parameter.
ARM GAS  C:\Users\Jannai\AppData\Local\Temp\cc8fvKff.s 			page 7


 318:Generated_Source\PSoC4/CapSense_Processing.c **** *
 319:Generated_Source\PSoC4/CapSense_Processing.c **** *******************************************************************************/
 320:Generated_Source\PSoC4/CapSense_Processing.c **** void CapSense_DpInitialize(void)
 321:Generated_Source\PSoC4/CapSense_Processing.c **** {
  26              		.loc 1 321 0
  27              		.cfi_startproc
  28 0000 70B5     		push	{r4, r5, r6, lr}
  29              		.cfi_def_cfa_offset 16
  30              		.cfi_offset 4, -16
  31              		.cfi_offset 5, -12
  32              		.cfi_offset 6, -8
  33              		.cfi_offset 14, -4
  34              	.LVL0:
 322:Generated_Source\PSoC4/CapSense_Processing.c ****     uint32 wdgtId;
 323:Generated_Source\PSoC4/CapSense_Processing.c ****     CapSense_WD_TYPE_ENUM widgetType;
 324:Generated_Source\PSoC4/CapSense_Processing.c ****     CapSense_RAM_WD_BASE_STRUCT * ptrRamWdgt;
 325:Generated_Source\PSoC4/CapSense_Processing.c ****     CapSense_FLASH_WD_STRUCT const * ptrFlashWdgt;
 326:Generated_Source\PSoC4/CapSense_Processing.c **** 
 327:Generated_Source\PSoC4/CapSense_Processing.c ****     for (wdgtId = 0u; wdgtId < CapSense_WDGT_STATUS_WORDS; wdgtId++)
  35              		.loc 1 327 0
  36 0002 0023     		mov	r3, #0
  37 0004 0BE0     		b	.L2
  38              	.LVL1:
  39              	.L3:
 328:Generated_Source\PSoC4/CapSense_Processing.c ****     {
 329:Generated_Source\PSoC4/CapSense_Processing.c ****         /* Clear widget status */
 330:Generated_Source\PSoC4/CapSense_Processing.c ****         CapSense_dsRam.wdgtStatus[wdgtId] = 0u;
  40              		.loc 1 330 0 discriminator 3
  41 0006 1348     		ldr	r0, .L8
  42 0008 191D     		add	r1, r3, #4
  43 000a 8900     		lsl	r1, r1, #2
  44 000c 0022     		mov	r2, #0
  45 000e 0A50     		str	r2, [r1, r0]
 331:Generated_Source\PSoC4/CapSense_Processing.c **** 
 332:Generated_Source\PSoC4/CapSense_Processing.c ****         /* Enable all widgets */
 333:Generated_Source\PSoC4/CapSense_Processing.c ****         CapSense_dsRam.wdgtEnable[wdgtId] = 0xFFFFFFFFLu;
  46              		.loc 1 333 0 discriminator 3
  47 0010 9A1C     		add	r2, r3, #2
  48 0012 9200     		lsl	r2, r2, #2
  49 0014 8218     		add	r2, r0, r2
  50 0016 0121     		mov	r1, #1
  51 0018 4942     		neg	r1, r1
  52 001a 5160     		str	r1, [r2, #4]
 327:Generated_Source\PSoC4/CapSense_Processing.c ****     {
  53              		.loc 1 327 0 discriminator 3
  54 001c 0133     		add	r3, r3, #1
  55              	.LVL2:
  56              	.L2:
 327:Generated_Source\PSoC4/CapSense_Processing.c ****     {
  57              		.loc 1 327 0 is_stmt 0 discriminator 1
  58 001e 002B     		cmp	r3, #0
  59 0020 F1D0     		beq	.L3
  60 0022 0D4C     		ldr	r4, .L8+4
  61 0024 0123     		mov	r3, #1
  62              	.LVL3:
  63 0026 10E0     		b	.L4
  64              	.LVL4:
ARM GAS  C:\Users\Jannai\AppData\Local\Temp\cc8fvKff.s 			page 8


  65              	.L7:
 334:Generated_Source\PSoC4/CapSense_Processing.c **** 
 335:Generated_Source\PSoC4/CapSense_Processing.c ****         /* Set all widgets to working state if the Self-Test is not enabled */
 336:Generated_Source\PSoC4/CapSense_Processing.c ****         #if (0u != CapSense_SELF_TEST_EN)
 337:Generated_Source\PSoC4/CapSense_Processing.c ****             CapSense_dsRam.wdgtWorking[wdgtId] = 0xFFFFFFFFLu;
 338:Generated_Source\PSoC4/CapSense_Processing.c ****         #endif /* #if (0u == CapSense_SELF_TEST_EN) */
 339:Generated_Source\PSoC4/CapSense_Processing.c ****     }
 340:Generated_Source\PSoC4/CapSense_Processing.c **** 
 341:Generated_Source\PSoC4/CapSense_Processing.c ****     ptrFlashWdgt = CapSense_dsFlash.wdgtArray;
 342:Generated_Source\PSoC4/CapSense_Processing.c **** 
 343:Generated_Source\PSoC4/CapSense_Processing.c ****     for (wdgtId = CapSense_TOTAL_WIDGETS; wdgtId-- > 0u; )
 344:Generated_Source\PSoC4/CapSense_Processing.c ****     {
 345:Generated_Source\PSoC4/CapSense_Processing.c ****         ptrRamWdgt = ptrFlashWdgt->ptr2WdgtRam;
  66              		.loc 1 345 0 is_stmt 1
  67 0028 6668     		ldr	r6, [r4, #4]
  68              	.LVL5:
 346:Generated_Source\PSoC4/CapSense_Processing.c ****         widgetType = (CapSense_WD_TYPE_ENUM)ptrFlashWdgt->wdgtType;
  69              		.loc 1 346 0
  70 002a 227E     		ldrb	r2, [r4, #24]
  71              	.LVL6:
 347:Generated_Source\PSoC4/CapSense_Processing.c **** 
 348:Generated_Source\PSoC4/CapSense_Processing.c ****         /* Clear all sensor statuses */
 349:Generated_Source\PSoC4/CapSense_Processing.c ****         CapSense_dsRam.snsStatus[wdgtId] = 0u;
  72              		.loc 1 349 0
  73 002c 094B     		ldr	r3, .L8
  74 002e 5B19     		add	r3, r3, r5
  75 0030 0021     		mov	r1, #0
  76 0032 1975     		strb	r1, [r3, #20]
 350:Generated_Source\PSoC4/CapSense_Processing.c **** 
 351:Generated_Source\PSoC4/CapSense_Processing.c ****         /* Reset de-bounce counters */
 352:Generated_Source\PSoC4/CapSense_Processing.c ****         switch (widgetType)
  77              		.loc 1 352 0
  78 0034 012A     		cmp	r2, #1
  79 0036 06D1     		bne	.L5
 353:Generated_Source\PSoC4/CapSense_Processing.c ****         {
 354:Generated_Source\PSoC4/CapSense_Processing.c ****         #if (0u != CapSense_MATRIX_WIDGET_EN)
 355:Generated_Source\PSoC4/CapSense_Processing.c ****             case CapSense_WD_MATRIX_BUTTON_E:
 356:Generated_Source\PSoC4/CapSense_Processing.c ****                 #if (0u != CapSense_CSD_MATRIX_WIDGET_EN)
 357:Generated_Source\PSoC4/CapSense_Processing.c ****                     if (CapSense_SENSE_METHOD_CSD_E == CapSense_GET_SENSE_METHOD(ptrFlashWdgt))
 358:Generated_Source\PSoC4/CapSense_Processing.c ****                     {
 359:Generated_Source\PSoC4/CapSense_Processing.c ****                         CapSense_DpInitCsdMatrix(ptrFlashWdgt);
 360:Generated_Source\PSoC4/CapSense_Processing.c ****                     }
 361:Generated_Source\PSoC4/CapSense_Processing.c ****                 #endif /* #if (0u != CapSense_CSD_MATRIX_WIDGET_EN) */
 362:Generated_Source\PSoC4/CapSense_Processing.c ****                 
 363:Generated_Source\PSoC4/CapSense_Processing.c ****                 if (NULL != ptrFlashWdgt->ptr2DebounceArr)
 364:Generated_Source\PSoC4/CapSense_Processing.c ****                 {
 365:Generated_Source\PSoC4/CapSense_Processing.c ****                     /* Initialize array of debounce counters */
 366:Generated_Source\PSoC4/CapSense_Processing.c ****                     (void)memset(ptrFlashWdgt->ptr2DebounceArr, 
 367:Generated_Source\PSoC4/CapSense_Processing.c ****                                  (int32)ptrRamWdgt->onDebounce, 
 368:Generated_Source\PSoC4/CapSense_Processing.c ****                                  (size_t)ptrFlashWdgt->totalNumSns);
 369:Generated_Source\PSoC4/CapSense_Processing.c ****                 }
 370:Generated_Source\PSoC4/CapSense_Processing.c ****                 break;
 371:Generated_Source\PSoC4/CapSense_Processing.c ****         #endif /* #if (0u != CapSense_MATRIX_WIDGET_EN) */
 372:Generated_Source\PSoC4/CapSense_Processing.c ****         
 373:Generated_Source\PSoC4/CapSense_Processing.c ****         #if (0u != CapSense_BUTTON_WIDGET_EN)
 374:Generated_Source\PSoC4/CapSense_Processing.c ****             case CapSense_WD_BUTTON_E:
 375:Generated_Source\PSoC4/CapSense_Processing.c ****                 if (NULL != ptrFlashWdgt->ptr2DebounceArr)
ARM GAS  C:\Users\Jannai\AppData\Local\Temp\cc8fvKff.s 			page 9


  80              		.loc 1 375 0
  81 0038 2069     		ldr	r0, [r4, #16]
  82 003a 0028     		cmp	r0, #0
  83 003c 03D0     		beq	.L5
 376:Generated_Source\PSoC4/CapSense_Processing.c ****                 {
 377:Generated_Source\PSoC4/CapSense_Processing.c ****                     /* Initialize array of debounce counters */
 378:Generated_Source\PSoC4/CapSense_Processing.c ****                     (void)memset(ptrFlashWdgt->ptr2DebounceArr, 
 379:Generated_Source\PSoC4/CapSense_Processing.c ****                                  (int32)ptrRamWdgt->onDebounce, 
  84              		.loc 1 379 0
  85 003e F179     		ldrb	r1, [r6, #7]
 380:Generated_Source\PSoC4/CapSense_Processing.c ****                                  (size_t)ptrFlashWdgt->totalNumSns);
  86              		.loc 1 380 0
  87 0040 E28A     		ldrh	r2, [r4, #22]
  88              	.LVL7:
 378:Generated_Source\PSoC4/CapSense_Processing.c ****                                  (int32)ptrRamWdgt->onDebounce, 
  89              		.loc 1 378 0
  90 0042 FFF7FEFF 		bl	memset
  91              	.LVL8:
  92              	.L5:
 381:Generated_Source\PSoC4/CapSense_Processing.c ****                 }
 382:Generated_Source\PSoC4/CapSense_Processing.c ****                 break;
 383:Generated_Source\PSoC4/CapSense_Processing.c ****         #endif /* #if (0u != CapSense_BUTTON_WIDGET_EN) */
 384:Generated_Source\PSoC4/CapSense_Processing.c **** 
 385:Generated_Source\PSoC4/CapSense_Processing.c ****         #if (0u != CapSense_SLIDER_WIDGET_EN)
 386:Generated_Source\PSoC4/CapSense_Processing.c ****             case CapSense_WD_LINEAR_SLIDER_E:
 387:Generated_Source\PSoC4/CapSense_Processing.c ****             case CapSense_WD_RADIAL_SLIDER_E:
 388:Generated_Source\PSoC4/CapSense_Processing.c ****                 if (NULL != ptrFlashWdgt->ptr2DebounceArr)
 389:Generated_Source\PSoC4/CapSense_Processing.c ****                 {
 390:Generated_Source\PSoC4/CapSense_Processing.c ****                     /* Initialize single debounce counter of slider */
 391:Generated_Source\PSoC4/CapSense_Processing.c ****                     *(uint8 *)(ptrFlashWdgt->ptr2DebounceArr) = ptrRamWdgt->onDebounce;
 392:Generated_Source\PSoC4/CapSense_Processing.c ****                 }
 393:Generated_Source\PSoC4/CapSense_Processing.c **** 
 394:Generated_Source\PSoC4/CapSense_Processing.c ****                 CapSense_DpInitSlider(ptrFlashWdgt);
 395:Generated_Source\PSoC4/CapSense_Processing.c **** 
 396:Generated_Source\PSoC4/CapSense_Processing.c ****                 break;
 397:Generated_Source\PSoC4/CapSense_Processing.c ****         #endif /* #if (0u != CapSense_SLIDER_WIDGET_EN) */
 398:Generated_Source\PSoC4/CapSense_Processing.c **** 
 399:Generated_Source\PSoC4/CapSense_Processing.c ****         #if (0u != CapSense_TOUCHPAD_WIDGET_EN)
 400:Generated_Source\PSoC4/CapSense_Processing.c ****             case CapSense_WD_TOUCHPAD_E:
 401:Generated_Source\PSoC4/CapSense_Processing.c ****                 if (NULL != ptrFlashWdgt->ptr2DebounceArr)
 402:Generated_Source\PSoC4/CapSense_Processing.c ****                 {
 403:Generated_Source\PSoC4/CapSense_Processing.c ****                     /* Initialize single debounce counter of touchpad */
 404:Generated_Source\PSoC4/CapSense_Processing.c ****                     *(uint8 *)(ptrFlashWdgt->ptr2DebounceArr) = ptrRamWdgt->onDebounce;
 405:Generated_Source\PSoC4/CapSense_Processing.c ****                 }
 406:Generated_Source\PSoC4/CapSense_Processing.c **** 
 407:Generated_Source\PSoC4/CapSense_Processing.c ****                 #if (0u != CapSense_CSD_TOUCHPAD_WIDGET_EN)
 408:Generated_Source\PSoC4/CapSense_Processing.c ****                     if (CapSense_SENSE_METHOD_CSD_E == CapSense_GET_SENSE_METHOD(ptrFlashWdgt))
 409:Generated_Source\PSoC4/CapSense_Processing.c ****                     {
 410:Generated_Source\PSoC4/CapSense_Processing.c ****                         CapSense_DpInitCsdTouchpad(ptrFlashWdgt);
 411:Generated_Source\PSoC4/CapSense_Processing.c ****                     }
 412:Generated_Source\PSoC4/CapSense_Processing.c ****                 #endif /* #if (0u != CapSense_CSD_TOUCHPAD_WIDGET_EN) */
 413:Generated_Source\PSoC4/CapSense_Processing.c **** 
 414:Generated_Source\PSoC4/CapSense_Processing.c ****                 #if (0u != CapSense_CSX_TOUCHPAD_WIDGET_EN)
 415:Generated_Source\PSoC4/CapSense_Processing.c ****                     if (CapSense_SENSE_METHOD_CSX_E == CapSense_GET_SENSE_METHOD(ptrFlashWdgt))
 416:Generated_Source\PSoC4/CapSense_Processing.c ****                     {
 417:Generated_Source\PSoC4/CapSense_Processing.c ****                         CapSense_DpInitCsxTouchpad(ptrFlashWdgt);
 418:Generated_Source\PSoC4/CapSense_Processing.c ****                     }
ARM GAS  C:\Users\Jannai\AppData\Local\Temp\cc8fvKff.s 			page 10


 419:Generated_Source\PSoC4/CapSense_Processing.c ****                 #endif /* #if (0u != CapSense_CSX_TOUCHPAD_WIDGET_EN) */
 420:Generated_Source\PSoC4/CapSense_Processing.c **** 
 421:Generated_Source\PSoC4/CapSense_Processing.c ****                 break;
 422:Generated_Source\PSoC4/CapSense_Processing.c ****         #endif /* #if (0u != CapSense_TOUCHPAD_WIDGET_EN) */
 423:Generated_Source\PSoC4/CapSense_Processing.c **** 
 424:Generated_Source\PSoC4/CapSense_Processing.c ****         #if (0u != CapSense_PROXIMITY_WIDGET_EN)
 425:Generated_Source\PSoC4/CapSense_Processing.c ****             case CapSense_WD_PROXIMITY_E:
 426:Generated_Source\PSoC4/CapSense_Processing.c ****                 if (NULL != ptrFlashWdgt->ptr2DebounceArr)
 427:Generated_Source\PSoC4/CapSense_Processing.c ****                 {
 428:Generated_Source\PSoC4/CapSense_Processing.c ****                     /* Proximity widgets have 2 de-bounce counters per sensor. 
 429:Generated_Source\PSoC4/CapSense_Processing.c ****                      * Therefore the number of sensors is multiplied by 2. 
 430:Generated_Source\PSoC4/CapSense_Processing.c ****                      */
 431:Generated_Source\PSoC4/CapSense_Processing.c ****                    (void)memset(ptrFlashWdgt->ptr2DebounceArr, 
 432:Generated_Source\PSoC4/CapSense_Processing.c ****                                 (int32)ptrRamWdgt->onDebounce, 
 433:Generated_Source\PSoC4/CapSense_Processing.c ****                                 (size_t)ptrFlashWdgt->totalNumSns * 2u);
 434:Generated_Source\PSoC4/CapSense_Processing.c ****                 }
 435:Generated_Source\PSoC4/CapSense_Processing.c ****                 break;
 436:Generated_Source\PSoC4/CapSense_Processing.c ****         #endif /* #if (0u != CapSense_PROXIMITY_WIDGET_EN) */
 437:Generated_Source\PSoC4/CapSense_Processing.c ****                 
 438:Generated_Source\PSoC4/CapSense_Processing.c ****             default:
 439:Generated_Source\PSoC4/CapSense_Processing.c ****                 break;
 440:Generated_Source\PSoC4/CapSense_Processing.c ****         }
 441:Generated_Source\PSoC4/CapSense_Processing.c **** 
 442:Generated_Source\PSoC4/CapSense_Processing.c ****         /* Move to next widget */
 443:Generated_Source\PSoC4/CapSense_Processing.c ****         ptrFlashWdgt++;
  93              		.loc 1 443 0
  94 0046 2034     		add	r4, r4, #32
  95              	.LVL9:
 343:Generated_Source\PSoC4/CapSense_Processing.c ****     {
  96              		.loc 1 343 0
  97 0048 2B1C     		mov	r3, r5
  98              	.LVL10:
  99              	.L4:
 343:Generated_Source\PSoC4/CapSense_Processing.c ****     {
 100              		.loc 1 343 0 is_stmt 0 discriminator 1
 101 004a 5D1E     		sub	r5, r3, #1
 102              	.LVL11:
 103 004c 002B     		cmp	r3, #0
 104 004e EBD1     		bne	.L7
 444:Generated_Source\PSoC4/CapSense_Processing.c ****     }
 445:Generated_Source\PSoC4/CapSense_Processing.c **** }
 105              		.loc 1 445 0 is_stmt 1
 106              		@ sp needed
 107              	.LVL12:
 108              	.LVL13:
 109 0050 70BD     		pop	{r4, r5, r6, pc}
 110              	.L9:
 111 0052 C046     		.align	2
 112              	.L8:
 113 0054 00000000 		.word	CapSense_dsRam
 114 0058 00000000 		.word	CapSense_dsFlash
 115              		.cfi_endproc
 116              	.LFE2:
 117              		.size	CapSense_DpInitialize, .-CapSense_DpInitialize
 118              		.section	.text.CapSense_DpUpdateThresholds,"ax",%progbits
 119              		.align	2
 120              		.global	CapSense_DpUpdateThresholds
ARM GAS  C:\Users\Jannai\AppData\Local\Temp\cc8fvKff.s 			page 11


 121              		.code	16
 122              		.thumb_func
 123              		.type	CapSense_DpUpdateThresholds, %function
 124              	CapSense_DpUpdateThresholds:
 125              	.LFB6:
 446:Generated_Source\PSoC4/CapSense_Processing.c **** 
 447:Generated_Source\PSoC4/CapSense_Processing.c **** #if (0u != CapSense_TOTAL_CSX_WIDGETS)
 448:Generated_Source\PSoC4/CapSense_Processing.c **** /*******************************************************************************
 449:Generated_Source\PSoC4/CapSense_Processing.c **** * Function Name: CapSense_DpProcessCsxWidgetRawCounts
 450:Generated_Source\PSoC4/CapSense_Processing.c **** ****************************************************************************//**
 451:Generated_Source\PSoC4/CapSense_Processing.c **** *
 452:Generated_Source\PSoC4/CapSense_Processing.c **** * \brief
 453:Generated_Source\PSoC4/CapSense_Processing.c **** *  Performs default processing of the CSX raw counts.
 454:Generated_Source\PSoC4/CapSense_Processing.c **** *
 455:Generated_Source\PSoC4/CapSense_Processing.c **** * \details
 456:Generated_Source\PSoC4/CapSense_Processing.c **** *  Performs default processing of the CSX raw counts:
 457:Generated_Source\PSoC4/CapSense_Processing.c **** *   - Run Filters
 458:Generated_Source\PSoC4/CapSense_Processing.c **** *   - Update Baselines
 459:Generated_Source\PSoC4/CapSense_Processing.c **** *   - Update Differences
 460:Generated_Source\PSoC4/CapSense_Processing.c **** *   - Update Status.
 461:Generated_Source\PSoC4/CapSense_Processing.c **** *  The same process is applied to all sensors of the specified widget.
 462:Generated_Source\PSoC4/CapSense_Processing.c **** *
 463:Generated_Source\PSoC4/CapSense_Processing.c **** * \param ptrFlashWdgt The pointer to the Flash widget structure.
 464:Generated_Source\PSoC4/CapSense_Processing.c **** *
 465:Generated_Source\PSoC4/CapSense_Processing.c **** *******************************************************************************/
 466:Generated_Source\PSoC4/CapSense_Processing.c **** void CapSense_DpProcessCsxWidgetRawCounts(CapSense_FLASH_WD_STRUCT const *ptrFlashWdgt)
 467:Generated_Source\PSoC4/CapSense_Processing.c **** {
 468:Generated_Source\PSoC4/CapSense_Processing.c ****     uint32  widgetType;
 469:Generated_Source\PSoC4/CapSense_Processing.c ****     uint32  snsCount;
 470:Generated_Source\PSoC4/CapSense_Processing.c ****     CapSense_RAM_SNS_STRUCT *ptrSns;
 471:Generated_Source\PSoC4/CapSense_Processing.c ****     CapSense_RAM_WD_BASE_STRUCT *ptrRamWdgt;
 472:Generated_Source\PSoC4/CapSense_Processing.c **** 
 473:Generated_Source\PSoC4/CapSense_Processing.c ****     #if (0u != DP_FW_FILTER_EN)
 474:Generated_Source\PSoC4/CapSense_Processing.c ****         CapSense_PTR_FILTER_VARIANT fltrHistV;
 475:Generated_Source\PSoC4/CapSense_Processing.c ****         
 476:Generated_Source\PSoC4/CapSense_Processing.c ****         fltrHistV.ptr = ptrFlashWdgt->ptr2FltrHistory;
 477:Generated_Source\PSoC4/CapSense_Processing.c ****     #endif /* #if (0u != DP_FW_FILTER_EN) */
 478:Generated_Source\PSoC4/CapSense_Processing.c **** 
 479:Generated_Source\PSoC4/CapSense_Processing.c ****     ptrSns = ptrFlashWdgt->ptr2SnsRam;
 480:Generated_Source\PSoC4/CapSense_Processing.c ****     snsCount = ptrFlashWdgt->totalNumSns;
 481:Generated_Source\PSoC4/CapSense_Processing.c ****     ptrRamWdgt = ptrFlashWdgt->ptr2WdgtRam;
 482:Generated_Source\PSoC4/CapSense_Processing.c ****     widgetType = ptrFlashWdgt->wdgtType;
 483:Generated_Source\PSoC4/CapSense_Processing.c **** 
 484:Generated_Source\PSoC4/CapSense_Processing.c ****     /* Run deconvolution algorithm for the widgets with multiphase TX support */
 485:Generated_Source\PSoC4/CapSense_Processing.c ****     #if (0u != CapSense_CSX_MULTIPHASE_TX_EN)
 486:Generated_Source\PSoC4/CapSense_Processing.c ****         if (0u != (ptrFlashWdgt->staticConfig & CapSense_MULTIPHASE_TX_MASK))
 487:Generated_Source\PSoC4/CapSense_Processing.c ****         {
 488:Generated_Source\PSoC4/CapSense_Processing.c ****             CapSense_DpDeconvolution(ptrFlashWdgt);
 489:Generated_Source\PSoC4/CapSense_Processing.c ****         }
 490:Generated_Source\PSoC4/CapSense_Processing.c ****     #endif  /* #if (0u != CapSense_CSX_MULTIPHASE_TX_EN) */   
 491:Generated_Source\PSoC4/CapSense_Processing.c ****     
 492:Generated_Source\PSoC4/CapSense_Processing.c ****     for (;snsCount-- > 0u;)
 493:Generated_Source\PSoC4/CapSense_Processing.c ****     {
 494:Generated_Source\PSoC4/CapSense_Processing.c ****         #if (0u != CapSense_CSX_SKIP_OVSMPL_SPECIFIC_NODES)
 495:Generated_Source\PSoC4/CapSense_Processing.c ****             if (0u != ptrSns->resolution)
 496:Generated_Source\PSoC4/CapSense_Processing.c ****         #endif
 497:Generated_Source\PSoC4/CapSense_Processing.c ****             {
ARM GAS  C:\Users\Jannai\AppData\Local\Temp\cc8fvKff.s 			page 12


 498:Generated_Source\PSoC4/CapSense_Processing.c ****                 #if (0u != DP_FW_FILTER_EN)
 499:Generated_Source\PSoC4/CapSense_Processing.c ****                     CapSense_FtRunEnabledFiltersInternal(fltrHistV, ptrSns, widgetType);
 500:Generated_Source\PSoC4/CapSense_Processing.c ****                 #endif /* #if (0u != DP_FW_FILTER_EN) */
 501:Generated_Source\PSoC4/CapSense_Processing.c **** 
 502:Generated_Source\PSoC4/CapSense_Processing.c ****                 (void)CapSense_FtUpdateBaseline(ptrRamWdgt, ptrSns, widgetType);
 503:Generated_Source\PSoC4/CapSense_Processing.c ****                 CapSense_DpUpdateDifferences(ptrRamWdgt, ptrSns);
 504:Generated_Source\PSoC4/CapSense_Processing.c ****             }
 505:Generated_Source\PSoC4/CapSense_Processing.c **** 
 506:Generated_Source\PSoC4/CapSense_Processing.c ****         /* Move pointers to the next sensor and filter history objects */
 507:Generated_Source\PSoC4/CapSense_Processing.c ****         ptrSns++;
 508:Generated_Source\PSoC4/CapSense_Processing.c ****             
 509:Generated_Source\PSoC4/CapSense_Processing.c ****         #if (0u != DP_FW_FILTER_EN)
 510:Generated_Source\PSoC4/CapSense_Processing.c ****             CapSense_INC_FLTR_OBJ_VARIANT(0u, fltrHistV);
 511:Generated_Source\PSoC4/CapSense_Processing.c ****         #endif /* #if (0u != DP_FW_FILTER_EN) */
 512:Generated_Source\PSoC4/CapSense_Processing.c ****     }
 513:Generated_Source\PSoC4/CapSense_Processing.c **** }
 514:Generated_Source\PSoC4/CapSense_Processing.c **** 
 515:Generated_Source\PSoC4/CapSense_Processing.c **** /*******************************************************************************
 516:Generated_Source\PSoC4/CapSense_Processing.c **** * Function Name: CapSense_DpProcessCsxSensorRawCountsExt
 517:Generated_Source\PSoC4/CapSense_Processing.c **** ****************************************************************************//**
 518:Generated_Source\PSoC4/CapSense_Processing.c **** *
 519:Generated_Source\PSoC4/CapSense_Processing.c **** * \brief
 520:Generated_Source\PSoC4/CapSense_Processing.c **** *   Performs customized processing of the CSX sensor raw counts.
 521:Generated_Source\PSoC4/CapSense_Processing.c **** *
 522:Generated_Source\PSoC4/CapSense_Processing.c **** * \details
 523:Generated_Source\PSoC4/CapSense_Processing.c **** *   Performs customized processing of the CSX sensor raw counts.
 524:Generated_Source\PSoC4/CapSense_Processing.c **** *
 525:Generated_Source\PSoC4/CapSense_Processing.c **** *   If all bits are set at once the default processing order will take place.
 526:Generated_Source\PSoC4/CapSense_Processing.c **** *   For the custom order this API can be called multiple times and execute one task at a time.
 527:Generated_Source\PSoC4/CapSense_Processing.c **** *
 528:Generated_Source\PSoC4/CapSense_Processing.c **** * \param ptrFlashWdgt The pointer to the Flash Widget Object.
 529:Generated_Source\PSoC4/CapSense_Processing.c **** * \param ptrSns       The pointer to the specific RAM Sensor Object.
 530:Generated_Source\PSoC4/CapSense_Processing.c **** * \param fltrHistV    The pointer to the Filter History Object in RAM associated with specific sens
 531:Generated_Source\PSoC4/CapSense_Processing.c **** * \param mode         The bit-mask with the data processing tasks to be executed.
 532:Generated_Source\PSoC4/CapSense_Processing.c **** *   The mode parameters can take the following values:
 533:Generated_Source\PSoC4/CapSense_Processing.c **** *    - CapSense_PROCESS_FILTER     (0x01) Run Firmware Filter
 534:Generated_Source\PSoC4/CapSense_Processing.c **** *    - CapSense_PROCESS_BASELINE   (0x02) Update Baselines
 535:Generated_Source\PSoC4/CapSense_Processing.c **** *    - CapSense_PROCESS_DIFFCOUNTS (0x04) Update Difference Counts
 536:Generated_Source\PSoC4/CapSense_Processing.c **** *    - CapSense_PROCESS_ALL               Execute all tasks
 537:Generated_Source\PSoC4/CapSense_Processing.c **** *
 538:Generated_Source\PSoC4/CapSense_Processing.c **** *******************************************************************************/
 539:Generated_Source\PSoC4/CapSense_Processing.c **** void CapSense_DpProcessCsxSensorRawCountsExt(
 540:Generated_Source\PSoC4/CapSense_Processing.c ****                 CapSense_FLASH_WD_STRUCT const *ptrFlashWdgt,
 541:Generated_Source\PSoC4/CapSense_Processing.c ****                 CapSense_RAM_SNS_STRUCT *ptrSns,
 542:Generated_Source\PSoC4/CapSense_Processing.c ****                 CapSense_PTR_FILTER_VARIANT fltrHistV,
 543:Generated_Source\PSoC4/CapSense_Processing.c ****                 uint32 mode)
 544:Generated_Source\PSoC4/CapSense_Processing.c **** {
 545:Generated_Source\PSoC4/CapSense_Processing.c ****     uint32  widgetType;
 546:Generated_Source\PSoC4/CapSense_Processing.c ****     CapSense_RAM_WD_BASE_STRUCT *ptrRamWdgt;
 547:Generated_Source\PSoC4/CapSense_Processing.c **** 
 548:Generated_Source\PSoC4/CapSense_Processing.c ****     widgetType = ptrFlashWdgt->wdgtType;
 549:Generated_Source\PSoC4/CapSense_Processing.c ****     ptrRamWdgt = ptrFlashWdgt->ptr2WdgtRam;
 550:Generated_Source\PSoC4/CapSense_Processing.c ****     
 551:Generated_Source\PSoC4/CapSense_Processing.c ****     #if (0u != DP_FW_FILTER_EN)
 552:Generated_Source\PSoC4/CapSense_Processing.c ****         if (0u != (mode & CapSense_PROCESS_FILTER))
 553:Generated_Source\PSoC4/CapSense_Processing.c ****         {
 554:Generated_Source\PSoC4/CapSense_Processing.c ****             CapSense_FtRunEnabledFiltersInternal(fltrHistV, ptrSns, widgetType);
ARM GAS  C:\Users\Jannai\AppData\Local\Temp\cc8fvKff.s 			page 13


 555:Generated_Source\PSoC4/CapSense_Processing.c ****         }
 556:Generated_Source\PSoC4/CapSense_Processing.c ****     #else
 557:Generated_Source\PSoC4/CapSense_Processing.c ****         (void)fltrHistV; /* This parameter is unused in such configurations */
 558:Generated_Source\PSoC4/CapSense_Processing.c ****     #endif /* #if (0u != DP_FW_FILTER_EN) */
 559:Generated_Source\PSoC4/CapSense_Processing.c **** 
 560:Generated_Source\PSoC4/CapSense_Processing.c ****     if (0u != (mode & CapSense_PROCESS_BASELINE))
 561:Generated_Source\PSoC4/CapSense_Processing.c ****     {
 562:Generated_Source\PSoC4/CapSense_Processing.c ****         (void)CapSense_FtUpdateBaseline(ptrRamWdgt, ptrSns, widgetType);
 563:Generated_Source\PSoC4/CapSense_Processing.c ****     }
 564:Generated_Source\PSoC4/CapSense_Processing.c **** 
 565:Generated_Source\PSoC4/CapSense_Processing.c ****     if (0u != (mode & CapSense_PROCESS_DIFFCOUNTS))
 566:Generated_Source\PSoC4/CapSense_Processing.c ****     {
 567:Generated_Source\PSoC4/CapSense_Processing.c ****         CapSense_DpUpdateDifferences(ptrRamWdgt, ptrSns);
 568:Generated_Source\PSoC4/CapSense_Processing.c ****     }
 569:Generated_Source\PSoC4/CapSense_Processing.c **** }
 570:Generated_Source\PSoC4/CapSense_Processing.c **** 
 571:Generated_Source\PSoC4/CapSense_Processing.c **** 
 572:Generated_Source\PSoC4/CapSense_Processing.c **** /*******************************************************************************
 573:Generated_Source\PSoC4/CapSense_Processing.c **** * Function Name: CapSense_DpProcessCsxWidgetStatus
 574:Generated_Source\PSoC4/CapSense_Processing.c **** ****************************************************************************//**
 575:Generated_Source\PSoC4/CapSense_Processing.c **** *
 576:Generated_Source\PSoC4/CapSense_Processing.c **** * \brief
 577:Generated_Source\PSoC4/CapSense_Processing.c **** *   Updates the status of the CSX widget in the Data Structure.
 578:Generated_Source\PSoC4/CapSense_Processing.c **** *
 579:Generated_Source\PSoC4/CapSense_Processing.c **** * \details
 580:Generated_Source\PSoC4/CapSense_Processing.c **** *  This API determines the type of widget and runs the appropriate function
 581:Generated_Source\PSoC4/CapSense_Processing.c **** *  that implements the status update algorithm for this type of widget.
 582:Generated_Source\PSoC4/CapSense_Processing.c **** *
 583:Generated_Source\PSoC4/CapSense_Processing.c **** *  When the widget-specific processing completes this API updates the snsStatus
 584:Generated_Source\PSoC4/CapSense_Processing.c **** *  and wdgtStatus registers in the data structure. The wdgtStatus register
 585:Generated_Source\PSoC4/CapSense_Processing.c **** *  is a bitmask were each bit corresponds to the specific widget identified by
 586:Generated_Source\PSoC4/CapSense_Processing.c **** *  the widget index. When the bit is set the widget is active (touched);
 587:Generated_Source\PSoC4/CapSense_Processing.c **** *
 588:Generated_Source\PSoC4/CapSense_Processing.c **** *  Depending on the type of widget the snsStatus register may contain either
 589:Generated_Source\PSoC4/CapSense_Processing.c **** *  status of each widget node (active/non-active) or in case of the CSX Touchpad
 590:Generated_Source\PSoC4/CapSense_Processing.c **** *  is contains the number of touches. In both cases 0 means that widget is not
 591:Generated_Source\PSoC4/CapSense_Processing.c **** *  active.
 592:Generated_Source\PSoC4/CapSense_Processing.c **** *
 593:Generated_Source\PSoC4/CapSense_Processing.c **** * \param wdgtId       The widget index number.
 594:Generated_Source\PSoC4/CapSense_Processing.c **** * \param ptrFlashWdgt The pointer to the Flash Widget Object.
 595:Generated_Source\PSoC4/CapSense_Processing.c **** *
 596:Generated_Source\PSoC4/CapSense_Processing.c **** *******************************************************************************/
 597:Generated_Source\PSoC4/CapSense_Processing.c **** void CapSense_DpProcessCsxWidgetStatus(uint32 wdgtId, CapSense_FLASH_WD_STRUCT const *ptrFlashWdgt)
 598:Generated_Source\PSoC4/CapSense_Processing.c **** {
 599:Generated_Source\PSoC4/CapSense_Processing.c ****     uint32 sensorStatus;
 600:Generated_Source\PSoC4/CapSense_Processing.c ****     uint32 wdStatusIndex;
 601:Generated_Source\PSoC4/CapSense_Processing.c ****     uint32 wdStatusMask;
 602:Generated_Source\PSoC4/CapSense_Processing.c ****     CapSense_WD_TYPE_ENUM widgetType;
 603:Generated_Source\PSoC4/CapSense_Processing.c **** 
 604:Generated_Source\PSoC4/CapSense_Processing.c ****     widgetType = (CapSense_WD_TYPE_ENUM)ptrFlashWdgt->wdgtType;
 605:Generated_Source\PSoC4/CapSense_Processing.c ****     sensorStatus = CapSense_dsRam.snsStatus[wdgtId];
 606:Generated_Source\PSoC4/CapSense_Processing.c **** 
 607:Generated_Source\PSoC4/CapSense_Processing.c ****     switch (widgetType)
 608:Generated_Source\PSoC4/CapSense_Processing.c ****     {
 609:Generated_Source\PSoC4/CapSense_Processing.c ****     #if (0u != CapSense_BUTTON_WIDGET_EN)
 610:Generated_Source\PSoC4/CapSense_Processing.c ****         case CapSense_WD_BUTTON_E:
 611:Generated_Source\PSoC4/CapSense_Processing.c ****             sensorStatus = CapSense_DpProcessButton(sensorStatus, ptrFlashWdgt);
ARM GAS  C:\Users\Jannai\AppData\Local\Temp\cc8fvKff.s 			page 14


 612:Generated_Source\PSoC4/CapSense_Processing.c ****             break;
 613:Generated_Source\PSoC4/CapSense_Processing.c ****     #endif /* #if (0u != CapSense_BUTTON_WIDGET_EN) */
 614:Generated_Source\PSoC4/CapSense_Processing.c **** 
 615:Generated_Source\PSoC4/CapSense_Processing.c ****     #if (0u != CapSense_CSX_MATRIX_WIDGET_EN)
 616:Generated_Source\PSoC4/CapSense_Processing.c ****         case CapSense_WD_MATRIX_BUTTON_E:
 617:Generated_Source\PSoC4/CapSense_Processing.c ****             sensorStatus = CapSense_DpProcessButton(sensorStatus, ptrFlashWdgt);
 618:Generated_Source\PSoC4/CapSense_Processing.c ****             break;
 619:Generated_Source\PSoC4/CapSense_Processing.c ****     #endif /* #if (0u != CapSense_CSX_MATRIX_WIDGET_EN) */
 620:Generated_Source\PSoC4/CapSense_Processing.c **** 
 621:Generated_Source\PSoC4/CapSense_Processing.c ****     #if (0u != CapSense_CSX_TOUCHPAD_WIDGET_EN)
 622:Generated_Source\PSoC4/CapSense_Processing.c ****         case CapSense_WD_TOUCHPAD_E:
 623:Generated_Source\PSoC4/CapSense_Processing.c ****             sensorStatus = CapSense_DpProcessCsxTouchpad(sensorStatus, ptrFlashWdgt);
 624:Generated_Source\PSoC4/CapSense_Processing.c ****             break;
 625:Generated_Source\PSoC4/CapSense_Processing.c ****     #endif /* #if (0u != CapSense_CSX_TOUCHPAD_WIDGET_EN) */
 626:Generated_Source\PSoC4/CapSense_Processing.c **** 
 627:Generated_Source\PSoC4/CapSense_Processing.c ****     default:
 628:Generated_Source\PSoC4/CapSense_Processing.c ****         CYASSERT(0u);
 629:Generated_Source\PSoC4/CapSense_Processing.c ****         break;
 630:Generated_Source\PSoC4/CapSense_Processing.c ****     }
 631:Generated_Source\PSoC4/CapSense_Processing.c **** 
 632:Generated_Source\PSoC4/CapSense_Processing.c ****     /* Update sensor status in the data structure */
 633:Generated_Source\PSoC4/CapSense_Processing.c ****     CapSense_dsRam.snsStatus[wdgtId] = (CapSense_SNS_STS_TYPE)sensorStatus;
 634:Generated_Source\PSoC4/CapSense_Processing.c **** 
 635:Generated_Source\PSoC4/CapSense_Processing.c ****     /* The next two lines calculate index and bitmask of the widget status bit in the wdgtStatus ar
 636:Generated_Source\PSoC4/CapSense_Processing.c ****     wdStatusIndex = CapSense_GET_WDGT_STATUS_INDEX(wdgtId);
 637:Generated_Source\PSoC4/CapSense_Processing.c ****     wdStatusMask = CapSense_GET_WDGT_STATUS_MASK(wdgtId);
 638:Generated_Source\PSoC4/CapSense_Processing.c **** 
 639:Generated_Source\PSoC4/CapSense_Processing.c ****     /* Check if there are active sensors and update widget status accordingly */
 640:Generated_Source\PSoC4/CapSense_Processing.c ****     if (0u == sensorStatus)
 641:Generated_Source\PSoC4/CapSense_Processing.c ****     {
 642:Generated_Source\PSoC4/CapSense_Processing.c ****         CapSense_dsRam.wdgtStatus[wdStatusIndex] &= ~wdStatusMask;
 643:Generated_Source\PSoC4/CapSense_Processing.c ****     }
 644:Generated_Source\PSoC4/CapSense_Processing.c ****     else
 645:Generated_Source\PSoC4/CapSense_Processing.c ****     {
 646:Generated_Source\PSoC4/CapSense_Processing.c ****         CapSense_dsRam.wdgtStatus[wdStatusIndex] |= wdStatusMask;
 647:Generated_Source\PSoC4/CapSense_Processing.c ****     }
 648:Generated_Source\PSoC4/CapSense_Processing.c **** }
 649:Generated_Source\PSoC4/CapSense_Processing.c **** #endif /* #if CapSense_TOTAL_CSX_WIDGETS */
 650:Generated_Source\PSoC4/CapSense_Processing.c **** 
 651:Generated_Source\PSoC4/CapSense_Processing.c **** #if (0u != CapSense_TOTAL_CSD_WIDGETS)
 652:Generated_Source\PSoC4/CapSense_Processing.c **** /*******************************************************************************
 653:Generated_Source\PSoC4/CapSense_Processing.c **** * Function Name: CapSense_DpProcessCsdWidgetRawCounts
 654:Generated_Source\PSoC4/CapSense_Processing.c **** ****************************************************************************//**
 655:Generated_Source\PSoC4/CapSense_Processing.c **** *
 656:Generated_Source\PSoC4/CapSense_Processing.c **** * \brief
 657:Generated_Source\PSoC4/CapSense_Processing.c **** *   Performs default processing for the CSD widget raw counts.
 658:Generated_Source\PSoC4/CapSense_Processing.c **** *
 659:Generated_Source\PSoC4/CapSense_Processing.c **** * \details
 660:Generated_Source\PSoC4/CapSense_Processing.c **** *   Performs default processing for the CSD widget raw counts:
 661:Generated_Source\PSoC4/CapSense_Processing.c **** *    - Run Filters
 662:Generated_Source\PSoC4/CapSense_Processing.c **** *    - Update Thresholds (FW Auto-tuning)
 663:Generated_Source\PSoC4/CapSense_Processing.c **** *    - Update Baselines
 664:Generated_Source\PSoC4/CapSense_Processing.c **** *    - Update Differences.
 665:Generated_Source\PSoC4/CapSense_Processing.c **** *   The process is applied to all widget's sensors.
 666:Generated_Source\PSoC4/CapSense_Processing.c **** *
 667:Generated_Source\PSoC4/CapSense_Processing.c **** * \param ptrFlashWdgt The pointer to the Flash Widget Object.
 668:Generated_Source\PSoC4/CapSense_Processing.c **** *
ARM GAS  C:\Users\Jannai\AppData\Local\Temp\cc8fvKff.s 			page 15


 669:Generated_Source\PSoC4/CapSense_Processing.c **** *******************************************************************************/
 670:Generated_Source\PSoC4/CapSense_Processing.c **** void CapSense_DpProcessCsdWidgetRawCounts(CapSense_FLASH_WD_STRUCT const *ptrFlashWdgt)
 671:Generated_Source\PSoC4/CapSense_Processing.c **** {
 672:Generated_Source\PSoC4/CapSense_Processing.c ****     uint32  widgetType;
 673:Generated_Source\PSoC4/CapSense_Processing.c ****     uint32  snsId;
 674:Generated_Source\PSoC4/CapSense_Processing.c ****     CapSense_RAM_SNS_STRUCT *ptrSns;
 675:Generated_Source\PSoC4/CapSense_Processing.c ****     CapSense_RAM_WD_BASE_STRUCT *ptrRamWdgt;
 676:Generated_Source\PSoC4/CapSense_Processing.c **** 
 677:Generated_Source\PSoC4/CapSense_Processing.c ****     #if (0u != (CapSense_CSD_AUTOTUNE & CapSense_CSD_SS_TH_EN))
 678:Generated_Source\PSoC4/CapSense_Processing.c ****         /* The noise envelope data is available only when Full CSD Auto-Tuning is enabled */
 679:Generated_Source\PSoC4/CapSense_Processing.c ****         SMARTSENSE_CSD_NOISE_ENVELOPE_STRUCT *ptrNoiseEnvelope;
 680:Generated_Source\PSoC4/CapSense_Processing.c ****         #if (CapSense_ENABLE == CapSense_PROXIMITY_WIDGET_EN)
 681:Generated_Source\PSoC4/CapSense_Processing.c ****             uint32  proximityThreshold;
 682:Generated_Source\PSoC4/CapSense_Processing.c ****         #endif /* (0 != CapSense_PROXIMITY_WIDGET_EN) */
 683:Generated_Source\PSoC4/CapSense_Processing.c ****     #endif /* #if (0u != (CapSense_CSD_AUTOTUNE & CapSense_CSD_SS_TH_EN)) */
 684:Generated_Source\PSoC4/CapSense_Processing.c **** 
 685:Generated_Source\PSoC4/CapSense_Processing.c ****     #if (0u != DP_FW_FILTER_EN)
 686:Generated_Source\PSoC4/CapSense_Processing.c ****         CapSense_PTR_FILTER_VARIANT fltrHistV;
 687:Generated_Source\PSoC4/CapSense_Processing.c ****     
 688:Generated_Source\PSoC4/CapSense_Processing.c ****         /* Determine if widget type is proximity */
 689:Generated_Source\PSoC4/CapSense_Processing.c ****         uint32 isProxWdgt = 
 690:Generated_Source\PSoC4/CapSense_Processing.c ****                     (CapSense_GET_WIDGET_TYPE(ptrFlashWdgt) == CapSense_WD_PROXIMITY_E) ? 1u : 0u;
 691:Generated_Source\PSoC4/CapSense_Processing.c ****                     
 692:Generated_Source\PSoC4/CapSense_Processing.c ****         /* Get pointer to the filter history object */
 693:Generated_Source\PSoC4/CapSense_Processing.c ****         fltrHistV.ptr = ptrFlashWdgt->ptr2FltrHistory;
 694:Generated_Source\PSoC4/CapSense_Processing.c ****     #endif /* #if (0u != DP_FW_FILTER_EN) */
 695:Generated_Source\PSoC4/CapSense_Processing.c ****     
 696:Generated_Source\PSoC4/CapSense_Processing.c ****     ptrSns = ptrFlashWdgt->ptr2SnsRam;
 697:Generated_Source\PSoC4/CapSense_Processing.c ****     ptrRamWdgt = ptrFlashWdgt->ptr2WdgtRam;
 698:Generated_Source\PSoC4/CapSense_Processing.c ****     widgetType = ptrFlashWdgt->wdgtType;
 699:Generated_Source\PSoC4/CapSense_Processing.c **** 
 700:Generated_Source\PSoC4/CapSense_Processing.c ****     #if (0u != (CapSense_CSD_AUTOTUNE & CapSense_CSD_SS_TH_EN))
 701:Generated_Source\PSoC4/CapSense_Processing.c ****         ptrNoiseEnvelope = ptrFlashWdgt->ptr2NoiseEnvlp;
 702:Generated_Source\PSoC4/CapSense_Processing.c ****     #endif /* #if (0u != (CapSense_CSD_AUTOTUNE & CapSense_CSD_SS_TH_EN)) */
 703:Generated_Source\PSoC4/CapSense_Processing.c **** 
 704:Generated_Source\PSoC4/CapSense_Processing.c ****     /* Iterate through all widget's sensors */
 705:Generated_Source\PSoC4/CapSense_Processing.c ****     for(snsId = 0u; snsId < ptrFlashWdgt->totalNumSns; snsId++)
 706:Generated_Source\PSoC4/CapSense_Processing.c ****     {
 707:Generated_Source\PSoC4/CapSense_Processing.c ****         /* Run all enabled filter on specified widget's sensor */
 708:Generated_Source\PSoC4/CapSense_Processing.c ****         #if (0u != DP_FW_FILTER_EN)
 709:Generated_Source\PSoC4/CapSense_Processing.c ****             CapSense_FtRunEnabledFiltersInternal(fltrHistV, ptrSns, widgetType);
 710:Generated_Source\PSoC4/CapSense_Processing.c ****         #endif /* #if (0u != DP_FW_FILTER_EN) */
 711:Generated_Source\PSoC4/CapSense_Processing.c **** 
 712:Generated_Source\PSoC4/CapSense_Processing.c ****         /* Run auto-tuning activities */
 713:Generated_Source\PSoC4/CapSense_Processing.c ****         #if (0u != (CapSense_CSD_AUTOTUNE & CapSense_CSD_SS_TH_EN))
 714:Generated_Source\PSoC4/CapSense_Processing.c ****             SmartSense_RunNoiseEnvelope(ptrSns->raw[0u], ptrRamWdgt->sigPFC, ptrNoiseEnvelope);
 715:Generated_Source\PSoC4/CapSense_Processing.c ****             CapSense_DpUpdateThresholds(ptrRamWdgt, ptrNoiseEnvelope, snsId);
 716:Generated_Source\PSoC4/CapSense_Processing.c **** 
 717:Generated_Source\PSoC4/CapSense_Processing.c ****             /* Calculate Proximity Touch Threshold in SmartSense mode based on Finger Threshold and
 718:Generated_Source\PSoC4/CapSense_Processing.c ****             #if (CapSense_ENABLE == CapSense_PROXIMITY_WIDGET_EN)
 719:Generated_Source\PSoC4/CapSense_Processing.c ****                 if (CapSense_WD_PROXIMITY_E == CapSense_GET_WIDGET_TYPE(ptrFlashWdgt))
 720:Generated_Source\PSoC4/CapSense_Processing.c ****                 {
 721:Generated_Source\PSoC4/CapSense_Processing.c ****                     proximityThreshold = (uint32)ptrRamWdgt->fingerTh * CapSense_PROX_TOUCH_COEFF /
 722:Generated_Source\PSoC4/CapSense_Processing.c ****                     if ((((1Lu) << CapSense_THRESHOLD_SIZE) - 1u) < proximityThreshold)
 723:Generated_Source\PSoC4/CapSense_Processing.c ****                     {
 724:Generated_Source\PSoC4/CapSense_Processing.c ****                         proximityThreshold = ((1Lu) << CapSense_THRESHOLD_SIZE) - 1u;
 725:Generated_Source\PSoC4/CapSense_Processing.c ****                     }
ARM GAS  C:\Users\Jannai\AppData\Local\Temp\cc8fvKff.s 			page 16


 726:Generated_Source\PSoC4/CapSense_Processing.c ****                     ((CapSense_RAM_WD_PROXIMITY_STRUCT *)ptrFlashWdgt->ptr2WdgtRam)->proxTouchTh = 
 727:Generated_Source\PSoC4/CapSense_Processing.c ****                         (CapSense_THRESHOLD_TYPE)proximityThreshold;
 728:Generated_Source\PSoC4/CapSense_Processing.c ****                 }
 729:Generated_Source\PSoC4/CapSense_Processing.c ****             #endif /* (0 != CapSense_PROXIMITY_WIDGET_EN) */
 730:Generated_Source\PSoC4/CapSense_Processing.c ****             
 731:Generated_Source\PSoC4/CapSense_Processing.c ****             /* Move to next noise-envelope object */
 732:Generated_Source\PSoC4/CapSense_Processing.c ****             ptrNoiseEnvelope++;
 733:Generated_Source\PSoC4/CapSense_Processing.c ****         #endif /* (0u != (CapSense_CSD_AUTOTUNE & CapSense_CSD_SS_TH_EN)) */
 734:Generated_Source\PSoC4/CapSense_Processing.c **** 
 735:Generated_Source\PSoC4/CapSense_Processing.c ****         (void)CapSense_FtUpdateBaseline(ptrRamWdgt, ptrSns, widgetType);
 736:Generated_Source\PSoC4/CapSense_Processing.c ****         CapSense_DpUpdateDifferences(ptrRamWdgt, ptrSns);
 737:Generated_Source\PSoC4/CapSense_Processing.c **** 
 738:Generated_Source\PSoC4/CapSense_Processing.c ****         /* Move to next sensor object */
 739:Generated_Source\PSoC4/CapSense_Processing.c ****         ptrSns++;
 740:Generated_Source\PSoC4/CapSense_Processing.c **** 
 741:Generated_Source\PSoC4/CapSense_Processing.c ****         #if (0u != DP_FW_FILTER_EN)
 742:Generated_Source\PSoC4/CapSense_Processing.c ****             /* Move to the next filter history object */
 743:Generated_Source\PSoC4/CapSense_Processing.c ****             CapSense_INC_FLTR_OBJ_VARIANT(isProxWdgt, fltrHistV);
 744:Generated_Source\PSoC4/CapSense_Processing.c ****         #endif /* #if (0u != DP_FW_FILTER_EN) */
 745:Generated_Source\PSoC4/CapSense_Processing.c ****     }
 746:Generated_Source\PSoC4/CapSense_Processing.c **** }
 747:Generated_Source\PSoC4/CapSense_Processing.c **** 
 748:Generated_Source\PSoC4/CapSense_Processing.c **** 
 749:Generated_Source\PSoC4/CapSense_Processing.c **** /*******************************************************************************
 750:Generated_Source\PSoC4/CapSense_Processing.c **** * Function Name: CapSense_DpProcessCsdSensorRawCountsExt
 751:Generated_Source\PSoC4/CapSense_Processing.c **** ****************************************************************************//**
 752:Generated_Source\PSoC4/CapSense_Processing.c **** *
 753:Generated_Source\PSoC4/CapSense_Processing.c **** * \brief
 754:Generated_Source\PSoC4/CapSense_Processing.c **** *   Performs customized processing of the CSD sensor raw counts.
 755:Generated_Source\PSoC4/CapSense_Processing.c **** *
 756:Generated_Source\PSoC4/CapSense_Processing.c **** * \details
 757:Generated_Source\PSoC4/CapSense_Processing.c **** *   Performs customized processing of the CSD sensor raw counts.
 758:Generated_Source\PSoC4/CapSense_Processing.c **** *
 759:Generated_Source\PSoC4/CapSense_Processing.c **** *   Note that this API updates data associated only with the sensor. It cannot be used to update
 760:Generated_Source\PSoC4/CapSense_Processing.c **** *   widget status.
 761:Generated_Source\PSoC4/CapSense_Processing.c **** *
 762:Generated_Source\PSoC4/CapSense_Processing.c **** * \param ptrFlashWdgt The pointer to the Flash widget structure.
 763:Generated_Source\PSoC4/CapSense_Processing.c **** * \param ptrSns       The pointer to the sensor object in RAM.
 764:Generated_Source\PSoC4/CapSense_Processing.c **** * \param fltrHistV    The pointer to the Filter History Object in RAM.
 765:Generated_Source\PSoC4/CapSense_Processing.c **** * \param mode         The bit-mask with the data processing tasks to be executed.
 766:Generated_Source\PSoC4/CapSense_Processing.c **** *   The mode parameters can take the following values:
 767:Generated_Source\PSoC4/CapSense_Processing.c **** *    - CapSense_PROCESS_FILTER     (0x01) Run Firmware Filter
 768:Generated_Source\PSoC4/CapSense_Processing.c **** *    - CapSense_PROCESS_BASELINE   (0x02) Update Baselines
 769:Generated_Source\PSoC4/CapSense_Processing.c **** *    - CapSense_PROCESS_DIFFCOUNTS (0x04) Update Difference Counts
 770:Generated_Source\PSoC4/CapSense_Processing.c **** *    - CapSense_PROCESS_CALC_NOISE (0x08) Calculate Noise (only if FW Tuning is enabled)
 771:Generated_Source\PSoC4/CapSense_Processing.c **** *    - CapSense_PROCESS_THRESHOLDS (0x10) Update Thresholds (only if FW Tuning is enabled)
 772:Generated_Source\PSoC4/CapSense_Processing.c **** *    - CapSense_PROCESS_ALL               Execute all tasks
 773:Generated_Source\PSoC4/CapSense_Processing.c **** *
 774:Generated_Source\PSoC4/CapSense_Processing.c **** *******************************************************************************/
 775:Generated_Source\PSoC4/CapSense_Processing.c **** void CapSense_DpProcessCsdSensorRawCountsExt(
 776:Generated_Source\PSoC4/CapSense_Processing.c ****                 CapSense_FLASH_WD_STRUCT const *ptrFlashWdgt,
 777:Generated_Source\PSoC4/CapSense_Processing.c ****                 CapSense_RAM_SNS_STRUCT *ptrSns,
 778:Generated_Source\PSoC4/CapSense_Processing.c ****                 CapSense_PTR_FILTER_VARIANT fltrHistV,
 779:Generated_Source\PSoC4/CapSense_Processing.c ****                  uint32 mode)
 780:Generated_Source\PSoC4/CapSense_Processing.c **** {
 781:Generated_Source\PSoC4/CapSense_Processing.c ****     uint32  widgetType;
 782:Generated_Source\PSoC4/CapSense_Processing.c ****     CapSense_RAM_WD_BASE_STRUCT *ptrRamWdgt;
ARM GAS  C:\Users\Jannai\AppData\Local\Temp\cc8fvKff.s 			page 17


 783:Generated_Source\PSoC4/CapSense_Processing.c **** 
 784:Generated_Source\PSoC4/CapSense_Processing.c ****     #if (0u != (CapSense_CSD_AUTOTUNE & CapSense_CSD_SS_TH_EN))
 785:Generated_Source\PSoC4/CapSense_Processing.c ****         SMARTSENSE_CSD_NOISE_ENVELOPE_STRUCT *ptrNoiseEnvelope;
 786:Generated_Source\PSoC4/CapSense_Processing.c **** 
 787:Generated_Source\PSoC4/CapSense_Processing.c ****         /* Need to specify pointer to corresponding sensor's noise-envelope object.*/
 788:Generated_Source\PSoC4/CapSense_Processing.c ****         ptrNoiseEnvelope = ptrFlashWdgt->ptr2NoiseEnvlp;
 789:Generated_Source\PSoC4/CapSense_Processing.c ****         #if (CapSense_ENABLE == CapSense_PROXIMITY_WIDGET_EN)
 790:Generated_Source\PSoC4/CapSense_Processing.c ****             uint32  proximityThreshold;
 791:Generated_Source\PSoC4/CapSense_Processing.c ****         #endif /* (0 != CapSense_PROXIMITY_WIDGET_EN) */
 792:Generated_Source\PSoC4/CapSense_Processing.c ****     #endif /* (0u != (CapSense_CSD_AUTOTUNE & CapSense_CSD_SS_TH_EN)) */
 793:Generated_Source\PSoC4/CapSense_Processing.c **** 
 794:Generated_Source\PSoC4/CapSense_Processing.c ****     widgetType = ptrFlashWdgt->wdgtType;
 795:Generated_Source\PSoC4/CapSense_Processing.c ****     ptrRamWdgt = ptrFlashWdgt->ptr2WdgtRam;
 796:Generated_Source\PSoC4/CapSense_Processing.c **** 
 797:Generated_Source\PSoC4/CapSense_Processing.c ****     #if (0u != DP_FW_FILTER_EN)
 798:Generated_Source\PSoC4/CapSense_Processing.c ****         if (0u != (mode & CapSense_PROCESS_FILTER))
 799:Generated_Source\PSoC4/CapSense_Processing.c ****         {
 800:Generated_Source\PSoC4/CapSense_Processing.c ****             CapSense_FtRunEnabledFiltersInternal(fltrHistV, ptrSns, widgetType);
 801:Generated_Source\PSoC4/CapSense_Processing.c ****         }
 802:Generated_Source\PSoC4/CapSense_Processing.c ****     #else
 803:Generated_Source\PSoC4/CapSense_Processing.c ****         (void)fltrHistV; /* This parameter is unused in such configurations */
 804:Generated_Source\PSoC4/CapSense_Processing.c ****     #endif /* #if (0u != DP_FW_FILTER_EN) */
 805:Generated_Source\PSoC4/CapSense_Processing.c **** 
 806:Generated_Source\PSoC4/CapSense_Processing.c ****     #if (0u != (CapSense_CSD_AUTOTUNE & CapSense_CSD_SS_TH_EN))
 807:Generated_Source\PSoC4/CapSense_Processing.c ****         if (0u != (mode & CapSense_PROCESS_CALC_NOISE))
 808:Generated_Source\PSoC4/CapSense_Processing.c ****         {
 809:Generated_Source\PSoC4/CapSense_Processing.c ****             SmartSense_RunNoiseEnvelope(ptrSns->raw[0u], ptrRamWdgt->sigPFC, ptrNoiseEnvelope);
 810:Generated_Source\PSoC4/CapSense_Processing.c ****         }
 811:Generated_Source\PSoC4/CapSense_Processing.c **** 
 812:Generated_Source\PSoC4/CapSense_Processing.c ****         if (0u != (mode & CapSense_PROCESS_THRESHOLDS))
 813:Generated_Source\PSoC4/CapSense_Processing.c ****         {            
 814:Generated_Source\PSoC4/CapSense_Processing.c ****             CapSense_DpUpdateThresholds(ptrRamWdgt, ptrNoiseEnvelope, 0u);
 815:Generated_Source\PSoC4/CapSense_Processing.c ****             
 816:Generated_Source\PSoC4/CapSense_Processing.c ****             /* Calculate Proximity Touch Threshold in SmartSense mode based on Finger Threshold and
 817:Generated_Source\PSoC4/CapSense_Processing.c ****             #if (CapSense_ENABLE == CapSense_PROXIMITY_WIDGET_EN)
 818:Generated_Source\PSoC4/CapSense_Processing.c ****                 if (CapSense_WD_PROXIMITY_E == CapSense_GET_WIDGET_TYPE(ptrFlashWdgt))
 819:Generated_Source\PSoC4/CapSense_Processing.c ****                 {
 820:Generated_Source\PSoC4/CapSense_Processing.c ****                     proximityThreshold = (uint32)ptrRamWdgt->fingerTh * CapSense_PROX_TOUCH_COEFF /
 821:Generated_Source\PSoC4/CapSense_Processing.c ****                     if ((((1Lu) << CapSense_THRESHOLD_SIZE) - 1u) < proximityThreshold)
 822:Generated_Source\PSoC4/CapSense_Processing.c ****                     {
 823:Generated_Source\PSoC4/CapSense_Processing.c ****                         proximityThreshold = ((1Lu) << CapSense_THRESHOLD_SIZE) - 1u;
 824:Generated_Source\PSoC4/CapSense_Processing.c ****                     }
 825:Generated_Source\PSoC4/CapSense_Processing.c ****                     ((CapSense_RAM_WD_PROXIMITY_STRUCT *)ptrFlashWdgt->ptr2WdgtRam)->proxTouchTh = 
 826:Generated_Source\PSoC4/CapSense_Processing.c ****                         (CapSense_THRESHOLD_TYPE)proximityThreshold;
 827:Generated_Source\PSoC4/CapSense_Processing.c ****                 }
 828:Generated_Source\PSoC4/CapSense_Processing.c ****             #endif /* (0 != CapSense_PROXIMITY_WIDGET_EN) */
 829:Generated_Source\PSoC4/CapSense_Processing.c ****         }
 830:Generated_Source\PSoC4/CapSense_Processing.c ****     #endif /* #if (0u != (CapSense_CSD_AUTOTUNE & CapSense_CSD_SS_TH_EN)) */
 831:Generated_Source\PSoC4/CapSense_Processing.c **** 
 832:Generated_Source\PSoC4/CapSense_Processing.c ****     if (0u != (mode & CapSense_PROCESS_BASELINE))
 833:Generated_Source\PSoC4/CapSense_Processing.c ****     {
 834:Generated_Source\PSoC4/CapSense_Processing.c ****         (void)CapSense_FtUpdateBaseline(ptrRamWdgt, ptrSns, widgetType);
 835:Generated_Source\PSoC4/CapSense_Processing.c ****     }
 836:Generated_Source\PSoC4/CapSense_Processing.c **** 
 837:Generated_Source\PSoC4/CapSense_Processing.c ****     if (0u != (mode & CapSense_PROCESS_DIFFCOUNTS))
 838:Generated_Source\PSoC4/CapSense_Processing.c ****     {
 839:Generated_Source\PSoC4/CapSense_Processing.c ****         CapSense_DpUpdateDifferences(ptrRamWdgt, ptrSns);
ARM GAS  C:\Users\Jannai\AppData\Local\Temp\cc8fvKff.s 			page 18


 840:Generated_Source\PSoC4/CapSense_Processing.c ****     }
 841:Generated_Source\PSoC4/CapSense_Processing.c **** }
 842:Generated_Source\PSoC4/CapSense_Processing.c **** 
 843:Generated_Source\PSoC4/CapSense_Processing.c **** /*******************************************************************************
 844:Generated_Source\PSoC4/CapSense_Processing.c **** * Function Name: CapSense_DpProcessCsdWidgetStatus
 845:Generated_Source\PSoC4/CapSense_Processing.c **** ****************************************************************************//**
 846:Generated_Source\PSoC4/CapSense_Processing.c **** *
 847:Generated_Source\PSoC4/CapSense_Processing.c **** * \brief
 848:Generated_Source\PSoC4/CapSense_Processing.c **** *  Runs the status processing of the CSD widget and updates it in the Data Structure.
 849:Generated_Source\PSoC4/CapSense_Processing.c **** *
 850:Generated_Source\PSoC4/CapSense_Processing.c **** * \details
 851:Generated_Source\PSoC4/CapSense_Processing.c **** *  This API determines the widget type and calls the appropriate low-level processing
 852:Generated_Source\PSoC4/CapSense_Processing.c **** *  function. Based on the returned results it updates the widget and sensor
 853:Generated_Source\PSoC4/CapSense_Processing.c **** *  status in the data structure. Any widget specific registers like the centroid
 854:Generated_Source\PSoC4/CapSense_Processing.c **** *  position are updated directly in the low-level processing function.
 855:Generated_Source\PSoC4/CapSense_Processing.c **** *
 856:Generated_Source\PSoC4/CapSense_Processing.c **** *  When the widget-specific processing completes this API updates the snsStatus
 857:Generated_Source\PSoC4/CapSense_Processing.c **** *  and wdgtStatus registers in the data structure. The wdgtStatus register
 858:Generated_Source\PSoC4/CapSense_Processing.c **** *  is a bitmask were each bit corresponds to the specific widget identified by
 859:Generated_Source\PSoC4/CapSense_Processing.c **** *  the widget index. When the bit is set the widget is active (touched);
 860:Generated_Source\PSoC4/CapSense_Processing.c **** *
 861:Generated_Source\PSoC4/CapSense_Processing.c **** *  The snsStatus register for CSD widgets contains status of each widget sensor
 862:Generated_Source\PSoC4/CapSense_Processing.c **** *  (active/non-active). Each bit corresponds to one sensor. In case of the
 863:Generated_Source\PSoC4/CapSense_Processing.c **** *  Proximity widget two bits are used per sensor: one for proximity status and
 864:Generated_Source\PSoC4/CapSense_Processing.c **** *  second for the touch status.
 865:Generated_Source\PSoC4/CapSense_Processing.c **** *
 866:Generated_Source\PSoC4/CapSense_Processing.c **** * \param wdgtId        The widget index number.
 867:Generated_Source\PSoC4/CapSense_Processing.c **** * \param ptrFlashWdgt  The pointer to the Flash widget structure.
 868:Generated_Source\PSoC4/CapSense_Processing.c **** *
 869:Generated_Source\PSoC4/CapSense_Processing.c **** *******************************************************************************/
 870:Generated_Source\PSoC4/CapSense_Processing.c **** void CapSense_DpProcessCsdWidgetStatus(uint32 wdgtId, CapSense_FLASH_WD_STRUCT const *ptrFlashWdgt)
 871:Generated_Source\PSoC4/CapSense_Processing.c **** {
 872:Generated_Source\PSoC4/CapSense_Processing.c ****     uint32 sensorStatus;
 873:Generated_Source\PSoC4/CapSense_Processing.c ****     uint32 wdStatusIndex;
 874:Generated_Source\PSoC4/CapSense_Processing.c ****     uint32 wdStatusMask;
 875:Generated_Source\PSoC4/CapSense_Processing.c ****     CapSense_WD_TYPE_ENUM widgetType;
 876:Generated_Source\PSoC4/CapSense_Processing.c **** 
 877:Generated_Source\PSoC4/CapSense_Processing.c ****     widgetType = (CapSense_WD_TYPE_ENUM)ptrFlashWdgt->wdgtType;
 878:Generated_Source\PSoC4/CapSense_Processing.c ****     sensorStatus = CapSense_dsRam.snsStatus[wdgtId];
 879:Generated_Source\PSoC4/CapSense_Processing.c **** 
 880:Generated_Source\PSoC4/CapSense_Processing.c ****     switch (widgetType)
 881:Generated_Source\PSoC4/CapSense_Processing.c ****     {
 882:Generated_Source\PSoC4/CapSense_Processing.c ****     #if (0u != CapSense_BUTTON_WIDGET_EN)
 883:Generated_Source\PSoC4/CapSense_Processing.c ****         case CapSense_WD_BUTTON_E:
 884:Generated_Source\PSoC4/CapSense_Processing.c ****             sensorStatus = CapSense_DpProcessButton(sensorStatus, ptrFlashWdgt);
 885:Generated_Source\PSoC4/CapSense_Processing.c ****             break;
 886:Generated_Source\PSoC4/CapSense_Processing.c ****     #endif /* #if (0u != CapSense_BUTTON_WIDGET_EN) */
 887:Generated_Source\PSoC4/CapSense_Processing.c **** 
 888:Generated_Source\PSoC4/CapSense_Processing.c ****     #if (0u != CapSense_SLIDER_WIDGET_EN)
 889:Generated_Source\PSoC4/CapSense_Processing.c ****         case CapSense_WD_LINEAR_SLIDER_E:
 890:Generated_Source\PSoC4/CapSense_Processing.c ****         case CapSense_WD_RADIAL_SLIDER_E:
 891:Generated_Source\PSoC4/CapSense_Processing.c ****             sensorStatus = CapSense_DpProcessSlider(sensorStatus, ptrFlashWdgt);
 892:Generated_Source\PSoC4/CapSense_Processing.c ****             break;
 893:Generated_Source\PSoC4/CapSense_Processing.c ****     #endif /* #if (0u != CapSense_SLIDER_WIDGET_EN) */
 894:Generated_Source\PSoC4/CapSense_Processing.c **** 
 895:Generated_Source\PSoC4/CapSense_Processing.c ****     #if (0u != CapSense_CSD_MATRIX_WIDGET_EN)
 896:Generated_Source\PSoC4/CapSense_Processing.c ****         case CapSense_WD_MATRIX_BUTTON_E:
ARM GAS  C:\Users\Jannai\AppData\Local\Temp\cc8fvKff.s 			page 19


 897:Generated_Source\PSoC4/CapSense_Processing.c ****             sensorStatus = CapSense_DpProcessCsdMatrix(sensorStatus, ptrFlashWdgt);
 898:Generated_Source\PSoC4/CapSense_Processing.c ****             break;
 899:Generated_Source\PSoC4/CapSense_Processing.c ****     #endif /* #if (0u != CapSense_CSD_MATRIX_WIDGET_EN) */
 900:Generated_Source\PSoC4/CapSense_Processing.c **** 
 901:Generated_Source\PSoC4/CapSense_Processing.c ****     #if (0u != CapSense_CSD_TOUCHPAD_WIDGET_EN)
 902:Generated_Source\PSoC4/CapSense_Processing.c ****         case CapSense_WD_TOUCHPAD_E:
 903:Generated_Source\PSoC4/CapSense_Processing.c ****             sensorStatus = CapSense_DpProcessCsdTouchpad(sensorStatus, ptrFlashWdgt);
 904:Generated_Source\PSoC4/CapSense_Processing.c ****             break;
 905:Generated_Source\PSoC4/CapSense_Processing.c ****     #endif /* #if (0u != CapSense_CSD_TOUCHPAD_WIDGET_EN) */
 906:Generated_Source\PSoC4/CapSense_Processing.c **** 
 907:Generated_Source\PSoC4/CapSense_Processing.c ****     #if (0u != CapSense_PROXIMITY_WIDGET_EN)
 908:Generated_Source\PSoC4/CapSense_Processing.c ****         case CapSense_WD_PROXIMITY_E:
 909:Generated_Source\PSoC4/CapSense_Processing.c ****             sensorStatus = CapSense_DpProcessProximity(sensorStatus, ptrFlashWdgt);
 910:Generated_Source\PSoC4/CapSense_Processing.c ****             break;
 911:Generated_Source\PSoC4/CapSense_Processing.c ****     #endif /* #if (0u != CapSense_PROXIMITY_WIDGET_EN) */
 912:Generated_Source\PSoC4/CapSense_Processing.c **** 
 913:Generated_Source\PSoC4/CapSense_Processing.c ****     default:
 914:Generated_Source\PSoC4/CapSense_Processing.c ****         CYASSERT(0u);
 915:Generated_Source\PSoC4/CapSense_Processing.c ****         break;
 916:Generated_Source\PSoC4/CapSense_Processing.c ****     }
 917:Generated_Source\PSoC4/CapSense_Processing.c **** 
 918:Generated_Source\PSoC4/CapSense_Processing.c ****     CapSense_dsRam.snsStatus[wdgtId] = (CapSense_SNS_STS_TYPE)sensorStatus;
 919:Generated_Source\PSoC4/CapSense_Processing.c **** 
 920:Generated_Source\PSoC4/CapSense_Processing.c ****     /* The next two lines calculate index and bitmask of the widget status bit in the wdgtStatus ar
 921:Generated_Source\PSoC4/CapSense_Processing.c ****     wdStatusIndex = CapSense_GET_WDGT_STATUS_INDEX(wdgtId);
 922:Generated_Source\PSoC4/CapSense_Processing.c ****     wdStatusMask = CapSense_GET_WDGT_STATUS_MASK(wdgtId);
 923:Generated_Source\PSoC4/CapSense_Processing.c **** 
 924:Generated_Source\PSoC4/CapSense_Processing.c ****     /* Check if there are active sensors and update widget status accordingly */
 925:Generated_Source\PSoC4/CapSense_Processing.c ****     if (0u == sensorStatus)
 926:Generated_Source\PSoC4/CapSense_Processing.c ****     {
 927:Generated_Source\PSoC4/CapSense_Processing.c ****         CapSense_dsRam.wdgtStatus[wdStatusIndex] &= ~wdStatusMask;
 928:Generated_Source\PSoC4/CapSense_Processing.c ****     }
 929:Generated_Source\PSoC4/CapSense_Processing.c ****     else
 930:Generated_Source\PSoC4/CapSense_Processing.c ****     {
 931:Generated_Source\PSoC4/CapSense_Processing.c ****         CapSense_dsRam.wdgtStatus[wdStatusIndex] |= wdStatusMask;
 932:Generated_Source\PSoC4/CapSense_Processing.c ****     }
 933:Generated_Source\PSoC4/CapSense_Processing.c **** }
 934:Generated_Source\PSoC4/CapSense_Processing.c **** #endif /* #if (0u != CapSense_TOTAL_CSD_WIDGETS) */
 935:Generated_Source\PSoC4/CapSense_Processing.c **** 
 936:Generated_Source\PSoC4/CapSense_Processing.c **** 
 937:Generated_Source\PSoC4/CapSense_Processing.c **** #if (0 != (CapSense_CSD_AUTOTUNE & CapSense_CSD_SS_TH_EN))
 938:Generated_Source\PSoC4/CapSense_Processing.c **** /*******************************************************************************
 939:Generated_Source\PSoC4/CapSense_Processing.c **** * Function Name: CapSense_DpUpdateThresholds
 940:Generated_Source\PSoC4/CapSense_Processing.c **** ****************************************************************************//**
 941:Generated_Source\PSoC4/CapSense_Processing.c **** *
 942:Generated_Source\PSoC4/CapSense_Processing.c **** * \brief
 943:Generated_Source\PSoC4/CapSense_Processing.c **** *   Updates noise and finger thresholds for a specified widget.
 944:Generated_Source\PSoC4/CapSense_Processing.c **** *
 945:Generated_Source\PSoC4/CapSense_Processing.c **** * \details
 946:Generated_Source\PSoC4/CapSense_Processing.c **** *   Updates noise and finger thresholds for a specified widget.
 947:Generated_Source\PSoC4/CapSense_Processing.c **** *   This algorithm is a part of Auto-tuning feature.
 948:Generated_Source\PSoC4/CapSense_Processing.c **** *
 949:Generated_Source\PSoC4/CapSense_Processing.c **** * \param ptrRamWdgt       The pointer to the RAM widget object.
 950:Generated_Source\PSoC4/CapSense_Processing.c **** * \param ptrNoiseEnvelope The pointer to the noise-envelope object in RAM.
 951:Generated_Source\PSoC4/CapSense_Processing.c **** * \param startFlag        The flag indicates when new widget is processed.
 952:Generated_Source\PSoC4/CapSense_Processing.c **** *
 953:Generated_Source\PSoC4/CapSense_Processing.c **** *******************************************************************************/
ARM GAS  C:\Users\Jannai\AppData\Local\Temp\cc8fvKff.s 			page 20


 954:Generated_Source\PSoC4/CapSense_Processing.c **** void CapSense_DpUpdateThresholds(CapSense_RAM_WD_BASE_STRUCT *ptrRamWdgt,
 955:Generated_Source\PSoC4/CapSense_Processing.c ****                                          SMARTSENSE_CSD_NOISE_ENVELOPE_STRUCT *ptrNoiseEnvelope,
 956:Generated_Source\PSoC4/CapSense_Processing.c ****                                          uint32 startFlag)
 957:Generated_Source\PSoC4/CapSense_Processing.c **** {
 126              		.loc 1 957 0
 127              		.cfi_startproc
 128              	.LVL14:
 129 0000 10B5     		push	{r4, lr}
 130              		.cfi_def_cfa_offset 8
 131              		.cfi_offset 4, -8
 132              		.cfi_offset 14, -4
 133 0002 82B0     		sub	sp, sp, #8
 134              		.cfi_def_cfa_offset 16
 135 0004 041C     		mov	r4, r0
 136 0006 131C     		mov	r3, r2
 137              	.LVL15:
 958:Generated_Source\PSoC4/CapSense_Processing.c ****     SMARTSENSE_UPDATE_THRESHOLDS_STRUCT thresholds;    
 959:Generated_Source\PSoC4/CapSense_Processing.c ****     SMARTSENSE_UPDATE_THRESHOLDS_STRUCT *ptrThresholds = &thresholds;
 960:Generated_Source\PSoC4/CapSense_Processing.c ****     ptrThresholds->fingerTh = ptrRamWdgt->fingerTh;
 138              		.loc 1 960 0
 139 0008 4288     		ldrh	r2, [r0, #2]
 140              	.LVL16:
 141 000a 6846     		mov	r0, sp
 142              	.LVL17:
 143 000c 0280     		strh	r2, [r0]
 961:Generated_Source\PSoC4/CapSense_Processing.c **** 
 962:Generated_Source\PSoC4/CapSense_Processing.c ****     SmartSense_UpdateThresholds(ptrNoiseEnvelope, ptrThresholds, ptrRamWdgt->sigPFC, startFlag);
 144              		.loc 1 962 0
 145 000e 228A     		ldrh	r2, [r4, #16]
 146 0010 081C     		mov	r0, r1
 147 0012 6946     		mov	r1, sp
 148              	.LVL18:
 149 0014 FFF7FEFF 		bl	SmartSense_UpdateThresholds
 150              	.LVL19:
 963:Generated_Source\PSoC4/CapSense_Processing.c **** 
 964:Generated_Source\PSoC4/CapSense_Processing.c ****     ptrRamWdgt->fingerTh = ptrThresholds->fingerTh;
 151              		.loc 1 964 0
 152 0018 6B46     		mov	r3, sp
 153 001a 1B88     		ldrh	r3, [r3]
 154 001c 6380     		strh	r3, [r4, #2]
 965:Generated_Source\PSoC4/CapSense_Processing.c ****     ptrRamWdgt->noiseTh = ptrThresholds->noiseTh;
 155              		.loc 1 965 0
 156 001e 6B46     		mov	r3, sp
 157 0020 9B78     		ldrb	r3, [r3, #2]
 158 0022 2371     		strb	r3, [r4, #4]
 966:Generated_Source\PSoC4/CapSense_Processing.c ****     ptrRamWdgt->nNoiseTh = ptrThresholds->nNoiseTh;
 159              		.loc 1 966 0
 160 0024 6B46     		mov	r3, sp
 161 0026 DB78     		ldrb	r3, [r3, #3]
 162 0028 6371     		strb	r3, [r4, #5]
 967:Generated_Source\PSoC4/CapSense_Processing.c ****     ptrRamWdgt->hysteresis = ptrThresholds->hysteresis;    
 163              		.loc 1 967 0
 164 002a 6B46     		mov	r3, sp
 165 002c 1B79     		ldrb	r3, [r3, #4]
 166 002e A371     		strb	r3, [r4, #6]
 968:Generated_Source\PSoC4/CapSense_Processing.c **** }
 167              		.loc 1 968 0
ARM GAS  C:\Users\Jannai\AppData\Local\Temp\cc8fvKff.s 			page 21


 168 0030 02B0     		add	sp, sp, #8
 169              	.LVL20:
 170              		@ sp needed
 171              	.LVL21:
 172 0032 10BD     		pop	{r4, pc}
 173              		.cfi_endproc
 174              	.LFE6:
 175              		.size	CapSense_DpUpdateThresholds, .-CapSense_DpUpdateThresholds
 176              		.section	.text.CapSense_DpUpdateDifferences,"ax",%progbits
 177              		.align	2
 178              		.global	CapSense_DpUpdateDifferences
 179              		.code	16
 180              		.thumb_func
 181              		.type	CapSense_DpUpdateDifferences, %function
 182              	CapSense_DpUpdateDifferences:
 183              	.LFB7:
 969:Generated_Source\PSoC4/CapSense_Processing.c **** #endif /* #if (0u != (CapSense_CSD_AUTOTUNE & CapSense_CSD_SS_TH_EN)) */
 970:Generated_Source\PSoC4/CapSense_Processing.c **** 
 971:Generated_Source\PSoC4/CapSense_Processing.c **** 
 972:Generated_Source\PSoC4/CapSense_Processing.c **** /*******************************************************************************
 973:Generated_Source\PSoC4/CapSense_Processing.c **** * Function Name: CapSense_DpUpdateDifferences
 974:Generated_Source\PSoC4/CapSense_Processing.c **** ****************************************************************************//**
 975:Generated_Source\PSoC4/CapSense_Processing.c **** *
 976:Generated_Source\PSoC4/CapSense_Processing.c **** * \brief
 977:Generated_Source\PSoC4/CapSense_Processing.c **** *   Calculates new difference values.
 978:Generated_Source\PSoC4/CapSense_Processing.c **** *   Also, executes the frequency hopping algorithm if it is enabled.
 979:Generated_Source\PSoC4/CapSense_Processing.c **** *
 980:Generated_Source\PSoC4/CapSense_Processing.c **** * \details
 981:Generated_Source\PSoC4/CapSense_Processing.c **** *   This API calculates the difference between the baseline and raw counts.
 982:Generated_Source\PSoC4/CapSense_Processing.c **** *   If the difference is positive (raw > baseline), and higher than the widget
 983:Generated_Source\PSoC4/CapSense_Processing.c **** *   noise threshold, it is saved into the data structure for further processing.
 984:Generated_Source\PSoC4/CapSense_Processing.c **** *   Otherwise the difference is set to zero. The final difference value is saved
 985:Generated_Source\PSoC4/CapSense_Processing.c **** *   with the subtracted noise threshold value.
 986:Generated_Source\PSoC4/CapSense_Processing.c **** *
 987:Generated_Source\PSoC4/CapSense_Processing.c **** *   If the frequency hopping algorithm is enabled, the difference is calculated
 988:Generated_Source\PSoC4/CapSense_Processing.c **** *   for the three sets of data available for each sensor. Then
 989:Generated_Source\PSoC4/CapSense_Processing.c **** *   the median filter selects the final difference value.
 990:Generated_Source\PSoC4/CapSense_Processing.c **** *
 991:Generated_Source\PSoC4/CapSense_Processing.c **** * \param ptrRamWdgt The pointer to the RAR Widget Object.
 992:Generated_Source\PSoC4/CapSense_Processing.c **** * \param ptrSns     The pointer to the sensor object in RAM.
 993:Generated_Source\PSoC4/CapSense_Processing.c **** *
 994:Generated_Source\PSoC4/CapSense_Processing.c **** *******************************************************************************/
 995:Generated_Source\PSoC4/CapSense_Processing.c **** void CapSense_DpUpdateDifferences(
 996:Generated_Source\PSoC4/CapSense_Processing.c ****                         CapSense_RAM_WD_BASE_STRUCT *ptrRamWdgt,
 997:Generated_Source\PSoC4/CapSense_Processing.c ****                         CapSense_RAM_SNS_STRUCT *ptrSns)
 998:Generated_Source\PSoC4/CapSense_Processing.c **** {
 184              		.loc 1 998 0
 185              		.cfi_startproc
 186              	.LVL22:
 999:Generated_Source\PSoC4/CapSense_Processing.c ****     register int32 diffValue = 0;
1000:Generated_Source\PSoC4/CapSense_Processing.c **** 
1001:Generated_Source\PSoC4/CapSense_Processing.c ****     #if (0u != CapSense_MULTI_FREQ_SCAN_EN)
1002:Generated_Source\PSoC4/CapSense_Processing.c ****         register int32 diffValue_0 = 0;
1003:Generated_Source\PSoC4/CapSense_Processing.c ****         register int32 diffValue_2 = 0;
1004:Generated_Source\PSoC4/CapSense_Processing.c ****     #endif /* #if (0u != CapSense_MULTI_FREQ_SCAN_EN) */
1005:Generated_Source\PSoC4/CapSense_Processing.c **** 
1006:Generated_Source\PSoC4/CapSense_Processing.c ****     /* Calculate difference */
ARM GAS  C:\Users\Jannai\AppData\Local\Temp\cc8fvKff.s 			page 22


1007:Generated_Source\PSoC4/CapSense_Processing.c ****     diffValue = (int32)ptrSns->raw[0u] - (int32)ptrSns->bsln[0u];
 187              		.loc 1 1007 0
 188 0000 0B88     		ldrh	r3, [r1]
 189 0002 4A88     		ldrh	r2, [r1, #2]
 190 0004 9B1A     		sub	r3, r3, r2
 191              	.LVL23:
1008:Generated_Source\PSoC4/CapSense_Processing.c **** 
1009:Generated_Source\PSoC4/CapSense_Processing.c ****     #if (0u != CapSense_MULTI_FREQ_SCAN_EN)
1010:Generated_Source\PSoC4/CapSense_Processing.c ****         diffValue_0 = (int32)ptrSns->raw[1u] - (int32)ptrSns->bsln[1u];
1011:Generated_Source\PSoC4/CapSense_Processing.c ****         diffValue_2 = (int32)ptrSns->raw[2u] - (int32)ptrSns->bsln[2u];
1012:Generated_Source\PSoC4/CapSense_Processing.c **** 
1013:Generated_Source\PSoC4/CapSense_Processing.c ****         /* Find median and put it into [0u] element */
1014:Generated_Source\PSoC4/CapSense_Processing.c ****         if (diffValue_0 > diffValue)
1015:Generated_Source\PSoC4/CapSense_Processing.c ****         {
1016:Generated_Source\PSoC4/CapSense_Processing.c ****             register int32 swapv = diffValue_0;
1017:Generated_Source\PSoC4/CapSense_Processing.c ****             diffValue_0 = diffValue;
1018:Generated_Source\PSoC4/CapSense_Processing.c ****             diffValue = swapv;
1019:Generated_Source\PSoC4/CapSense_Processing.c ****         }
1020:Generated_Source\PSoC4/CapSense_Processing.c **** 
1021:Generated_Source\PSoC4/CapSense_Processing.c ****         if (diffValue > diffValue_2)
1022:Generated_Source\PSoC4/CapSense_Processing.c ****         {
1023:Generated_Source\PSoC4/CapSense_Processing.c ****             register int32 swapv = diffValue;
1024:Generated_Source\PSoC4/CapSense_Processing.c ****             diffValue = diffValue_2;
1025:Generated_Source\PSoC4/CapSense_Processing.c ****             diffValue_2 = swapv;
1026:Generated_Source\PSoC4/CapSense_Processing.c ****         }
1027:Generated_Source\PSoC4/CapSense_Processing.c **** 
1028:Generated_Source\PSoC4/CapSense_Processing.c ****         if (diffValue_0 > diffValue)
1029:Generated_Source\PSoC4/CapSense_Processing.c ****         {
1030:Generated_Source\PSoC4/CapSense_Processing.c ****             register int32 swapv = diffValue_0;
1031:Generated_Source\PSoC4/CapSense_Processing.c ****             diffValue_0 = diffValue;
1032:Generated_Source\PSoC4/CapSense_Processing.c ****             diffValue = swapv;
1033:Generated_Source\PSoC4/CapSense_Processing.c ****         }
1034:Generated_Source\PSoC4/CapSense_Processing.c ****     #endif /* #if (0u != CapSense_MULTI_FREQ_SCAN_EN) */
1035:Generated_Source\PSoC4/CapSense_Processing.c **** 
1036:Generated_Source\PSoC4/CapSense_Processing.c ****     ptrSns->diff = 0u;
 192              		.loc 1 1036 0
 193 0006 0022     		mov	r2, #0
 194 0008 CA80     		strh	r2, [r1, #6]
1037:Generated_Source\PSoC4/CapSense_Processing.c **** 
1038:Generated_Source\PSoC4/CapSense_Processing.c ****     if (diffValue > (int32)ptrRamWdgt->noiseTh)
 195              		.loc 1 1038 0
 196 000a 0279     		ldrb	r2, [r0, #4]
 197 000c 9A42     		cmp	r2, r3
 198 000e 00DA     		bge	.L11
1039:Generated_Source\PSoC4/CapSense_Processing.c ****     {
1040:Generated_Source\PSoC4/CapSense_Processing.c ****         ptrSns->diff = (CapSense_THRESHOLD_TYPE) diffValue;
 199              		.loc 1 1040 0
 200 0010 CB80     		strh	r3, [r1, #6]
 201              	.L11:
1041:Generated_Source\PSoC4/CapSense_Processing.c ****     }
1042:Generated_Source\PSoC4/CapSense_Processing.c **** }
 202              		.loc 1 1042 0
 203              		@ sp needed
 204 0012 7047     		bx	lr
 205              		.cfi_endproc
 206              	.LFE7:
 207              		.size	CapSense_DpUpdateDifferences, .-CapSense_DpUpdateDifferences
ARM GAS  C:\Users\Jannai\AppData\Local\Temp\cc8fvKff.s 			page 23


 208              		.section	.text.CapSense_DpProcessCsdWidgetRawCounts,"ax",%progbits
 209              		.align	2
 210              		.global	CapSense_DpProcessCsdWidgetRawCounts
 211              		.code	16
 212              		.thumb_func
 213              		.type	CapSense_DpProcessCsdWidgetRawCounts, %function
 214              	CapSense_DpProcessCsdWidgetRawCounts:
 215              	.LFB3:
 671:Generated_Source\PSoC4/CapSense_Processing.c ****     uint32  widgetType;
 216              		.loc 1 671 0
 217              		.cfi_startproc
 218              	.LVL24:
 219 0000 F0B5     		push	{r4, r5, r6, r7, lr}
 220              		.cfi_def_cfa_offset 20
 221              		.cfi_offset 4, -20
 222              		.cfi_offset 5, -16
 223              		.cfi_offset 6, -12
 224              		.cfi_offset 7, -8
 225              		.cfi_offset 14, -4
 226 0002 4F46     		mov	r7, r9
 227 0004 80B4     		push	{r7}
 228              		.cfi_def_cfa_offset 24
 229              		.cfi_offset 9, -24
 230 0006 82B0     		sub	sp, sp, #8
 231              		.cfi_def_cfa_offset 32
 232 0008 8146     		mov	r9, r0
 696:Generated_Source\PSoC4/CapSense_Processing.c ****     ptrRamWdgt = ptrFlashWdgt->ptr2WdgtRam;
 233              		.loc 1 696 0
 234 000a 8468     		ldr	r4, [r0, #8]
 235              	.LVL25:
 697:Generated_Source\PSoC4/CapSense_Processing.c ****     widgetType = ptrFlashWdgt->wdgtType;
 236              		.loc 1 697 0
 237 000c 4668     		ldr	r6, [r0, #4]
 238              	.LVL26:
 698:Generated_Source\PSoC4/CapSense_Processing.c **** 
 239              		.loc 1 698 0
 240 000e 037E     		ldrb	r3, [r0, #24]
 241 0010 0193     		str	r3, [sp, #4]
 242              	.LVL27:
 701:Generated_Source\PSoC4/CapSense_Processing.c ****     #endif /* #if (0u != (CapSense_CSD_AUTOTUNE & CapSense_CSD_SS_TH_EN)) */
 243              		.loc 1 701 0
 244 0012 C769     		ldr	r7, [r0, #28]
 245              	.LVL28:
 705:Generated_Source\PSoC4/CapSense_Processing.c ****     {
 246              		.loc 1 705 0
 247 0014 0025     		mov	r5, #0
 248 0016 15E0     		b	.L14
 249              	.LVL29:
 250              	.L15:
 714:Generated_Source\PSoC4/CapSense_Processing.c ****             CapSense_DpUpdateThresholds(ptrRamWdgt, ptrNoiseEnvelope, snsId);
 251              		.loc 1 714 0 discriminator 3
 252 0018 2088     		ldrh	r0, [r4]
 253 001a 318A     		ldrh	r1, [r6, #16]
 254 001c 3A1C     		mov	r2, r7
 255 001e FFF7FEFF 		bl	SmartSense_RunNoiseEnvelope
 256              	.LVL30:
 715:Generated_Source\PSoC4/CapSense_Processing.c **** 
ARM GAS  C:\Users\Jannai\AppData\Local\Temp\cc8fvKff.s 			page 24


 257              		.loc 1 715 0 discriminator 3
 258 0022 301C     		mov	r0, r6
 259 0024 391C     		mov	r1, r7
 260 0026 2A1C     		mov	r2, r5
 261 0028 FFF7FEFF 		bl	CapSense_DpUpdateThresholds
 262              	.LVL31:
 732:Generated_Source\PSoC4/CapSense_Processing.c ****         #endif /* (0u != (CapSense_CSD_AUTOTUNE & CapSense_CSD_SS_TH_EN)) */
 263              		.loc 1 732 0 discriminator 3
 264 002c 0C37     		add	r7, r7, #12
 265              	.LVL32:
 735:Generated_Source\PSoC4/CapSense_Processing.c ****         CapSense_DpUpdateDifferences(ptrRamWdgt, ptrSns);
 266              		.loc 1 735 0 discriminator 3
 267 002e 301C     		mov	r0, r6
 268 0030 211C     		mov	r1, r4
 269 0032 019A     		ldr	r2, [sp, #4]
 270 0034 FFF7FEFF 		bl	CapSense_FtUpdateBaseline
 271              	.LVL33:
 736:Generated_Source\PSoC4/CapSense_Processing.c **** 
 272              		.loc 1 736 0 discriminator 3
 273 0038 301C     		mov	r0, r6
 274 003a 211C     		mov	r1, r4
 275 003c FFF7FEFF 		bl	CapSense_DpUpdateDifferences
 276              	.LVL34:
 739:Generated_Source\PSoC4/CapSense_Processing.c **** 
 277              		.loc 1 739 0 discriminator 3
 278 0040 0A34     		add	r4, r4, #10
 279              	.LVL35:
 705:Generated_Source\PSoC4/CapSense_Processing.c ****     {
 280              		.loc 1 705 0 discriminator 3
 281 0042 0135     		add	r5, r5, #1
 282              	.LVL36:
 283              	.L14:
 705:Generated_Source\PSoC4/CapSense_Processing.c ****     {
 284              		.loc 1 705 0 is_stmt 0 discriminator 1
 285 0044 4B46     		mov	r3, r9
 286 0046 DB8A     		ldrh	r3, [r3, #22]
 287 0048 AB42     		cmp	r3, r5
 288 004a E5D8     		bhi	.L15
 746:Generated_Source\PSoC4/CapSense_Processing.c **** 
 289              		.loc 1 746 0 is_stmt 1
 290 004c 02B0     		add	sp, sp, #8
 291              		@ sp needed
 292              	.LVL37:
 293              	.LVL38:
 294              	.LVL39:
 295              	.LVL40:
 296              	.LVL41:
 297 004e 04BC     		pop	{r2}
 298 0050 9146     		mov	r9, r2
 299 0052 F0BD     		pop	{r4, r5, r6, r7, pc}
 300              		.cfi_endproc
 301              	.LFE3:
 302              		.size	CapSense_DpProcessCsdWidgetRawCounts, .-CapSense_DpProcessCsdWidgetRawCounts
 303              		.section	.text.CapSense_DpProcessCsdSensorRawCountsExt,"ax",%progbits
 304              		.align	2
 305              		.global	CapSense_DpProcessCsdSensorRawCountsExt
 306              		.code	16
ARM GAS  C:\Users\Jannai\AppData\Local\Temp\cc8fvKff.s 			page 25


 307              		.thumb_func
 308              		.type	CapSense_DpProcessCsdSensorRawCountsExt, %function
 309              	CapSense_DpProcessCsdSensorRawCountsExt:
 310              	.LFB4:
 780:Generated_Source\PSoC4/CapSense_Processing.c ****     uint32  widgetType;
 311              		.loc 1 780 0
 312              		.cfi_startproc
 313              	.LVL42:
 314 0000 F0B5     		push	{r4, r5, r6, r7, lr}
 315              		.cfi_def_cfa_offset 20
 316              		.cfi_offset 4, -20
 317              		.cfi_offset 5, -16
 318              		.cfi_offset 6, -12
 319              		.cfi_offset 7, -8
 320              		.cfi_offset 14, -4
 321 0002 83B0     		sub	sp, sp, #12
 322              		.cfi_def_cfa_offset 32
 323 0004 0191     		str	r1, [sp, #4]
 324 0006 1C1C     		mov	r4, r3
 788:Generated_Source\PSoC4/CapSense_Processing.c ****         #if (CapSense_ENABLE == CapSense_PROXIMITY_WIDGET_EN)
 325              		.loc 1 788 0
 326 0008 C769     		ldr	r7, [r0, #28]
 327              	.LVL43:
 794:Generated_Source\PSoC4/CapSense_Processing.c ****     ptrRamWdgt = ptrFlashWdgt->ptr2WdgtRam;
 328              		.loc 1 794 0
 329 000a 067E     		ldrb	r6, [r0, #24]
 330              	.LVL44:
 795:Generated_Source\PSoC4/CapSense_Processing.c **** 
 331              		.loc 1 795 0
 332 000c 4568     		ldr	r5, [r0, #4]
 333              	.LVL45:
 807:Generated_Source\PSoC4/CapSense_Processing.c ****         {
 334              		.loc 1 807 0
 335 000e 2307     		lsl	r3, r4, #28
 336 0010 04D5     		bpl	.L17
 337              	.LVL46:
 809:Generated_Source\PSoC4/CapSense_Processing.c ****         }
 338              		.loc 1 809 0
 339 0012 0888     		ldrh	r0, [r1]
 340              	.LVL47:
 341 0014 298A     		ldrh	r1, [r5, #16]
 342              	.LVL48:
 343 0016 3A1C     		mov	r2, r7
 344              	.LVL49:
 345 0018 FFF7FEFF 		bl	SmartSense_RunNoiseEnvelope
 346              	.LVL50:
 347              	.L17:
 812:Generated_Source\PSoC4/CapSense_Processing.c ****         {            
 348              		.loc 1 812 0
 349 001c E306     		lsl	r3, r4, #27
 350 001e 04D5     		bpl	.L18
 814:Generated_Source\PSoC4/CapSense_Processing.c ****             
 351              		.loc 1 814 0
 352 0020 281C     		mov	r0, r5
 353 0022 391C     		mov	r1, r7
 354 0024 0022     		mov	r2, #0
 355              	.LVL51:
ARM GAS  C:\Users\Jannai\AppData\Local\Temp\cc8fvKff.s 			page 26


 356 0026 FFF7FEFF 		bl	CapSense_DpUpdateThresholds
 357              	.LVL52:
 358              	.L18:
 832:Generated_Source\PSoC4/CapSense_Processing.c ****     {
 359              		.loc 1 832 0
 360 002a A307     		lsl	r3, r4, #30
 361 002c 04D5     		bpl	.L19
 834:Generated_Source\PSoC4/CapSense_Processing.c ****     }
 362              		.loc 1 834 0
 363 002e 281C     		mov	r0, r5
 364 0030 0199     		ldr	r1, [sp, #4]
 365 0032 321C     		mov	r2, r6
 366              	.LVL53:
 367 0034 FFF7FEFF 		bl	CapSense_FtUpdateBaseline
 368              	.LVL54:
 369              	.L19:
 837:Generated_Source\PSoC4/CapSense_Processing.c ****     {
 370              		.loc 1 837 0
 371 0038 6307     		lsl	r3, r4, #29
 372 003a 03D5     		bpl	.L16
 839:Generated_Source\PSoC4/CapSense_Processing.c ****     }
 373              		.loc 1 839 0
 374 003c 281C     		mov	r0, r5
 375 003e 0199     		ldr	r1, [sp, #4]
 376 0040 FFF7FEFF 		bl	CapSense_DpUpdateDifferences
 377              	.LVL55:
 378              	.L16:
 841:Generated_Source\PSoC4/CapSense_Processing.c **** 
 379              		.loc 1 841 0
 380 0044 03B0     		add	sp, sp, #12
 381              		@ sp needed
 382              	.LVL56:
 383              	.LVL57:
 384              	.LVL58:
 385              	.LVL59:
 386 0046 F0BD     		pop	{r4, r5, r6, r7, pc}
 387              		.cfi_endproc
 388              	.LFE4:
 389              		.size	CapSense_DpProcessCsdSensorRawCountsExt, .-CapSense_DpProcessCsdSensorRawCountsExt
 390              		.section	.text.CapSense_DpProcessButton,"ax",%progbits
 391              		.align	2
 392              		.global	CapSense_DpProcessButton
 393              		.code	16
 394              		.thumb_func
 395              		.type	CapSense_DpProcessButton, %function
 396              	CapSense_DpProcessButton:
 397              	.LFB8:
1043:Generated_Source\PSoC4/CapSense_Processing.c **** 
1044:Generated_Source\PSoC4/CapSense_Processing.c **** 
1045:Generated_Source\PSoC4/CapSense_Processing.c **** #if ((0u != CapSense_BUTTON_WIDGET_EN) || (0u != CapSense_CSX_MATRIX_WIDGET_EN))
1046:Generated_Source\PSoC4/CapSense_Processing.c **** /*******************************************************************************
1047:Generated_Source\PSoC4/CapSense_Processing.c **** * Function Name: CapSense_DpProcessButton
1048:Generated_Source\PSoC4/CapSense_Processing.c **** ****************************************************************************//**
1049:Generated_Source\PSoC4/CapSense_Processing.c **** *
1050:Generated_Source\PSoC4/CapSense_Processing.c **** * \brief
1051:Generated_Source\PSoC4/CapSense_Processing.c **** *   Processes the status of the Button widget.
1052:Generated_Source\PSoC4/CapSense_Processing.c **** *
ARM GAS  C:\Users\Jannai\AppData\Local\Temp\cc8fvKff.s 			page 27


1053:Generated_Source\PSoC4/CapSense_Processing.c **** * \details
1054:Generated_Source\PSoC4/CapSense_Processing.c **** *   This API processes the status of the CSD/CSX Button widget and
1055:Generated_Source\PSoC4/CapSense_Processing.c **** *   CSX Matrix Button widget. It applies the hysteresis and de-bounce algorithm
1056:Generated_Source\PSoC4/CapSense_Processing.c **** *   to each sensor difference value. This API is expected to be called
1057:Generated_Source\PSoC4/CapSense_Processing.c **** *   after each new widget scan. If it is called multiple times for the same
1058:Generated_Source\PSoC4/CapSense_Processing.c **** *   scan data, the de-bounce algorithm will not work properly.
1059:Generated_Source\PSoC4/CapSense_Processing.c **** *
1060:Generated_Source\PSoC4/CapSense_Processing.c **** *   This API does not update any Data Structure registers
1061:Generated_Source\PSoC4/CapSense_Processing.c **** *   except the de-bounce counters.
1062:Generated_Source\PSoC4/CapSense_Processing.c **** *
1063:Generated_Source\PSoC4/CapSense_Processing.c **** * \param currStatus   The current status of the widget sensors.
1064:Generated_Source\PSoC4/CapSense_Processing.c **** * \param ptrFlashWdgt The pointer to the Flash Widget Object.
1065:Generated_Source\PSoC4/CapSense_Processing.c **** *
1066:Generated_Source\PSoC4/CapSense_Processing.c **** * \return Returns the status of the widget's sensors. Bit #0 - corresponds to Sensor #0.
1067:Generated_Source\PSoC4/CapSense_Processing.c **** *
1068:Generated_Source\PSoC4/CapSense_Processing.c **** *******************************************************************************/
1069:Generated_Source\PSoC4/CapSense_Processing.c **** uint32 CapSense_DpProcessButton(uint32 currStatus, CapSense_FLASH_WD_STRUCT const *ptrFlashWdgt)
1070:Generated_Source\PSoC4/CapSense_Processing.c **** {
 398              		.loc 1 1070 0
 399              		.cfi_startproc
 400              	.LVL60:
 401 0000 F0B5     		push	{r4, r5, r6, r7, lr}
 402              		.cfi_def_cfa_offset 20
 403              		.cfi_offset 4, -20
 404              		.cfi_offset 5, -16
 405              		.cfi_offset 6, -12
 406              		.cfi_offset 7, -8
 407              		.cfi_offset 14, -4
1071:Generated_Source\PSoC4/CapSense_Processing.c ****     uint32 snsCnt;
1072:Generated_Source\PSoC4/CapSense_Processing.c ****     uint32 snsMask;
1073:Generated_Source\PSoC4/CapSense_Processing.c ****     uint32 newStatus;
1074:Generated_Source\PSoC4/CapSense_Processing.c ****     uint32 touchTh;
1075:Generated_Source\PSoC4/CapSense_Processing.c ****     CapSense_RAM_SNS_STRUCT *ptrSns;
1076:Generated_Source\PSoC4/CapSense_Processing.c ****     CapSense_RAM_WD_BASE_STRUCT *ptrRamWdgt;
1077:Generated_Source\PSoC4/CapSense_Processing.c ****     uint8 * ptrDebounceCnt;
1078:Generated_Source\PSoC4/CapSense_Processing.c **** 
1079:Generated_Source\PSoC4/CapSense_Processing.c ****     snsCnt = ptrFlashWdgt->totalNumSns;
 408              		.loc 1 1079 0
 409 0002 CA8A     		ldrh	r2, [r1, #22]
 410              	.LVL61:
1080:Generated_Source\PSoC4/CapSense_Processing.c ****     ptrSns = ptrFlashWdgt->ptr2SnsRam;
 411              		.loc 1 1080 0
 412 0004 8D68     		ldr	r5, [r1, #8]
 413              	.LVL62:
1081:Generated_Source\PSoC4/CapSense_Processing.c ****     ptrRamWdgt = ptrFlashWdgt->ptr2WdgtRam;
 414              		.loc 1 1081 0
 415 0006 4F68     		ldr	r7, [r1, #4]
 416              	.LVL63:
1082:Generated_Source\PSoC4/CapSense_Processing.c ****     ptrDebounceCnt = ptrFlashWdgt->ptr2DebounceArr;
 417              		.loc 1 1082 0
 418 0008 0B69     		ldr	r3, [r1, #16]
 419              	.LVL64:
1083:Generated_Source\PSoC4/CapSense_Processing.c **** 
1084:Generated_Source\PSoC4/CapSense_Processing.c ****     /* Go through all widget's sensors */
1085:Generated_Source\PSoC4/CapSense_Processing.c ****     snsMask = 1Lu;
 420              		.loc 1 1085 0
 421 000a 0121     		mov	r1, #1
ARM GAS  C:\Users\Jannai\AppData\Local\Temp\cc8fvKff.s 			page 28


 422              	.LVL65:
1086:Generated_Source\PSoC4/CapSense_Processing.c ****     for (; snsCnt-- > 0u; )
 423              		.loc 1 1086 0
 424 000c 25E0     		b	.L22
 425              	.LVL66:
 426              	.L30:
1087:Generated_Source\PSoC4/CapSense_Processing.c ****     {
1088:Generated_Source\PSoC4/CapSense_Processing.c ****         /* Calculate touch threshold taking into account hysteresis
1089:Generated_Source\PSoC4/CapSense_Processing.c ****            and current sensor state. */
1090:Generated_Source\PSoC4/CapSense_Processing.c ****         touchTh = (0u == (currStatus & snsMask)) ?
 427              		.loc 1 1090 0
 428 000e 0C1C     		mov	r4, r1
 429              	.LVL67:
 430 0010 0440     		and	r4, r0
1091:Generated_Source\PSoC4/CapSense_Processing.c ****                   ((uint32)ptrRamWdgt->fingerTh + ptrRamWdgt->hysteresis) :
 431              		.loc 1 1091 0
 432 0012 03D1     		bne	.L23
 433              		.loc 1 1091 0 is_stmt 0 discriminator 1
 434 0014 7E88     		ldrh	r6, [r7, #2]
 435 0016 BA79     		ldrb	r2, [r7, #6]
 436 0018 B218     		add	r2, r6, r2
 437 001a 02E0     		b	.L24
 438              	.L23:
1092:Generated_Source\PSoC4/CapSense_Processing.c ****                   ((uint32)ptrRamWdgt->fingerTh - ptrRamWdgt->hysteresis);
 439              		.loc 1 1092 0 is_stmt 1 discriminator 2
 440 001c 7A88     		ldrh	r2, [r7, #2]
 441 001e BE79     		ldrb	r6, [r7, #6]
1091:Generated_Source\PSoC4/CapSense_Processing.c ****                   ((uint32)ptrRamWdgt->fingerTh + ptrRamWdgt->hysteresis) :
 442              		.loc 1 1091 0 discriminator 2
 443 0020 921B     		sub	r2, r2, r6
 444              	.L24:
 445              	.LVL68:
1093:Generated_Source\PSoC4/CapSense_Processing.c **** 
1094:Generated_Source\PSoC4/CapSense_Processing.c ****         /* Determine new potential sensor state */
1095:Generated_Source\PSoC4/CapSense_Processing.c ****         newStatus = (ptrSns->diff > touchTh) ? snsMask : 0u;
 446              		.loc 1 1095 0
 447 0022 EE88     		ldrh	r6, [r5, #6]
 448 0024 B242     		cmp	r2, r6
 449 0026 01D3     		bcc	.L31
 450 0028 0022     		mov	r2, #0
 451              	.LVL69:
 452 002a 00E0     		b	.L25
 453              	.LVL70:
 454              	.L31:
 455 002c 0A1C     		mov	r2, r1
 456              	.LVL71:
 457              	.L25:
1096:Generated_Source\PSoC4/CapSense_Processing.c **** 
1097:Generated_Source\PSoC4/CapSense_Processing.c ****         /* Sensor state changed ? */
1098:Generated_Source\PSoC4/CapSense_Processing.c ****         if (newStatus != (currStatus & snsMask))
 458              		.loc 1 1098 0 discriminator 4
 459 002e A242     		cmp	r2, r4
 460 0030 02D0     		beq	.L26
1099:Generated_Source\PSoC4/CapSense_Processing.c ****         {
1100:Generated_Source\PSoC4/CapSense_Processing.c ****             /* Decrement de-bounce counter */
1101:Generated_Source\PSoC4/CapSense_Processing.c ****             (*ptrDebounceCnt)--;
 461              		.loc 1 1101 0
ARM GAS  C:\Users\Jannai\AppData\Local\Temp\cc8fvKff.s 			page 29


 462 0032 1E78     		ldrb	r6, [r3]
 463 0034 013E     		sub	r6, r6, #1
 464 0036 1E70     		strb	r6, [r3]
 465              	.L26:
1102:Generated_Source\PSoC4/CapSense_Processing.c ****         }
1103:Generated_Source\PSoC4/CapSense_Processing.c **** 
1104:Generated_Source\PSoC4/CapSense_Processing.c ****         /* This piece of code has two objectives:
1105:Generated_Source\PSoC4/CapSense_Processing.c ****            1. Reset de-bounce counter if the sensor state did not change.
1106:Generated_Source\PSoC4/CapSense_Processing.c ****               (It is possible that during previous processing cycles sensor
1107:Generated_Source\PSoC4/CapSense_Processing.c ****                was active and de-bounce counter was decremented.)
1108:Generated_Source\PSoC4/CapSense_Processing.c ****            2. Set new sensor state after successful de-bounce.
1109:Generated_Source\PSoC4/CapSense_Processing.c ****          */
1110:Generated_Source\PSoC4/CapSense_Processing.c ****         if ((newStatus == (currStatus & snsMask)) || (0u == (*ptrDebounceCnt)))
 466              		.loc 1 1110 0
 467 0038 A242     		cmp	r2, r4
 468 003a 02D0     		beq	.L27
 469              		.loc 1 1110 0 is_stmt 0 discriminator 1
 470 003c 1C78     		ldrb	r4, [r3]
 471 003e 002C     		cmp	r4, #0
 472 0040 07D1     		bne	.L28
 473              	.L27:
1111:Generated_Source\PSoC4/CapSense_Processing.c ****         {
1112:Generated_Source\PSoC4/CapSense_Processing.c ****             /* Set new sensor status */
1113:Generated_Source\PSoC4/CapSense_Processing.c ****             currStatus &= ~snsMask;
 474              		.loc 1 1113 0 is_stmt 1
 475 0042 8843     		bic	r0, r1
 476              	.LVL72:
1114:Generated_Source\PSoC4/CapSense_Processing.c ****             currStatus |= newStatus;
 477              		.loc 1 1114 0
 478 0044 1043     		orr	r0, r2
 479              	.LVL73:
1115:Generated_Source\PSoC4/CapSense_Processing.c **** 
1116:Generated_Source\PSoC4/CapSense_Processing.c ****             /* Reset de-bounce counter */
1117:Generated_Source\PSoC4/CapSense_Processing.c ****             #if (0u != CapSense_OFF_DEBOUNCE_EN)
1118:Generated_Source\PSoC4/CapSense_Processing.c ****                 *ptrDebounceCnt = (0Lu == newStatus) ? ptrRamWdgt->onDebounce : ptrRamWdgt->offDebo
1119:Generated_Source\PSoC4/CapSense_Processing.c ****             #else
1120:Generated_Source\PSoC4/CapSense_Processing.c ****                 *ptrDebounceCnt = (0Lu == newStatus) ? ptrRamWdgt->onDebounce : DEFAULT_OFF_DEBOUNC
 480              		.loc 1 1120 0
 481 0046 002A     		cmp	r2, #0
 482 0048 01D1     		bne	.L32
 483              		.loc 1 1120 0 is_stmt 0 discriminator 1
 484 004a FA79     		ldrb	r2, [r7, #7]
 485              	.LVL74:
 486 004c 00E0     		b	.L29
 487              	.LVL75:
 488              	.L32:
 489              		.loc 1 1120 0
 490 004e 0122     		mov	r2, #1
 491              	.LVL76:
 492              	.L29:
 493              		.loc 1 1120 0 discriminator 4
 494 0050 1A70     		strb	r2, [r3]
 495              	.L28:
1121:Generated_Source\PSoC4/CapSense_Processing.c ****             #endif /* #if (0u != CapSense_OFF_DEBOUNCE_EN) */
1122:Generated_Source\PSoC4/CapSense_Processing.c ****         }
1123:Generated_Source\PSoC4/CapSense_Processing.c ****         
1124:Generated_Source\PSoC4/CapSense_Processing.c ****         /* Move mask to the next sensor */
ARM GAS  C:\Users\Jannai\AppData\Local\Temp\cc8fvKff.s 			page 30


1125:Generated_Source\PSoC4/CapSense_Processing.c ****         snsMask <<= 1u;
 496              		.loc 1 1125 0 is_stmt 1
 497 0052 4900     		lsl	r1, r1, #1
 498              	.LVL77:
1126:Generated_Source\PSoC4/CapSense_Processing.c ****         
1127:Generated_Source\PSoC4/CapSense_Processing.c ****         ptrSns++;
 499              		.loc 1 1127 0
 500 0054 0A35     		add	r5, r5, #10
 501              	.LVL78:
1128:Generated_Source\PSoC4/CapSense_Processing.c ****         ptrDebounceCnt++;
 502              		.loc 1 1128 0
 503 0056 0133     		add	r3, r3, #1
 504              	.LVL79:
1086:Generated_Source\PSoC4/CapSense_Processing.c ****     {
 505              		.loc 1 1086 0
 506 0058 6246     		mov	r2, ip
 507              	.LVL80:
 508              	.L22:
 509 005a 541E     		sub	r4, r2, #1
 510 005c A446     		mov	ip, r4
 511              	.LVL81:
 512 005e 002A     		cmp	r2, #0
 513 0060 D5D1     		bne	.L30
1129:Generated_Source\PSoC4/CapSense_Processing.c ****     }
1130:Generated_Source\PSoC4/CapSense_Processing.c **** 
1131:Generated_Source\PSoC4/CapSense_Processing.c ****     return currStatus;
1132:Generated_Source\PSoC4/CapSense_Processing.c **** }
 514              		.loc 1 1132 0
 515              		@ sp needed
 516              	.LVL82:
 517              	.LVL83:
 518              	.LVL84:
 519 0062 F0BD     		pop	{r4, r5, r6, r7, pc}
 520              		.cfi_endproc
 521              	.LFE8:
 522              		.size	CapSense_DpProcessButton, .-CapSense_DpProcessButton
 523              		.section	.text.CapSense_DpProcessCsdWidgetStatus,"ax",%progbits
 524              		.align	2
 525              		.global	CapSense_DpProcessCsdWidgetStatus
 526              		.code	16
 527              		.thumb_func
 528              		.type	CapSense_DpProcessCsdWidgetStatus, %function
 529              	CapSense_DpProcessCsdWidgetStatus:
 530              	.LFB5:
 871:Generated_Source\PSoC4/CapSense_Processing.c ****     uint32 sensorStatus;
 531              		.loc 1 871 0
 532              		.cfi_startproc
 533              	.LVL85:
 534 0000 38B5     		push	{r3, r4, r5, lr}
 535              		.cfi_def_cfa_offset 16
 536              		.cfi_offset 3, -16
 537              		.cfi_offset 4, -12
 538              		.cfi_offset 5, -8
 539              		.cfi_offset 14, -4
 540 0002 041C     		mov	r4, r0
 877:Generated_Source\PSoC4/CapSense_Processing.c ****     sensorStatus = CapSense_dsRam.snsStatus[wdgtId];
 541              		.loc 1 877 0
ARM GAS  C:\Users\Jannai\AppData\Local\Temp\cc8fvKff.s 			page 31


 542 0004 0A7E     		ldrb	r2, [r1, #24]
 543              	.LVL86:
 878:Generated_Source\PSoC4/CapSense_Processing.c **** 
 544              		.loc 1 878 0
 545 0006 134B     		ldr	r3, .L40
 546 0008 1B18     		add	r3, r3, r0
 547 000a 1D7D     		ldrb	r5, [r3, #20]
 548              	.LVL87:
 880:Generated_Source\PSoC4/CapSense_Processing.c ****     {
 549              		.loc 1 880 0
 550 000c 012A     		cmp	r2, #1
 551 000e 04D1     		bne	.L39
 884:Generated_Source\PSoC4/CapSense_Processing.c ****             break;
 552              		.loc 1 884 0
 553 0010 281C     		mov	r0, r5
 554              	.LVL88:
 555 0012 FFF7FEFF 		bl	CapSense_DpProcessButton
 556              	.LVL89:
 557 0016 051C     		mov	r5, r0
 558              	.LVL90:
 885:Generated_Source\PSoC4/CapSense_Processing.c ****     #endif /* #if (0u != CapSense_BUTTON_WIDGET_EN) */
 559              		.loc 1 885 0
 560 0018 02E0     		b	.L36
 561              	.LVL91:
 562              	.L39:
 914:Generated_Source\PSoC4/CapSense_Processing.c ****         break;
 563              		.loc 1 914 0 discriminator 1
 564 001a 0020     		mov	r0, #0
 565              	.LVL92:
 566 001c FFF7FEFF 		bl	CyHalt
 567              	.LVL93:
 568              	.L36:
 918:Generated_Source\PSoC4/CapSense_Processing.c **** 
 569              		.loc 1 918 0
 570 0020 0C4B     		ldr	r3, .L40
 571 0022 1B19     		add	r3, r3, r4
 572 0024 1D75     		strb	r5, [r3, #20]
 921:Generated_Source\PSoC4/CapSense_Processing.c ****     wdStatusMask = CapSense_GET_WDGT_STATUS_MASK(wdgtId);
 573              		.loc 1 921 0
 574 0026 6309     		lsr	r3, r4, #5
 575              	.LVL94:
 922:Generated_Source\PSoC4/CapSense_Processing.c **** 
 576              		.loc 1 922 0
 577 0028 1F22     		mov	r2, #31
 578 002a 1440     		and	r4, r2
 579              	.LVL95:
 580 002c 1E3A     		sub	r2, r2, #30
 581 002e A240     		lsl	r2, r2, r4
 582 0030 141C     		mov	r4, r2
 583              	.LVL96:
 925:Generated_Source\PSoC4/CapSense_Processing.c ****     {
 584              		.loc 1 925 0
 585 0032 002D     		cmp	r5, #0
 586 0034 06D1     		bne	.L37
 927:Generated_Source\PSoC4/CapSense_Processing.c ****     }
 587              		.loc 1 927 0
 588 0036 0749     		ldr	r1, .L40
ARM GAS  C:\Users\Jannai\AppData\Local\Temp\cc8fvKff.s 			page 32


 589 0038 0433     		add	r3, r3, #4
 590              	.LVL97:
 591 003a 9B00     		lsl	r3, r3, #2
 592              	.LVL98:
 593 003c 5A58     		ldr	r2, [r3, r1]
 594              	.LVL99:
 595 003e A243     		bic	r2, r4
 596 0040 5A50     		str	r2, [r3, r1]
 597 0042 05E0     		b	.L33
 598              	.LVL100:
 599              	.L37:
 931:Generated_Source\PSoC4/CapSense_Processing.c ****     }
 600              		.loc 1 931 0
 601 0044 034A     		ldr	r2, .L40
 602              	.LVL101:
 603 0046 0433     		add	r3, r3, #4
 604              	.LVL102:
 605 0048 9B00     		lsl	r3, r3, #2
 606              	.LVL103:
 607 004a 9958     		ldr	r1, [r3, r2]
 608 004c 0C43     		orr	r4, r1
 609              	.LVL104:
 610 004e 9C50     		str	r4, [r3, r2]
 611              	.L33:
 933:Generated_Source\PSoC4/CapSense_Processing.c **** #endif /* #if (0u != CapSense_TOTAL_CSD_WIDGETS) */
 612              		.loc 1 933 0
 613              		@ sp needed
 614              	.LVL105:
 615 0050 38BD     		pop	{r3, r4, r5, pc}
 616              	.L41:
 617 0052 C046     		.align	2
 618              	.L40:
 619 0054 00000000 		.word	CapSense_dsRam
 620              		.cfi_endproc
 621              	.LFE5:
 622              		.size	CapSense_DpProcessCsdWidgetStatus, .-CapSense_DpProcessCsdWidgetStatus
 623              		.text
 624              	.Letext0:
 625              		.file 2 "Generated_Source\\PSoC4\\cytypes.h"
 626              		.file 3 "Generated_Source\\PSoC4\\CapSense_Configuration.h"
 627              		.file 4 "Generated_Source\\PSoC4\\CapSense_SmartSense_LL.h"
 628              		.file 5 "Generated_Source\\PSoC4\\CapSense_Structure.h"
 629              		.file 6 "c:\\program files (x86)\\cypress\\psoc creator\\4.0\\psoc creator\\import\\gnu\\arm\\4.9.
 630              		.file 7 "c:\\program files (x86)\\cypress\\psoc creator\\4.0\\psoc creator\\import\\gnu\\arm\\4.9.
 631              		.file 8 "Generated_Source\\PSoC4\\CapSense_Filter.h"
 632              		.file 9 "Generated_Source\\PSoC4\\CyLib.h"