ARM GAS  C:\Users\Jannai\AppData\Local\Temp\cckccs8A.s 			page 1


   1              		.cpu cortex-m0
   2              		.fpu softvfp
   3              		.eabi_attribute 20, 1
   4              		.eabi_attribute 21, 1
   5              		.eabi_attribute 23, 3
   6              		.eabi_attribute 24, 1
   7              		.eabi_attribute 25, 1
   8              		.eabi_attribute 26, 1
   9              		.eabi_attribute 30, 1
  10              		.eabi_attribute 34, 0
  11              		.eabi_attribute 18, 4
  12              		.code	16
  13              		.file	"CapSense_1_Filter.c"
  14              		.text
  15              	.Ltext0:
  16              		.cfi_sections	.debug_frame
  17              		.section	.text.CapSense_1_FtInitialize,"ax",%progbits
  18              		.align	2
  19              		.global	CapSense_1_FtInitialize
  20              		.code	16
  21              		.thumb_func
  22              		.type	CapSense_1_FtInitialize, %function
  23              	CapSense_1_FtInitialize:
  24              	.LFB2:
  25              		.file 1 "Generated_Source\\PSoC4\\CapSense_1_Filter.c"
   1:Generated_Source\PSoC4/CapSense_1_Filter.c **** /***************************************************************************//**
   2:Generated_Source\PSoC4/CapSense_1_Filter.c **** * \file     CapSense_1_Filter.c
   3:Generated_Source\PSoC4/CapSense_1_Filter.c **** * \version  3.0
   4:Generated_Source\PSoC4/CapSense_1_Filter.c **** *
   5:Generated_Source\PSoC4/CapSense_1_Filter.c **** * \brief    This file contains the implementation source code to implement all 
   6:Generated_Source\PSoC4/CapSense_1_Filter.c **** *           firmware filters.
   7:Generated_Source\PSoC4/CapSense_1_Filter.c **** *
   8:Generated_Source\PSoC4/CapSense_1_Filter.c **** * \see      CapSense P4 v3.0 Datasheet
   9:Generated_Source\PSoC4/CapSense_1_Filter.c **** * 
  10:Generated_Source\PSoC4/CapSense_1_Filter.c **** *//*****************************************************************************
  11:Generated_Source\PSoC4/CapSense_1_Filter.c **** * Copyright (2016), Cypress Semiconductor Corporation.
  12:Generated_Source\PSoC4/CapSense_1_Filter.c **** ********************************************************************************
  13:Generated_Source\PSoC4/CapSense_1_Filter.c **** * This software is owned by Cypress Semiconductor Corporation (Cypress) and is
  14:Generated_Source\PSoC4/CapSense_1_Filter.c **** * protected by and subject to worldwide patent protection (United States and
  15:Generated_Source\PSoC4/CapSense_1_Filter.c **** * foreign), United States copyright laws and international treaty provisions.
  16:Generated_Source\PSoC4/CapSense_1_Filter.c **** * Cypress hereby grants to licensee a personal, non-exclusive, non-transferable
  17:Generated_Source\PSoC4/CapSense_1_Filter.c **** * license to copy, use, modify, create derivative works of, and compile the
  18:Generated_Source\PSoC4/CapSense_1_Filter.c **** * Cypress Source Code and derivative works for the sole purpose of creating
  19:Generated_Source\PSoC4/CapSense_1_Filter.c **** * custom software in support of licensee product to be used only in conjunction
  20:Generated_Source\PSoC4/CapSense_1_Filter.c **** * with a Cypress integrated circuit as specified in the applicable agreement.
  21:Generated_Source\PSoC4/CapSense_1_Filter.c **** * Any reproduction, modification, translation, compilation, or representation of
  22:Generated_Source\PSoC4/CapSense_1_Filter.c **** * this software except as specified above is prohibited without the express
  23:Generated_Source\PSoC4/CapSense_1_Filter.c **** * written permission of Cypress.
  24:Generated_Source\PSoC4/CapSense_1_Filter.c **** *
  25:Generated_Source\PSoC4/CapSense_1_Filter.c **** * Disclaimer: CYPRESS MAKES NO WARRANTY OF ANY KIND, EXPRESS OR IMPLIED, WITH
  26:Generated_Source\PSoC4/CapSense_1_Filter.c **** * REGARD TO THIS MATERIAL, INCLUDING, BUT NOT LIMITED TO, THE IMPLIED
  27:Generated_Source\PSoC4/CapSense_1_Filter.c **** * WARRANTIES OF MERCHANTABILITY AND FITNESS FOR A PARTICULAR PURPOSE.
  28:Generated_Source\PSoC4/CapSense_1_Filter.c **** * Cypress reserves the right to make changes without further notice to the
  29:Generated_Source\PSoC4/CapSense_1_Filter.c **** * materials described herein. Cypress does not assume any liability arising out
  30:Generated_Source\PSoC4/CapSense_1_Filter.c **** * of the application or use of any product or circuit described herein. Cypress
  31:Generated_Source\PSoC4/CapSense_1_Filter.c **** * does not authorize its products for use as critical components in life-support
  32:Generated_Source\PSoC4/CapSense_1_Filter.c **** * systems where a malfunction or failure may reasonably be expected to result in
ARM GAS  C:\Users\Jannai\AppData\Local\Temp\cckccs8A.s 			page 2


  33:Generated_Source\PSoC4/CapSense_1_Filter.c **** * significant injury to the user. The inclusion of Cypress' product in a life-
  34:Generated_Source\PSoC4/CapSense_1_Filter.c **** * support systems application implies that the manufacturer assumes all risk of
  35:Generated_Source\PSoC4/CapSense_1_Filter.c **** * such use and in doing so indemnifies Cypress against all charges. Use may be
  36:Generated_Source\PSoC4/CapSense_1_Filter.c **** * limited by and subject to the applicable Cypress software license agreement.
  37:Generated_Source\PSoC4/CapSense_1_Filter.c **** *******************************************************************************/
  38:Generated_Source\PSoC4/CapSense_1_Filter.c **** 
  39:Generated_Source\PSoC4/CapSense_1_Filter.c **** #include "CapSense_1_Filter.h"
  40:Generated_Source\PSoC4/CapSense_1_Filter.c **** 
  41:Generated_Source\PSoC4/CapSense_1_Filter.c **** #if (0 != (CapSense_1_CSD_AUTOTUNE & CapSense_1_CSD_SS_TH_EN))
  42:Generated_Source\PSoC4/CapSense_1_Filter.c ****     #include "CapSense_1_SmartSense_LL.h"
  43:Generated_Source\PSoC4/CapSense_1_Filter.c **** #endif /* (0 != (CapSense_1_CSD_AUTOTUNE & CapSense_1_CSD_SS_TH_EN)) */
  44:Generated_Source\PSoC4/CapSense_1_Filter.c **** 
  45:Generated_Source\PSoC4/CapSense_1_Filter.c **** /*******************************************************************************
  46:Generated_Source\PSoC4/CapSense_1_Filter.c **** * Function Name: CapSense_1_FtInitialize
  47:Generated_Source\PSoC4/CapSense_1_Filter.c **** ****************************************************************************//**
  48:Generated_Source\PSoC4/CapSense_1_Filter.c **** *
  49:Generated_Source\PSoC4/CapSense_1_Filter.c **** * \brief
  50:Generated_Source\PSoC4/CapSense_1_Filter.c **** *    Initializes all the firmware filter history, except the baseline filter.
  51:Generated_Source\PSoC4/CapSense_1_Filter.c **** *
  52:Generated_Source\PSoC4/CapSense_1_Filter.c **** * \details
  53:Generated_Source\PSoC4/CapSense_1_Filter.c **** *    Initializes all the firmware filter history, except the baseline filter.
  54:Generated_Source\PSoC4/CapSense_1_Filter.c **** *
  55:Generated_Source\PSoC4/CapSense_1_Filter.c **** *******************************************************************************/
  56:Generated_Source\PSoC4/CapSense_1_Filter.c **** void CapSense_1_FtInitialize(void)
  57:Generated_Source\PSoC4/CapSense_1_Filter.c **** {
  26              		.loc 1 57 0
  27              		.cfi_startproc
  28              	.LVL0:
  58:Generated_Source\PSoC4/CapSense_1_Filter.c ****     uint32 widgetId;
  59:Generated_Source\PSoC4/CapSense_1_Filter.c ****     uint32 sensorId;
  60:Generated_Source\PSoC4/CapSense_1_Filter.c ****     uint32 sensorsNumber;
  61:Generated_Source\PSoC4/CapSense_1_Filter.c **** 
  62:Generated_Source\PSoC4/CapSense_1_Filter.c ****     CapSense_1_FLASH_WD_STRUCT const *ptrWidget;
  63:Generated_Source\PSoC4/CapSense_1_Filter.c ****     CapSense_1_RAM_SNS_STRUCT *ptrSensor = NULL;
  64:Generated_Source\PSoC4/CapSense_1_Filter.c ****     CapSense_1_PTR_FILTER_VARIANT ptrFilterHistObj;
  65:Generated_Source\PSoC4/CapSense_1_Filter.c ****     
  66:Generated_Source\PSoC4/CapSense_1_Filter.c ****     #if CapSense_1_CSD_AUTOTUNE & CapSense_1_CSD_SS_TH_EN
  67:Generated_Source\PSoC4/CapSense_1_Filter.c ****         CapSense_1_RAM_WD_BASE_STRUCT *ptrWidgetRam;
  68:Generated_Source\PSoC4/CapSense_1_Filter.c ****         SMARTSENSE_CSD_NOISE_ENVELOPE_STRUCT *ptrNoiseEnvelope = NULL;
  69:Generated_Source\PSoC4/CapSense_1_Filter.c ****     #endif /* #if CapSense_1_CSD_AUTOTUNE & CapSense_1_CSD_SS_TH_EN */
  70:Generated_Source\PSoC4/CapSense_1_Filter.c ****     
  71:Generated_Source\PSoC4/CapSense_1_Filter.c ****     for (widgetId = CapSense_1_TOTAL_WIDGETS; widgetId-- > 0u;)
  29              		.loc 1 71 0
  30 0000 0123     		mov	r3, #1
  31 0002 0BE0     		b	.L2
  32              	.LVL1:
  33              	.L4:
  72:Generated_Source\PSoC4/CapSense_1_Filter.c ****     {
  73:Generated_Source\PSoC4/CapSense_1_Filter.c ****         ptrWidget = &CapSense_1_dsFlash.wdgtArray[widgetId];
  74:Generated_Source\PSoC4/CapSense_1_Filter.c ****         
  75:Generated_Source\PSoC4/CapSense_1_Filter.c ****         #if CapSense_1_CSD_AUTOTUNE & CapSense_1_CSD_SS_TH_EN
  76:Generated_Source\PSoC4/CapSense_1_Filter.c ****             ptrWidgetRam = ptrWidget->ptr2WdgtRam;
  77:Generated_Source\PSoC4/CapSense_1_Filter.c ****         #endif /* #if CapSense_1_CSD_AUTOTUNE & CapSense_1_CSD_SS_TH_EN */
  78:Generated_Source\PSoC4/CapSense_1_Filter.c **** 
  79:Generated_Source\PSoC4/CapSense_1_Filter.c ****         /* Find total amount of sensors in specified widget */   
  80:Generated_Source\PSoC4/CapSense_1_Filter.c ****         sensorsNumber = CapSense_1_GET_SNS_CNT_BY_PTR(ptrWidget);    
  34              		.loc 1 80 0
ARM GAS  C:\Users\Jannai\AppData\Local\Temp\cckccs8A.s 			page 3


  35 0004 CB00     		lsl	r3, r1, #3
  36 0006 5B1A     		sub	r3, r3, r1
  37 0008 9B00     		lsl	r3, r3, #2
  38 000a 064A     		ldr	r2, .L6
  39 000c D318     		add	r3, r2, r3
  40 000e DB8A     		ldrh	r3, [r3, #22]
  41              	.LVL2:
  81:Generated_Source\PSoC4/CapSense_1_Filter.c ****     
  82:Generated_Source\PSoC4/CapSense_1_Filter.c ****         for (sensorId = sensorsNumber; sensorId-- > 0u;) 
  42              		.loc 1 82 0
  43 0010 00E0     		b	.L3
  44              	.LVL3:
  45              	.L5:
  46 0012 131C     		mov	r3, r2
  47              	.LVL4:
  48              	.L3:
  49              		.loc 1 82 0 is_stmt 0 discriminator 1
  50 0014 5A1E     		sub	r2, r3, #1
  51              	.LVL5:
  52 0016 002B     		cmp	r3, #0
  53 0018 FBD1     		bne	.L5
  71:Generated_Source\PSoC4/CapSense_1_Filter.c ****     {
  54              		.loc 1 71 0 is_stmt 1
  55 001a 0B1C     		mov	r3, r1
  56              	.LVL6:
  57              	.L2:
  71:Generated_Source\PSoC4/CapSense_1_Filter.c ****     {
  58              		.loc 1 71 0 is_stmt 0 discriminator 1
  59 001c 591E     		sub	r1, r3, #1
  60              	.LVL7:
  61 001e 002B     		cmp	r3, #0
  62 0020 F0D1     		bne	.L4
  83:Generated_Source\PSoC4/CapSense_1_Filter.c ****         {
  84:Generated_Source\PSoC4/CapSense_1_Filter.c ****             /* Find pointer to specified sensor object */
  85:Generated_Source\PSoC4/CapSense_1_Filter.c ****             ptrSensor = ptrWidget->ptr2SnsRam;
  86:Generated_Source\PSoC4/CapSense_1_Filter.c ****             ptrSensor = &ptrSensor[sensorId];
  87:Generated_Source\PSoC4/CapSense_1_Filter.c ****                         
  88:Generated_Source\PSoC4/CapSense_1_Filter.c ****             /* Find pointer to to specified filter sensor object */
  89:Generated_Source\PSoC4/CapSense_1_Filter.c ****             ptrFilterHistObj.ptr = ptrWidget->ptr2FltrHistory;
  90:Generated_Source\PSoC4/CapSense_1_Filter.c **** 
  91:Generated_Source\PSoC4/CapSense_1_Filter.c ****             #if CapSense_1_CSD_AUTOTUNE & CapSense_1_CSD_SS_TH_EN
  92:Generated_Source\PSoC4/CapSense_1_Filter.c ****                 /* Find pointer to specified noise envelope sensor object */
  93:Generated_Source\PSoC4/CapSense_1_Filter.c ****                 ptrNoiseEnvelope = ptrWidget->ptr2NoiseEnvlp;
  94:Generated_Source\PSoC4/CapSense_1_Filter.c ****                 ptrNoiseEnvelope = &ptrNoiseEnvelope[sensorId];    
  95:Generated_Source\PSoC4/CapSense_1_Filter.c ****             #endif /* #if CapSense_1_CSD_AUTOTUNE & CapSense_1_CSD_SS_TH_EN */
  96:Generated_Source\PSoC4/CapSense_1_Filter.c ****             
  97:Generated_Source\PSoC4/CapSense_1_Filter.c ****             if ((CapSense_1_WD_TYPE_ENUM)ptrWidget->wdgtType != CapSense_1_WD_PROXIMITY_E)
  98:Generated_Source\PSoC4/CapSense_1_Filter.c ****             {
  99:Generated_Source\PSoC4/CapSense_1_Filter.c ****                 #if (CapSense_1_REGULAR_SENSOR_EN)             
 100:Generated_Source\PSoC4/CapSense_1_Filter.c ****                     ptrFilterHistObj.ptrRegular = &ptrFilterHistObj.ptrRegular[sensorId];
 101:Generated_Source\PSoC4/CapSense_1_Filter.c ****                 #endif /* (CapSense_1_REGULAR_SENSOR_EN) */
 102:Generated_Source\PSoC4/CapSense_1_Filter.c ****             }
 103:Generated_Source\PSoC4/CapSense_1_Filter.c ****             else
 104:Generated_Source\PSoC4/CapSense_1_Filter.c ****             {
 105:Generated_Source\PSoC4/CapSense_1_Filter.c ****                 #if (CapSense_1_PROXIMITY_SENSOR_EN)             
 106:Generated_Source\PSoC4/CapSense_1_Filter.c ****                     ptrFilterHistObj.ptrProx = &ptrFilterHistObj.ptrProx[sensorId];
 107:Generated_Source\PSoC4/CapSense_1_Filter.c ****                 #endif /* (CapSense_1_PROXIMITY_SENSOR_EN) */
ARM GAS  C:\Users\Jannai\AppData\Local\Temp\cckccs8A.s 			page 4


 108:Generated_Source\PSoC4/CapSense_1_Filter.c ****             }
 109:Generated_Source\PSoC4/CapSense_1_Filter.c ****             
 110:Generated_Source\PSoC4/CapSense_1_Filter.c ****             #if (CapSense_1_REGULAR_RC_IIR_FILTER_EN || CapSense_1_PROX_RC_IIR_FILTER_EN)
 111:Generated_Source\PSoC4/CapSense_1_Filter.c ****                 CapSense_1_InitializeIIRInternal(ptrFilterHistObj, ptrSensor, (uint32)ptrWidget->wd
 112:Generated_Source\PSoC4/CapSense_1_Filter.c ****             #endif /* (CapSense_1_REGULAR_RC_IIR_FILTER_EN || CapSense_1_PROX_RC_IIR_FILTER_EN) */ 
 113:Generated_Source\PSoC4/CapSense_1_Filter.c **** 
 114:Generated_Source\PSoC4/CapSense_1_Filter.c ****             #if (CapSense_1_REGULAR_RC_MEDIAN_FILTER_EN || CapSense_1_PROX_RC_MEDIAN_FILTER_EN)
 115:Generated_Source\PSoC4/CapSense_1_Filter.c ****                 CapSense_1_InitializeMedianInternal(ptrFilterHistObj, ptrSensor, (uint32)ptrWidget-
 116:Generated_Source\PSoC4/CapSense_1_Filter.c ****             #endif /* (CapSense_1_REGULAR_RC_MEDIAN_FILTER_EN || CapSense_1_PROX_RC_MEDIAN_FILTER_E
 117:Generated_Source\PSoC4/CapSense_1_Filter.c **** 
 118:Generated_Source\PSoC4/CapSense_1_Filter.c ****             #if (CapSense_1_REGULAR_RC_AVERAGE_FILTER_EN || CapSense_1_PROX_RC_AVERAGE_FILTER_EN)
 119:Generated_Source\PSoC4/CapSense_1_Filter.c ****                 CapSense_1_InitializeAverageInternal(ptrFilterHistObj, ptrSensor, (uint32)ptrWidget
 120:Generated_Source\PSoC4/CapSense_1_Filter.c ****             #endif /* (CapSense_1_REGULAR_RC_AVERAGE_FILTER_EN || CapSense_1_PROX_RC_AVERAGE_FILTER
 121:Generated_Source\PSoC4/CapSense_1_Filter.c ****             
 122:Generated_Source\PSoC4/CapSense_1_Filter.c ****             #if (CapSense_1_CSD_AUTOTUNE & CapSense_1_CSD_SS_TH_EN)
 123:Generated_Source\PSoC4/CapSense_1_Filter.c ****                 if (CapSense_1_SENSE_METHOD_CSD_E ==
 124:Generated_Source\PSoC4/CapSense_1_Filter.c ****                     (CapSense_1_SENSE_METHOD_ENUM)CapSense_1_GET_SENSE_METHOD(&CapSense_1_dsFlash.w
 125:Generated_Source\PSoC4/CapSense_1_Filter.c ****                 {
 126:Generated_Source\PSoC4/CapSense_1_Filter.c ****                     SmartSense_InitializeNoiseEnvelope(ptrSensor->raw[0u], ptrWidgetRam->sigPFC, pt
 127:Generated_Source\PSoC4/CapSense_1_Filter.c ****                 }
 128:Generated_Source\PSoC4/CapSense_1_Filter.c ****             #endif /* #if CapSense_1_CSD_AUTOTUNE & CapSense_1_CSD_SS_TH_EN */
 129:Generated_Source\PSoC4/CapSense_1_Filter.c ****         }
 130:Generated_Source\PSoC4/CapSense_1_Filter.c ****     }   
 131:Generated_Source\PSoC4/CapSense_1_Filter.c **** }
  63              		.loc 1 131 0 is_stmt 1
  64              		@ sp needed
  65 0022 7047     		bx	lr
  66              	.L7:
  67              		.align	2
  68              	.L6:
  69 0024 00000000 		.word	CapSense_1_dsFlash
  70              		.cfi_endproc
  71              	.LFE2:
  72              		.size	CapSense_1_FtInitialize, .-CapSense_1_FtInitialize
  73              		.section	.text.CapSense_1_FtInitializeBaselineChannel,"ax",%progbits
  74              		.align	2
  75              		.global	CapSense_1_FtInitializeBaselineChannel
  76              		.code	16
  77              		.thumb_func
  78              		.type	CapSense_1_FtInitializeBaselineChannel, %function
  79              	CapSense_1_FtInitializeBaselineChannel:
  80              	.LFB11:
 132:Generated_Source\PSoC4/CapSense_1_Filter.c **** 
 133:Generated_Source\PSoC4/CapSense_1_Filter.c **** 
 134:Generated_Source\PSoC4/CapSense_1_Filter.c **** /*******************************************************************************
 135:Generated_Source\PSoC4/CapSense_1_Filter.c **** * Function Name: CapSense_1_UpdateAllBaselines
 136:Generated_Source\PSoC4/CapSense_1_Filter.c **** ****************************************************************************//**
 137:Generated_Source\PSoC4/CapSense_1_Filter.c **** *
 138:Generated_Source\PSoC4/CapSense_1_Filter.c **** * \brief    
 139:Generated_Source\PSoC4/CapSense_1_Filter.c **** *  Updates the baseline for all sensors in all widgets.
 140:Generated_Source\PSoC4/CapSense_1_Filter.c **** *
 141:Generated_Source\PSoC4/CapSense_1_Filter.c **** * \details
 142:Generated_Source\PSoC4/CapSense_1_Filter.c **** *  Updates the baseline for all sensors in all widgets. Baseline updating is a 
 143:Generated_Source\PSoC4/CapSense_1_Filter.c **** *  part of data processing performed by the process functions. So, no need to 
 144:Generated_Source\PSoC4/CapSense_1_Filter.c **** *  call this function except a specific process flow is implemented.
 145:Generated_Source\PSoC4/CapSense_1_Filter.c **** *  
 146:Generated_Source\PSoC4/CapSense_1_Filter.c **** *  This function ignores the value of the wdgtEnable register. Multiple calling 
ARM GAS  C:\Users\Jannai\AppData\Local\Temp\cckccs8A.s 			page 5


 147:Generated_Source\PSoC4/CapSense_1_Filter.c **** *  of this function (or any other function with a baseline updating task) 
 148:Generated_Source\PSoC4/CapSense_1_Filter.c **** *  without scanning leads to unexpected behavior.
 149:Generated_Source\PSoC4/CapSense_1_Filter.c **** *
 150:Generated_Source\PSoC4/CapSense_1_Filter.c **** * \return   
 151:Generated_Source\PSoC4/CapSense_1_Filter.c **** *  Returns the status of the update baseline operation of all widgets:
 152:Generated_Source\PSoC4/CapSense_1_Filter.c **** *    - CYRET_SUCCESS if operation was successfully completed
 153:Generated_Source\PSoC4/CapSense_1_Filter.c **** *
 154:Generated_Source\PSoC4/CapSense_1_Filter.c **** *******************************************************************************/
 155:Generated_Source\PSoC4/CapSense_1_Filter.c **** cystatus CapSense_1_UpdateAllBaselines(void)
 156:Generated_Source\PSoC4/CapSense_1_Filter.c **** {
 157:Generated_Source\PSoC4/CapSense_1_Filter.c ****     uint32 widgetId; 
 158:Generated_Source\PSoC4/CapSense_1_Filter.c ****     cystatus bslnStatus = CYRET_SUCCESS;
 159:Generated_Source\PSoC4/CapSense_1_Filter.c ****     
 160:Generated_Source\PSoC4/CapSense_1_Filter.c ****     for(widgetId = CapSense_1_TOTAL_WIDGETS; widgetId-- > 0u;)
 161:Generated_Source\PSoC4/CapSense_1_Filter.c ****     {            
 162:Generated_Source\PSoC4/CapSense_1_Filter.c ****         bslnStatus |= CapSense_1_UpdateWidgetBaseline(widgetId);       
 163:Generated_Source\PSoC4/CapSense_1_Filter.c ****     }      
 164:Generated_Source\PSoC4/CapSense_1_Filter.c ****     
 165:Generated_Source\PSoC4/CapSense_1_Filter.c ****     return(bslnStatus);
 166:Generated_Source\PSoC4/CapSense_1_Filter.c **** }
 167:Generated_Source\PSoC4/CapSense_1_Filter.c ****   
 168:Generated_Source\PSoC4/CapSense_1_Filter.c **** 
 169:Generated_Source\PSoC4/CapSense_1_Filter.c **** /*******************************************************************************
 170:Generated_Source\PSoC4/CapSense_1_Filter.c **** * Function Name: CapSense_1_UpdateWidgetBaseline
 171:Generated_Source\PSoC4/CapSense_1_Filter.c **** ****************************************************************************//**
 172:Generated_Source\PSoC4/CapSense_1_Filter.c **** *
 173:Generated_Source\PSoC4/CapSense_1_Filter.c **** * \brief    
 174:Generated_Source\PSoC4/CapSense_1_Filter.c **** *  Updates the baseline for all sensors in a widget specified by input parameter.
 175:Generated_Source\PSoC4/CapSense_1_Filter.c **** *
 176:Generated_Source\PSoC4/CapSense_1_Filter.c **** * \details  
 177:Generated_Source\PSoC4/CapSense_1_Filter.c **** *  This function performs exactly the same tasks as 
 178:Generated_Source\PSoC4/CapSense_1_Filter.c **** *  CapSense_1_UpdateAllBaselines(), but only for a specified widget.
 179:Generated_Source\PSoC4/CapSense_1_Filter.c **** *  
 180:Generated_Source\PSoC4/CapSense_1_Filter.c **** *  This function ignores the value of the wdgtEnable register. Multiple calling
 181:Generated_Source\PSoC4/CapSense_1_Filter.c **** *  of this function (or any other function with a baseline updating task) 
 182:Generated_Source\PSoC4/CapSense_1_Filter.c **** *  without scanning leads to unexpected behavior.
 183:Generated_Source\PSoC4/CapSense_1_Filter.c **** *
 184:Generated_Source\PSoC4/CapSense_1_Filter.c **** * \param widgetId 
 185:Generated_Source\PSoC4/CapSense_1_Filter.c **** *  Specify the ID number of the widget to update the baseline of all sensors
 186:Generated_Source\PSoC4/CapSense_1_Filter.c **** *  in the widget.
 187:Generated_Source\PSoC4/CapSense_1_Filter.c **** *  A macro for the widget ID can be found in the 
 188:Generated_Source\PSoC4/CapSense_1_Filter.c **** *  CapSense_1_Configuration.h file defined as 
 189:Generated_Source\PSoC4/CapSense_1_Filter.c **** *  CapSense_1_<WidgetName>_WDGT_ID Specifies the ID of the widget.
 190:Generated_Source\PSoC4/CapSense_1_Filter.c **** *
 191:Generated_Source\PSoC4/CapSense_1_Filter.c **** * \return   
 192:Generated_Source\PSoC4/CapSense_1_Filter.c **** *  Returns the status of the specified widget update baseline operation:
 193:Generated_Source\PSoC4/CapSense_1_Filter.c **** *    - CYRET_SUCCESS if operation was successfully completed
 194:Generated_Source\PSoC4/CapSense_1_Filter.c **** *
 195:Generated_Source\PSoC4/CapSense_1_Filter.c **** *******************************************************************************/
 196:Generated_Source\PSoC4/CapSense_1_Filter.c **** cystatus CapSense_1_UpdateWidgetBaseline(uint32 widgetId)
 197:Generated_Source\PSoC4/CapSense_1_Filter.c **** {
 198:Generated_Source\PSoC4/CapSense_1_Filter.c ****     uint32 sensorId;       
 199:Generated_Source\PSoC4/CapSense_1_Filter.c ****     uint32 sensorsNumber;  
 200:Generated_Source\PSoC4/CapSense_1_Filter.c **** 
 201:Generated_Source\PSoC4/CapSense_1_Filter.c ****     CapSense_1_FLASH_WD_STRUCT const *ptrWidget = &CapSense_1_dsFlash.wdgtArray[widgetId];    
 202:Generated_Source\PSoC4/CapSense_1_Filter.c ****     cystatus bslnStatus = CYRET_SUCCESS;    
 203:Generated_Source\PSoC4/CapSense_1_Filter.c ****     
ARM GAS  C:\Users\Jannai\AppData\Local\Temp\cckccs8A.s 			page 6


 204:Generated_Source\PSoC4/CapSense_1_Filter.c ****     /* Find total amount of sensors in specified widget */   
 205:Generated_Source\PSoC4/CapSense_1_Filter.c ****     sensorsNumber = CapSense_1_GET_SNS_CNT_BY_PTR(ptrWidget);    
 206:Generated_Source\PSoC4/CapSense_1_Filter.c ****     
 207:Generated_Source\PSoC4/CapSense_1_Filter.c ****     for(sensorId = sensorsNumber; sensorId-- > 0u;)
 208:Generated_Source\PSoC4/CapSense_1_Filter.c ****     {
 209:Generated_Source\PSoC4/CapSense_1_Filter.c ****         bslnStatus |= CapSense_1_UpdateSensorBaseline(widgetId, sensorId);    
 210:Generated_Source\PSoC4/CapSense_1_Filter.c ****     }
 211:Generated_Source\PSoC4/CapSense_1_Filter.c **** 
 212:Generated_Source\PSoC4/CapSense_1_Filter.c ****     return(bslnStatus);
 213:Generated_Source\PSoC4/CapSense_1_Filter.c **** }
 214:Generated_Source\PSoC4/CapSense_1_Filter.c **** 
 215:Generated_Source\PSoC4/CapSense_1_Filter.c **** 
 216:Generated_Source\PSoC4/CapSense_1_Filter.c **** /*******************************************************************************
 217:Generated_Source\PSoC4/CapSense_1_Filter.c **** * Function Name: CapSense_1_UpdateSensorBaseline
 218:Generated_Source\PSoC4/CapSense_1_Filter.c **** ****************************************************************************//**
 219:Generated_Source\PSoC4/CapSense_1_Filter.c **** *
 220:Generated_Source\PSoC4/CapSense_1_Filter.c **** * \brief    
 221:Generated_Source\PSoC4/CapSense_1_Filter.c **** *  Updates the baseline for a sensor in a widget specified by input parameters.
 222:Generated_Source\PSoC4/CapSense_1_Filter.c **** *
 223:Generated_Source\PSoC4/CapSense_1_Filter.c **** * \details  
 224:Generated_Source\PSoC4/CapSense_1_Filter.c **** *  This function performs exactly the same tasks as
 225:Generated_Source\PSoC4/CapSense_1_Filter.c **** *  CapSense_1_UpdateAllBaselines() and 
 226:Generated_Source\PSoC4/CapSense_1_Filter.c **** *  CapSense_1_UpdateWidgetBaseline() but only for a specified sensor.
 227:Generated_Source\PSoC4/CapSense_1_Filter.c **** *  
 228:Generated_Source\PSoC4/CapSense_1_Filter.c **** *  This function ignores the value of the wdgtEnable register. Multiple calling 
 229:Generated_Source\PSoC4/CapSense_1_Filter.c **** *  of this function (or any other function with a baseline updating task) 
 230:Generated_Source\PSoC4/CapSense_1_Filter.c **** *  without scanning leads to unexpected behavior.
 231:Generated_Source\PSoC4/CapSense_1_Filter.c **** *
 232:Generated_Source\PSoC4/CapSense_1_Filter.c **** * \param   widgetId 
 233:Generated_Source\PSoC4/CapSense_1_Filter.c **** *  Specify the ID number of the widget to update the baseline of the sensor 
 234:Generated_Source\PSoC4/CapSense_1_Filter.c **** *  specified by the sensorId parameter.
 235:Generated_Source\PSoC4/CapSense_1_Filter.c **** *  A macro for the widget ID can be found in CapSense_1_Configuration.h 
 236:Generated_Source\PSoC4/CapSense_1_Filter.c **** *  file defined as CapSense_1_<WidgetName>_WDGT_ID Specifies the ID of 
 237:Generated_Source\PSoC4/CapSense_1_Filter.c **** *  the widget. 
 238:Generated_Source\PSoC4/CapSense_1_Filter.c **** *
 239:Generated_Source\PSoC4/CapSense_1_Filter.c **** * \param   sensorId 
 240:Generated_Source\PSoC4/CapSense_1_Filter.c **** *  Specify the ID number of the sensor within the widget to update its baseline.
 241:Generated_Source\PSoC4/CapSense_1_Filter.c **** *  A macro for the sensor ID within a specified widget can be found in the 
 242:Generated_Source\PSoC4/CapSense_1_Filter.c **** *  CapSense_1_Configuration.h file defined as 
 243:Generated_Source\PSoC4/CapSense_1_Filter.c **** *  CapSense_1_<WidgetName>_SNS<SensorNumber>_ID
 244:Generated_Source\PSoC4/CapSense_1_Filter.c **** *
 245:Generated_Source\PSoC4/CapSense_1_Filter.c **** * \return   
 246:Generated_Source\PSoC4/CapSense_1_Filter.c **** *  Returns the status of the specified sensor update baseline operation:
 247:Generated_Source\PSoC4/CapSense_1_Filter.c **** *    - CYRET_SUCCESS if operation was successfully completed
 248:Generated_Source\PSoC4/CapSense_1_Filter.c **** *
 249:Generated_Source\PSoC4/CapSense_1_Filter.c **** *******************************************************************************/
 250:Generated_Source\PSoC4/CapSense_1_Filter.c **** cystatus CapSense_1_UpdateSensorBaseline(uint32 widgetId, uint32 sensorId)
 251:Generated_Source\PSoC4/CapSense_1_Filter.c **** {    
 252:Generated_Source\PSoC4/CapSense_1_Filter.c ****     cystatus bslnStatus = CYRET_SUCCESS;  
 253:Generated_Source\PSoC4/CapSense_1_Filter.c ****     
 254:Generated_Source\PSoC4/CapSense_1_Filter.c ****     CapSense_1_RAM_SNS_STRUCT *ptrSensor = NULL;    
 255:Generated_Source\PSoC4/CapSense_1_Filter.c ****     CapSense_1_FLASH_WD_STRUCT const *ptrWidget = &CapSense_1_dsFlash.wdgtArray[widgetId];    
 256:Generated_Source\PSoC4/CapSense_1_Filter.c ****     CapSense_1_RAM_WD_BASE_STRUCT *ptrWidgetRam = ptrWidget->ptr2WdgtRam;   
 257:Generated_Source\PSoC4/CapSense_1_Filter.c ****           
 258:Generated_Source\PSoC4/CapSense_1_Filter.c ****     /* Find pointer to specified sensor object */     
 259:Generated_Source\PSoC4/CapSense_1_Filter.c ****     ptrSensor = ptrWidget->ptr2SnsRam;
 260:Generated_Source\PSoC4/CapSense_1_Filter.c ****     ptrSensor = &ptrSensor[sensorId];
ARM GAS  C:\Users\Jannai\AppData\Local\Temp\cckccs8A.s 			page 7


 261:Generated_Source\PSoC4/CapSense_1_Filter.c ****     
 262:Generated_Source\PSoC4/CapSense_1_Filter.c ****     bslnStatus = CapSense_1_FtUpdateBaseline(
 263:Generated_Source\PSoC4/CapSense_1_Filter.c ****                         ptrWidgetRam, ptrSensor, (uint32)ptrWidget->wdgtType);
 264:Generated_Source\PSoC4/CapSense_1_Filter.c ****    
 265:Generated_Source\PSoC4/CapSense_1_Filter.c ****     return(bslnStatus);
 266:Generated_Source\PSoC4/CapSense_1_Filter.c **** }
 267:Generated_Source\PSoC4/CapSense_1_Filter.c ****  
 268:Generated_Source\PSoC4/CapSense_1_Filter.c **** 
 269:Generated_Source\PSoC4/CapSense_1_Filter.c **** /*******************************************************************************
 270:Generated_Source\PSoC4/CapSense_1_Filter.c **** * Function Name: CapSense_1_FtUpdateBaseline
 271:Generated_Source\PSoC4/CapSense_1_Filter.c **** ****************************************************************************//**
 272:Generated_Source\PSoC4/CapSense_1_Filter.c **** *
 273:Generated_Source\PSoC4/CapSense_1_Filter.c **** * \brief    Updates the baseline for a sensor specified by an input parameter.
 274:Generated_Source\PSoC4/CapSense_1_Filter.c **** *
 275:Generated_Source\PSoC4/CapSense_1_Filter.c **** * \details  Updates the baseline for a sensor specified by an input parameter.
 276:Generated_Source\PSoC4/CapSense_1_Filter.c **** *
 277:Generated_Source\PSoC4/CapSense_1_Filter.c **** * \param    ptr2wd_ram The pointer to the widget RAM structure where all the widget 
 278:Generated_Source\PSoC4/CapSense_1_Filter.c **** *           parameters are stored.
 279:Generated_Source\PSoC4/CapSense_1_Filter.c **** *
 280:Generated_Source\PSoC4/CapSense_1_Filter.c **** * \param    ptrSensor The pointer to the sensor RAM structure where all the sensor
 281:Generated_Source\PSoC4/CapSense_1_Filter.c **** *           parameters are stored.
 282:Generated_Source\PSoC4/CapSense_1_Filter.c **** *
 283:Generated_Source\PSoC4/CapSense_1_Filter.c **** * \return   Returns a status indicating whether the baseline has been updated. 
 284:Generated_Source\PSoC4/CapSense_1_Filter.c **** *
 285:Generated_Source\PSoC4/CapSense_1_Filter.c **** *******************************************************************************/
 286:Generated_Source\PSoC4/CapSense_1_Filter.c **** cystatus CapSense_1_FtUpdateBaseline(
 287:Generated_Source\PSoC4/CapSense_1_Filter.c ****                                 CapSense_1_RAM_WD_BASE_STRUCT *ptrWidgetRam,
 288:Generated_Source\PSoC4/CapSense_1_Filter.c ****                                 CapSense_1_RAM_SNS_STRUCT *ptrSensor, 
 289:Generated_Source\PSoC4/CapSense_1_Filter.c ****                                 uint32 wdType)
 290:Generated_Source\PSoC4/CapSense_1_Filter.c **** {         
 291:Generated_Source\PSoC4/CapSense_1_Filter.c ****     uint32 sign;
 292:Generated_Source\PSoC4/CapSense_1_Filter.c ****     uint32 difference;        
 293:Generated_Source\PSoC4/CapSense_1_Filter.c ****     uint32 channel;
 294:Generated_Source\PSoC4/CapSense_1_Filter.c ****     cystatus bslnStatus = CYRET_SUCCESS; 
 295:Generated_Source\PSoC4/CapSense_1_Filter.c ****     
 296:Generated_Source\PSoC4/CapSense_1_Filter.c ****     #if (CapSense_1_TOTAL_WIDGETS)  
 297:Generated_Source\PSoC4/CapSense_1_Filter.c ****         uint32 history;
 298:Generated_Source\PSoC4/CapSense_1_Filter.c ****     #endif /* (CapSense_1_TOTAL_WIDGETS) */    
 299:Generated_Source\PSoC4/CapSense_1_Filter.c ****     
 300:Generated_Source\PSoC4/CapSense_1_Filter.c ****     /* Apply baseline to every channel in sensor */
 301:Generated_Source\PSoC4/CapSense_1_Filter.c ****     for(channel = CapSense_1_NUM_SCAN_FREQS; channel-- > 0u;) 
 302:Generated_Source\PSoC4/CapSense_1_Filter.c ****     {               
 303:Generated_Source\PSoC4/CapSense_1_Filter.c ****         /* Calculate signal value and its sign */
 304:Generated_Source\PSoC4/CapSense_1_Filter.c ****         if(ptrSensor->raw[channel] >= ptrSensor->bsln[channel])
 305:Generated_Source\PSoC4/CapSense_1_Filter.c ****         {
 306:Generated_Source\PSoC4/CapSense_1_Filter.c ****             difference = (uint32)ptrSensor->raw[channel] - (uint32)ptrSensor->bsln[channel];
 307:Generated_Source\PSoC4/CapSense_1_Filter.c ****             sign = 1u;
 308:Generated_Source\PSoC4/CapSense_1_Filter.c ****             ptrSensor->negBslnRstCnt[channel] = 0u;
 309:Generated_Source\PSoC4/CapSense_1_Filter.c ****         }
 310:Generated_Source\PSoC4/CapSense_1_Filter.c ****         else
 311:Generated_Source\PSoC4/CapSense_1_Filter.c ****         {
 312:Generated_Source\PSoC4/CapSense_1_Filter.c ****             difference = (uint32)ptrSensor->bsln[channel] - (uint32)ptrSensor->raw[channel];
 313:Generated_Source\PSoC4/CapSense_1_Filter.c ****             sign = 0u;
 314:Generated_Source\PSoC4/CapSense_1_Filter.c ****         }     
 315:Generated_Source\PSoC4/CapSense_1_Filter.c ****         
 316:Generated_Source\PSoC4/CapSense_1_Filter.c ****         /* Reset baseline if condition is met */ 
 317:Generated_Source\PSoC4/CapSense_1_Filter.c ****         if((sign == 0u) && (difference > (uint32) ptrWidgetRam->nNoiseTh))
ARM GAS  C:\Users\Jannai\AppData\Local\Temp\cckccs8A.s 			page 8


 318:Generated_Source\PSoC4/CapSense_1_Filter.c ****         {
 319:Generated_Source\PSoC4/CapSense_1_Filter.c ****             if(ptrSensor->negBslnRstCnt[channel] >= ptrWidgetRam->lowBslnRst)
 320:Generated_Source\PSoC4/CapSense_1_Filter.c ****             {                
 321:Generated_Source\PSoC4/CapSense_1_Filter.c ****                 CapSense_1_FtInitializeBaselineChannel(ptrSensor, wdType, channel);             
 322:Generated_Source\PSoC4/CapSense_1_Filter.c ****             }
 323:Generated_Source\PSoC4/CapSense_1_Filter.c ****             else
 324:Generated_Source\PSoC4/CapSense_1_Filter.c ****             {
 325:Generated_Source\PSoC4/CapSense_1_Filter.c ****                 ptrSensor->negBslnRstCnt[channel]++;
 326:Generated_Source\PSoC4/CapSense_1_Filter.c ****             }
 327:Generated_Source\PSoC4/CapSense_1_Filter.c ****         }
 328:Generated_Source\PSoC4/CapSense_1_Filter.c ****         else
 329:Generated_Source\PSoC4/CapSense_1_Filter.c ****         {
 330:Generated_Source\PSoC4/CapSense_1_Filter.c ****             #if (!CapSense_1_SENSOR_AUTO_RESET_EN)
 331:Generated_Source\PSoC4/CapSense_1_Filter.c ****                 /* Update baseline only if signal is in range between noiseThreshold and negativeno
 332:Generated_Source\PSoC4/CapSense_1_Filter.c ****                 if ((difference <= (uint32)ptrWidgetRam->noiseTh) ||
 333:Generated_Source\PSoC4/CapSense_1_Filter.c ****                     ((difference < (uint32) ptrWidgetRam->nNoiseTh) && (sign == 0u)))
 334:Generated_Source\PSoC4/CapSense_1_Filter.c ****                 {
 335:Generated_Source\PSoC4/CapSense_1_Filter.c ****             #endif /* (CapSense_1_CSD_AUTO_RESET == CapSense_1_CSD_AUTO_RESET_DISABLE) */
 336:Generated_Source\PSoC4/CapSense_1_Filter.c ****                     #if (CapSense_1_BASELINE_TYPE == CapSense_1_IIR_BASELINE)  
 337:Generated_Source\PSoC4/CapSense_1_Filter.c ****                         
 338:Generated_Source\PSoC4/CapSense_1_Filter.c ****                         /* Calculate baseline value */
 339:Generated_Source\PSoC4/CapSense_1_Filter.c ****                         if ((CapSense_1_WD_TYPE_ENUM)wdType != CapSense_1_WD_PROXIMITY_E)
 340:Generated_Source\PSoC4/CapSense_1_Filter.c ****                         {
 341:Generated_Source\PSoC4/CapSense_1_Filter.c ****                             #if (CapSense_1_REGULAR_SENSOR_EN) 
 342:Generated_Source\PSoC4/CapSense_1_Filter.c ****                                 #if (CapSense_1_REGULAR_IIR_BL_TYPE == CapSense_1_IIR_FILTER_PERFOR
 343:Generated_Source\PSoC4/CapSense_1_Filter.c ****                                     history = (uint32) ptrSensor->bsln[channel] << 8u; 
 344:Generated_Source\PSoC4/CapSense_1_Filter.c ****                                     history |= ptrSensor->bslnExt[channel];
 345:Generated_Source\PSoC4/CapSense_1_Filter.c ****                                 #else
 346:Generated_Source\PSoC4/CapSense_1_Filter.c ****                                     history = ptrSensor->bsln[channel];                            
 347:Generated_Source\PSoC4/CapSense_1_Filter.c ****                                 #endif /* (CapSense_1_REGULAR_IIR_BL_TYPE == CapSense_1_IIR_FILTER_
 348:Generated_Source\PSoC4/CapSense_1_Filter.c ****                             
 349:Generated_Source\PSoC4/CapSense_1_Filter.c ****                                 history =  CapSense_1_FtIIR1stOrder(
 350:Generated_Source\PSoC4/CapSense_1_Filter.c ****                                                 (uint32)ptrSensor->raw[channel],
 351:Generated_Source\PSoC4/CapSense_1_Filter.c ****                                                 history, 
 352:Generated_Source\PSoC4/CapSense_1_Filter.c ****                                                 CapSense_1_REGULAR_IIR_BL_N, 
 353:Generated_Source\PSoC4/CapSense_1_Filter.c ****                                                 CapSense_1_REGULAR_IIR_BL_SHIFT);
 354:Generated_Source\PSoC4/CapSense_1_Filter.c ****                                                            
 355:Generated_Source\PSoC4/CapSense_1_Filter.c ****                                 #if (CapSense_1_REGULAR_IIR_BL_TYPE == CapSense_1_IIR_FILTER_PERFOR
 356:Generated_Source\PSoC4/CapSense_1_Filter.c ****                                     ptrSensor->bsln[channel] = LO16(history >> 8u);
 357:Generated_Source\PSoC4/CapSense_1_Filter.c ****                                     ptrSensor->bslnExt[channel] = LO8(history);
 358:Generated_Source\PSoC4/CapSense_1_Filter.c ****                                 #else
 359:Generated_Source\PSoC4/CapSense_1_Filter.c ****                                     ptrSensor->bsln[channel] = LO16(history);
 360:Generated_Source\PSoC4/CapSense_1_Filter.c ****                                 #endif /* (CapSense_1_REGULAR_IIR_BL_TYPE == CapSense_1_IIR_FILTER_
 361:Generated_Source\PSoC4/CapSense_1_Filter.c ****                             #endif /* (CapSense_1_REGULAR_SENSOR_EN) */
 362:Generated_Source\PSoC4/CapSense_1_Filter.c ****                         }
 363:Generated_Source\PSoC4/CapSense_1_Filter.c ****                         else 
 364:Generated_Source\PSoC4/CapSense_1_Filter.c ****                         {
 365:Generated_Source\PSoC4/CapSense_1_Filter.c ****                             #if (CapSense_1_PROXIMITY_SENSOR_EN)     
 366:Generated_Source\PSoC4/CapSense_1_Filter.c ****                                 #if (CapSense_1_PROX_IIR_BL_TYPE == CapSense_1_IIR_FILTER_PERFORMAN
 367:Generated_Source\PSoC4/CapSense_1_Filter.c ****                                     history = (uint32) ptrSensor->bsln[channel] << 8u; 
 368:Generated_Source\PSoC4/CapSense_1_Filter.c ****                                     history |= ptrSensor->bslnExt[channel];
 369:Generated_Source\PSoC4/CapSense_1_Filter.c ****                                 #else
 370:Generated_Source\PSoC4/CapSense_1_Filter.c ****                                     history = (uint32) ptrSensor->bsln[channel];                   
 371:Generated_Source\PSoC4/CapSense_1_Filter.c ****                                 #endif /* (CapSense_1_PROX_IIR_BL_TYPE == CapSense_1_IIR_FILTER_PER
 372:Generated_Source\PSoC4/CapSense_1_Filter.c ****                                 
 373:Generated_Source\PSoC4/CapSense_1_Filter.c ****                                 history = CapSense_1_FtIIR1stOrder((uint32)ptrSensor->raw[channel],
 374:Generated_Source\PSoC4/CapSense_1_Filter.c ****                                 
ARM GAS  C:\Users\Jannai\AppData\Local\Temp\cckccs8A.s 			page 9


 375:Generated_Source\PSoC4/CapSense_1_Filter.c ****                                 #if (CapSense_1_PROX_IIR_BL_TYPE == CapSense_1_IIR_FILTER_PERFORMAN
 376:Generated_Source\PSoC4/CapSense_1_Filter.c ****                                     ptrSensor->bsln[channel] = LO16(history >> 8u);
 377:Generated_Source\PSoC4/CapSense_1_Filter.c ****                                     ptrSensor->bslnExt[channel] = LO8(history);
 378:Generated_Source\PSoC4/CapSense_1_Filter.c ****                                 #else
 379:Generated_Source\PSoC4/CapSense_1_Filter.c ****                                     ptrSensor->bsln[channel] = LO16(history);
 380:Generated_Source\PSoC4/CapSense_1_Filter.c ****                                 #endif /* (CapSense_1_PROX_IIR_BL_TYPE == CapSense_1_IIR_FILTER_PER
 381:Generated_Source\PSoC4/CapSense_1_Filter.c ****                             #endif /* (CapSense_1_PROX_SENSOR_EN)   */
 382:Generated_Source\PSoC4/CapSense_1_Filter.c ****                         }
 383:Generated_Source\PSoC4/CapSense_1_Filter.c ****                     #else
 384:Generated_Source\PSoC4/CapSense_1_Filter.c ****                         
 385:Generated_Source\PSoC4/CapSense_1_Filter.c ****                         /******************************************************************
 386:Generated_Source\PSoC4/CapSense_1_Filter.c ****                         * This is the place where the bucket algorithm should be implemented.
 387:Generated_Source\PSoC4/CapSense_1_Filter.c ****                         * The bucket method will be implemented in the next component version.
 388:Generated_Source\PSoC4/CapSense_1_Filter.c ****                         *******************************************************************/
 389:Generated_Source\PSoC4/CapSense_1_Filter.c ****                         
 390:Generated_Source\PSoC4/CapSense_1_Filter.c ****                     #endif /* (CapSense_1_CSD_BASELINE_TYPE == CapSense_1_IIR_BASELINE)  */
 391:Generated_Source\PSoC4/CapSense_1_Filter.c ****                     
 392:Generated_Source\PSoC4/CapSense_1_Filter.c ****             #if (!CapSense_1_SENSOR_AUTO_RESET_EN)
 393:Generated_Source\PSoC4/CapSense_1_Filter.c ****                 }
 394:Generated_Source\PSoC4/CapSense_1_Filter.c ****             #endif /* (!CapSense_1_SENSOR_AUTO_RESET_EN) */
 395:Generated_Source\PSoC4/CapSense_1_Filter.c ****         }
 396:Generated_Source\PSoC4/CapSense_1_Filter.c ****     }
 397:Generated_Source\PSoC4/CapSense_1_Filter.c ****     
 398:Generated_Source\PSoC4/CapSense_1_Filter.c ****     return(bslnStatus);    
 399:Generated_Source\PSoC4/CapSense_1_Filter.c **** }
 400:Generated_Source\PSoC4/CapSense_1_Filter.c **** 
 401:Generated_Source\PSoC4/CapSense_1_Filter.c **** 
 402:Generated_Source\PSoC4/CapSense_1_Filter.c **** /*******************************************************************************
 403:Generated_Source\PSoC4/CapSense_1_Filter.c **** * Function Name: CapSense_1_InitializeAllBaselines
 404:Generated_Source\PSoC4/CapSense_1_Filter.c **** ****************************************************************************//**
 405:Generated_Source\PSoC4/CapSense_1_Filter.c **** *
 406:Generated_Source\PSoC4/CapSense_1_Filter.c **** * \brief    
 407:Generated_Source\PSoC4/CapSense_1_Filter.c **** *  Initializes (or re-initialize) the baseline of all sensors of all widgets.
 408:Generated_Source\PSoC4/CapSense_1_Filter.c **** *
 409:Generated_Source\PSoC4/CapSense_1_Filter.c **** * \details  
 410:Generated_Source\PSoC4/CapSense_1_Filter.c **** *  Initializes the baseline for all sensors of all widgets. Also, this function
 411:Generated_Source\PSoC4/CapSense_1_Filter.c **** *  can be used to re-initialize baselines. CapSense_1_Start() calls this 
 412:Generated_Source\PSoC4/CapSense_1_Filter.c **** *  API as part of CapSense_1 operation initialization.
 413:Generated_Source\PSoC4/CapSense_1_Filter.c **** *
 414:Generated_Source\PSoC4/CapSense_1_Filter.c **** *******************************************************************************/
 415:Generated_Source\PSoC4/CapSense_1_Filter.c **** void CapSense_1_InitializeAllBaselines(void)
 416:Generated_Source\PSoC4/CapSense_1_Filter.c **** {
 417:Generated_Source\PSoC4/CapSense_1_Filter.c ****     uint32 widgetId;    
 418:Generated_Source\PSoC4/CapSense_1_Filter.c ****     
 419:Generated_Source\PSoC4/CapSense_1_Filter.c ****     for(widgetId = CapSense_1_TOTAL_WIDGETS; widgetId-- > 0u;)
 420:Generated_Source\PSoC4/CapSense_1_Filter.c ****     {
 421:Generated_Source\PSoC4/CapSense_1_Filter.c ****         CapSense_1_InitializeWidgetBaseline(widgetId); 
 422:Generated_Source\PSoC4/CapSense_1_Filter.c ****     }
 423:Generated_Source\PSoC4/CapSense_1_Filter.c **** }
 424:Generated_Source\PSoC4/CapSense_1_Filter.c **** 
 425:Generated_Source\PSoC4/CapSense_1_Filter.c **** 
 426:Generated_Source\PSoC4/CapSense_1_Filter.c **** /*******************************************************************************
 427:Generated_Source\PSoC4/CapSense_1_Filter.c **** * Function Name: CapSense_1_InitializeWidgetBaseline
 428:Generated_Source\PSoC4/CapSense_1_Filter.c **** ****************************************************************************//**
 429:Generated_Source\PSoC4/CapSense_1_Filter.c **** *
 430:Generated_Source\PSoC4/CapSense_1_Filter.c **** * \brief    
 431:Generated_Source\PSoC4/CapSense_1_Filter.c **** *  Initializes (or re-initialize) the baseline of all sensors in a widget 
ARM GAS  C:\Users\Jannai\AppData\Local\Temp\cckccs8A.s 			page 10


 432:Generated_Source\PSoC4/CapSense_1_Filter.c **** *  specified by input parameter. 
 433:Generated_Source\PSoC4/CapSense_1_Filter.c **** *
 434:Generated_Source\PSoC4/CapSense_1_Filter.c **** * \details  
 435:Generated_Source\PSoC4/CapSense_1_Filter.c **** *  Initializes (or re-initializes) the baseline for all sensors of the 
 436:Generated_Source\PSoC4/CapSense_1_Filter.c **** *  specified widget.
 437:Generated_Source\PSoC4/CapSense_1_Filter.c **** *
 438:Generated_Source\PSoC4/CapSense_1_Filter.c **** * \param  widgetId 
 439:Generated_Source\PSoC4/CapSense_1_Filter.c **** *  Specify the ID number of a widget to initialize the baseline of all sensors
 440:Generated_Source\PSoC4/CapSense_1_Filter.c **** *  in the widget. 
 441:Generated_Source\PSoC4/CapSense_1_Filter.c **** *  A macro for the widget ID can be found in the 
 442:Generated_Source\PSoC4/CapSense_1_Filter.c **** *  CapSense_1_Configuration.h file defined as 
 443:Generated_Source\PSoC4/CapSense_1_Filter.c **** *  CapSense_1_<WidgetName>_WDGT_ID Specifies the ID of the widget.
 444:Generated_Source\PSoC4/CapSense_1_Filter.c **** *
 445:Generated_Source\PSoC4/CapSense_1_Filter.c **** *******************************************************************************/
 446:Generated_Source\PSoC4/CapSense_1_Filter.c **** void CapSense_1_InitializeWidgetBaseline(uint32 widgetId)
 447:Generated_Source\PSoC4/CapSense_1_Filter.c **** {   
 448:Generated_Source\PSoC4/CapSense_1_Filter.c ****     uint32 sensorId;
 449:Generated_Source\PSoC4/CapSense_1_Filter.c ****     uint32 sensorsNumber;
 450:Generated_Source\PSoC4/CapSense_1_Filter.c ****   
 451:Generated_Source\PSoC4/CapSense_1_Filter.c ****     CapSense_1_FLASH_WD_STRUCT const *ptrWidget = &CapSense_1_dsFlash.wdgtArray[widgetId];
 452:Generated_Source\PSoC4/CapSense_1_Filter.c **** 
 453:Generated_Source\PSoC4/CapSense_1_Filter.c ****     /* Find total amount of sensors in specified widget */   
 454:Generated_Source\PSoC4/CapSense_1_Filter.c ****     sensorsNumber = CapSense_1_GET_SNS_CNT_BY_PTR(ptrWidget);    
 455:Generated_Source\PSoC4/CapSense_1_Filter.c ****     
 456:Generated_Source\PSoC4/CapSense_1_Filter.c ****     for(sensorId = sensorsNumber; sensorId-- > 0u;)
 457:Generated_Source\PSoC4/CapSense_1_Filter.c ****     {
 458:Generated_Source\PSoC4/CapSense_1_Filter.c ****         CapSense_1_InitializeSensorBaseline(widgetId, sensorId);   
 459:Generated_Source\PSoC4/CapSense_1_Filter.c ****     }
 460:Generated_Source\PSoC4/CapSense_1_Filter.c **** }
 461:Generated_Source\PSoC4/CapSense_1_Filter.c **** 
 462:Generated_Source\PSoC4/CapSense_1_Filter.c **** 
 463:Generated_Source\PSoC4/CapSense_1_Filter.c **** /*******************************************************************************
 464:Generated_Source\PSoC4/CapSense_1_Filter.c **** * Function Name: CapSense_1_InitializeSensorBaseline
 465:Generated_Source\PSoC4/CapSense_1_Filter.c **** ****************************************************************************//**
 466:Generated_Source\PSoC4/CapSense_1_Filter.c **** *
 467:Generated_Source\PSoC4/CapSense_1_Filter.c **** * \brief
 468:Generated_Source\PSoC4/CapSense_1_Filter.c **** *  Initializes (or re-initialize) the baseline of a sensor in a widget specified
 469:Generated_Source\PSoC4/CapSense_1_Filter.c **** *  by input parameters.
 470:Generated_Source\PSoC4/CapSense_1_Filter.c **** *
 471:Generated_Source\PSoC4/CapSense_1_Filter.c **** * \details  
 472:Generated_Source\PSoC4/CapSense_1_Filter.c **** *  Initializes (or re-initializes) the baseline for a specified sensor within
 473:Generated_Source\PSoC4/CapSense_1_Filter.c **** *  a specified widget.
 474:Generated_Source\PSoC4/CapSense_1_Filter.c **** *
 475:Generated_Source\PSoC4/CapSense_1_Filter.c **** * \param    widgetId 
 476:Generated_Source\PSoC4/CapSense_1_Filter.c **** *  Specify the ID number of a widget to initialize the baseline of all sensors
 477:Generated_Source\PSoC4/CapSense_1_Filter.c **** *  in the widget.
 478:Generated_Source\PSoC4/CapSense_1_Filter.c **** *  A macro for the widget ID can be found in the 
 479:Generated_Source\PSoC4/CapSense_1_Filter.c **** *  CapSense_1_Configuration.h file defined as 
 480:Generated_Source\PSoC4/CapSense_1_Filter.c **** *  CapSense_1_<WidgetName>_WDGT_ID Specifies the ID of the widget.
 481:Generated_Source\PSoC4/CapSense_1_Filter.c **** *  
 482:Generated_Source\PSoC4/CapSense_1_Filter.c **** * \param    sensorId 
 483:Generated_Source\PSoC4/CapSense_1_Filter.c **** *  Specify the ID number of the sensor within the widget to initialize its 
 484:Generated_Source\PSoC4/CapSense_1_Filter.c **** *  baseline.
 485:Generated_Source\PSoC4/CapSense_1_Filter.c **** *  A macro for the sensor ID within a specified widget can be found in the 
 486:Generated_Source\PSoC4/CapSense_1_Filter.c **** *  CapSense_1_Configuration.h file defined as 
 487:Generated_Source\PSoC4/CapSense_1_Filter.c **** *  CapSense_1_<WidgetName>_SNS<SensorNumber>_ID
 488:Generated_Source\PSoC4/CapSense_1_Filter.c **** *
ARM GAS  C:\Users\Jannai\AppData\Local\Temp\cckccs8A.s 			page 11


 489:Generated_Source\PSoC4/CapSense_1_Filter.c **** *******************************************************************************/
 490:Generated_Source\PSoC4/CapSense_1_Filter.c **** void CapSense_1_InitializeSensorBaseline(uint32 widgetId, uint32 sensorId)
 491:Generated_Source\PSoC4/CapSense_1_Filter.c **** {      
 492:Generated_Source\PSoC4/CapSense_1_Filter.c ****     CapSense_1_RAM_SNS_STRUCT *ptrSensor = NULL;    
 493:Generated_Source\PSoC4/CapSense_1_Filter.c ****     CapSense_1_FLASH_WD_STRUCT const *ptrWidget = NULL;
 494:Generated_Source\PSoC4/CapSense_1_Filter.c ****     ptrWidget = &CapSense_1_dsFlash.wdgtArray[widgetId];
 495:Generated_Source\PSoC4/CapSense_1_Filter.c ****     
 496:Generated_Source\PSoC4/CapSense_1_Filter.c ****     /* Find pointer to specified sensor object */     
 497:Generated_Source\PSoC4/CapSense_1_Filter.c ****     ptrSensor = ptrWidget->ptr2SnsRam;
 498:Generated_Source\PSoC4/CapSense_1_Filter.c ****     ptrSensor = &ptrSensor[sensorId];
 499:Generated_Source\PSoC4/CapSense_1_Filter.c ****     
 500:Generated_Source\PSoC4/CapSense_1_Filter.c ****     CapSense_1_FtInitializeBaseline(ptrSensor, (uint32)ptrWidget->wdgtType);      
 501:Generated_Source\PSoC4/CapSense_1_Filter.c **** }
 502:Generated_Source\PSoC4/CapSense_1_Filter.c **** 
 503:Generated_Source\PSoC4/CapSense_1_Filter.c **** 
 504:Generated_Source\PSoC4/CapSense_1_Filter.c **** /*******************************************************************************
 505:Generated_Source\PSoC4/CapSense_1_Filter.c **** * Function Name: CapSense_1_FtInitializeBaseline
 506:Generated_Source\PSoC4/CapSense_1_Filter.c **** ****************************************************************************//**
 507:Generated_Source\PSoC4/CapSense_1_Filter.c **** *
 508:Generated_Source\PSoC4/CapSense_1_Filter.c **** * \brief    Initializes the baseline history for a sensor indicated by an input
 509:Generated_Source\PSoC4/CapSense_1_Filter.c **** *           parameter.
 510:Generated_Source\PSoC4/CapSense_1_Filter.c **** *
 511:Generated_Source\PSoC4/CapSense_1_Filter.c **** * \details  Initializes the baseline history for a sensor indicated by an input
 512:Generated_Source\PSoC4/CapSense_1_Filter.c **** *           parameter.
 513:Generated_Source\PSoC4/CapSense_1_Filter.c **** *
 514:Generated_Source\PSoC4/CapSense_1_Filter.c **** * \param    *ptrSensor The pointer to the sensor RAM object.
 515:Generated_Source\PSoC4/CapSense_1_Filter.c **** * \param    wdType     Specifies the type of a widget.
 516:Generated_Source\PSoC4/CapSense_1_Filter.c **** *
 517:Generated_Source\PSoC4/CapSense_1_Filter.c **** *******************************************************************************/
 518:Generated_Source\PSoC4/CapSense_1_Filter.c **** CY_INLINE void CapSense_1_FtInitializeBaseline(CapSense_1_RAM_SNS_STRUCT *ptrSensor, uint32 wdType)
 519:Generated_Source\PSoC4/CapSense_1_Filter.c **** {
 520:Generated_Source\PSoC4/CapSense_1_Filter.c ****     uint32 channel;
 521:Generated_Source\PSoC4/CapSense_1_Filter.c **** 
 522:Generated_Source\PSoC4/CapSense_1_Filter.c ****     /* Apply baseline initialization to every channel in sensor */    
 523:Generated_Source\PSoC4/CapSense_1_Filter.c ****     for(channel = CapSense_1_NUM_SCAN_FREQS; channel-- > 0u;) 
 524:Generated_Source\PSoC4/CapSense_1_Filter.c ****     {
 525:Generated_Source\PSoC4/CapSense_1_Filter.c ****         CapSense_1_FtInitializeBaselineChannel(ptrSensor, wdType, channel); 
 526:Generated_Source\PSoC4/CapSense_1_Filter.c ****     }
 527:Generated_Source\PSoC4/CapSense_1_Filter.c **** }
 528:Generated_Source\PSoC4/CapSense_1_Filter.c **** 
 529:Generated_Source\PSoC4/CapSense_1_Filter.c **** 
 530:Generated_Source\PSoC4/CapSense_1_Filter.c **** /*******************************************************************************
 531:Generated_Source\PSoC4/CapSense_1_Filter.c **** * Function Name: CapSense_1_FtInitializeBaselineChannel
 532:Generated_Source\PSoC4/CapSense_1_Filter.c **** ****************************************************************************//**
 533:Generated_Source\PSoC4/CapSense_1_Filter.c **** *
 534:Generated_Source\PSoC4/CapSense_1_Filter.c **** * \brief    Initializes the baseline history for a sensor indicated by an input
 535:Generated_Source\PSoC4/CapSense_1_Filter.c **** *           parameter.
 536:Generated_Source\PSoC4/CapSense_1_Filter.c **** *
 537:Generated_Source\PSoC4/CapSense_1_Filter.c **** * \details  Initializes the baseline history for a sensor indicated by an input
 538:Generated_Source\PSoC4/CapSense_1_Filter.c **** *           parameter.
 539:Generated_Source\PSoC4/CapSense_1_Filter.c **** *
 540:Generated_Source\PSoC4/CapSense_1_Filter.c **** * \param    *ptrSensor The pointer to the sensor RAM object.
 541:Generated_Source\PSoC4/CapSense_1_Filter.c **** * \param    wdType     Specifies the type of a widget.
 542:Generated_Source\PSoC4/CapSense_1_Filter.c **** * \param    channel    Specifies the number of the channel to be initialized.
 543:Generated_Source\PSoC4/CapSense_1_Filter.c **** *
 544:Generated_Source\PSoC4/CapSense_1_Filter.c **** *******************************************************************************/
 545:Generated_Source\PSoC4/CapSense_1_Filter.c **** void CapSense_1_FtInitializeBaselineChannel(CapSense_1_RAM_SNS_STRUCT *ptrSensor, uint32 wdType, ui
ARM GAS  C:\Users\Jannai\AppData\Local\Temp\cckccs8A.s 			page 12


 546:Generated_Source\PSoC4/CapSense_1_Filter.c **** {
  81              		.loc 1 546 0
  82              		.cfi_startproc
  83              	.LVL8:
 547:Generated_Source\PSoC4/CapSense_1_Filter.c ****     #if (CapSense_1_BASELINE_TYPE == CapSense_1_IIR_BASELINE)  
 548:Generated_Source\PSoC4/CapSense_1_Filter.c ****         if ((CapSense_1_WD_TYPE_ENUM)wdType != CapSense_1_WD_PROXIMITY_E)
  84              		.loc 1 548 0
  85 0000 C9B2     		uxtb	r1, r1
  86              	.LVL9:
  87 0002 0629     		cmp	r1, #6
  88 0004 02D0     		beq	.L9
 549:Generated_Source\PSoC4/CapSense_1_Filter.c ****         {
 550:Generated_Source\PSoC4/CapSense_1_Filter.c ****             #if (CapSense_1_REGULAR_SENSOR_EN)
 551:Generated_Source\PSoC4/CapSense_1_Filter.c ****                 #if (CapSense_1_REGULAR_IIR_BL_TYPE == CapSense_1_IIR_FILTER_PERFORMANCE)          
 552:Generated_Source\PSoC4/CapSense_1_Filter.c ****                     ptrSensor->bslnExt[channel] = 0u;                
  89              		.loc 1 552 0
  90 0006 8318     		add	r3, r0, r2
  91 0008 0021     		mov	r1, #0
  92 000a 1971     		strb	r1, [r3, #4]
  93              	.L9:
 553:Generated_Source\PSoC4/CapSense_1_Filter.c ****                 #endif /* (CapSense_1_REGULAR_IIR_BL_TYPE == CapSense_1_IIR_FILTER_PERFORMANCE) */
 554:Generated_Source\PSoC4/CapSense_1_Filter.c ****             #endif /* (CapSense_1_REGULAR_SENSOR_EN) */
 555:Generated_Source\PSoC4/CapSense_1_Filter.c ****         }
 556:Generated_Source\PSoC4/CapSense_1_Filter.c ****         else
 557:Generated_Source\PSoC4/CapSense_1_Filter.c ****         {
 558:Generated_Source\PSoC4/CapSense_1_Filter.c ****             #if (CapSense_1_PROXIMITY_SENSOR_EN)     
 559:Generated_Source\PSoC4/CapSense_1_Filter.c ****                 #if (CapSense_1_PROX_IIR_BL_TYPE == CapSense_1_IIR_FILTER_PERFORMANCE)             
 560:Generated_Source\PSoC4/CapSense_1_Filter.c ****                     ptrSensor->bslnExt[channel] = 0u;               
 561:Generated_Source\PSoC4/CapSense_1_Filter.c ****                 #endif /* (CapSense_1_PROX_IIR_BL_TYPE == CapSense_1_IIR_FILTER_PERFORMANCE) */
 562:Generated_Source\PSoC4/CapSense_1_Filter.c ****             #endif /* (CapSense_1_PROX_SENSOR_EN) */
 563:Generated_Source\PSoC4/CapSense_1_Filter.c ****         }
 564:Generated_Source\PSoC4/CapSense_1_Filter.c ****     #else
 565:Generated_Source\PSoC4/CapSense_1_Filter.c ****         /* CapSense_1_BASELINE_TYPE == CapSense_1_BUCKET_BASELINE */        
 566:Generated_Source\PSoC4/CapSense_1_Filter.c ****         ptrSensor->bslnExt[channel] = 0u;        
 567:Generated_Source\PSoC4/CapSense_1_Filter.c ****     #endif /* (CapSense_1_BASELINE_TYPE == CapSense_1_IIR_BASELINE) */      
 568:Generated_Source\PSoC4/CapSense_1_Filter.c ****     
 569:Generated_Source\PSoC4/CapSense_1_Filter.c ****     ptrSensor->bsln[channel] = ptrSensor->raw[channel];
  94              		.loc 1 569 0
  95 000c 5300     		lsl	r3, r2, #1
  96 000e 195A     		ldrh	r1, [r3, r0]
  97 0010 C318     		add	r3, r0, r3
  98 0012 5980     		strh	r1, [r3, #2]
 570:Generated_Source\PSoC4/CapSense_1_Filter.c ****     ptrSensor->negBslnRstCnt[channel] = 0u;
  99              		.loc 1 570 0
 100 0014 8218     		add	r2, r0, r2
 101              	.LVL10:
 102 0016 0023     		mov	r3, #0
 103 0018 1372     		strb	r3, [r2, #8]
 571:Generated_Source\PSoC4/CapSense_1_Filter.c **** }
 104              		.loc 1 571 0
 105              		@ sp needed
 106 001a 7047     		bx	lr
 107              		.cfi_endproc
 108              	.LFE11:
 109              		.size	CapSense_1_FtInitializeBaselineChannel, .-CapSense_1_FtInitializeBaselineChannel
 110              		.section	.text.CapSense_1_FtInitializeBaseline,"ax",%progbits
 111              		.align	2
ARM GAS  C:\Users\Jannai\AppData\Local\Temp\cckccs8A.s 			page 13


 112              		.global	CapSense_1_FtInitializeBaseline
 113              		.code	16
 114              		.thumb_func
 115              		.type	CapSense_1_FtInitializeBaseline, %function
 116              	CapSense_1_FtInitializeBaseline:
 117              	.LFB10:
 519:Generated_Source\PSoC4/CapSense_1_Filter.c ****     uint32 channel;
 118              		.loc 1 519 0
 119              		.cfi_startproc
 120              	.LVL11:
 121 0000 70B5     		push	{r4, r5, r6, lr}
 122              		.cfi_def_cfa_offset 16
 123              		.cfi_offset 4, -16
 124              		.cfi_offset 5, -12
 125              		.cfi_offset 6, -8
 126              		.cfi_offset 14, -4
 127 0002 061C     		mov	r6, r0
 128 0004 0D1C     		mov	r5, r1
 129              	.LVL12:
 523:Generated_Source\PSoC4/CapSense_1_Filter.c ****     {
 130              		.loc 1 523 0
 131 0006 0123     		mov	r3, #1
 132 0008 05E0     		b	.L11
 133              	.LVL13:
 134              	.L12:
 525:Generated_Source\PSoC4/CapSense_1_Filter.c ****     }
 135              		.loc 1 525 0
 136 000a 301C     		mov	r0, r6
 137 000c 291C     		mov	r1, r5
 138 000e 221C     		mov	r2, r4
 139 0010 FFF7FEFF 		bl	CapSense_1_FtInitializeBaselineChannel
 140              	.LVL14:
 523:Generated_Source\PSoC4/CapSense_1_Filter.c ****     {
 141              		.loc 1 523 0
 142 0014 231C     		mov	r3, r4
 143              	.LVL15:
 144              	.L11:
 523:Generated_Source\PSoC4/CapSense_1_Filter.c ****     {
 145              		.loc 1 523 0 is_stmt 0 discriminator 1
 146 0016 5C1E     		sub	r4, r3, #1
 147              	.LVL16:
 148 0018 002B     		cmp	r3, #0
 149 001a F6D1     		bne	.L12
 527:Generated_Source\PSoC4/CapSense_1_Filter.c **** 
 150              		.loc 1 527 0 is_stmt 1
 151              		@ sp needed
 152              	.LVL17:
 153              	.LVL18:
 154              	.LVL19:
 155 001c 70BD     		pop	{r4, r5, r6, pc}
 156              		.cfi_endproc
 157              	.LFE10:
 158              		.size	CapSense_1_FtInitializeBaseline, .-CapSense_1_FtInitializeBaseline
 159 001e C046     		.section	.text.CapSense_1_InitializeSensorBaseline,"ax",%progbits
 160              		.align	2
 161              		.global	CapSense_1_InitializeSensorBaseline
 162              		.code	16
ARM GAS  C:\Users\Jannai\AppData\Local\Temp\cckccs8A.s 			page 14


 163              		.thumb_func
 164              		.type	CapSense_1_InitializeSensorBaseline, %function
 165              	CapSense_1_InitializeSensorBaseline:
 166              	.LFB9:
 491:Generated_Source\PSoC4/CapSense_1_Filter.c ****     CapSense_1_RAM_SNS_STRUCT *ptrSensor = NULL;    
 167              		.loc 1 491 0
 168              		.cfi_startproc
 169              	.LVL20:
 170 0000 70B5     		push	{r4, r5, r6, lr}
 171              		.cfi_def_cfa_offset 16
 172              		.cfi_offset 4, -16
 173              		.cfi_offset 5, -12
 174              		.cfi_offset 6, -8
 175              		.cfi_offset 14, -4
 176              	.LVL21:
 497:Generated_Source\PSoC4/CapSense_1_Filter.c ****     ptrSensor = &ptrSensor[sensorId];
 177              		.loc 1 497 0
 178 0002 0D4D     		ldr	r5, .L16
 179 0004 C300     		lsl	r3, r0, #3
 180 0006 1A1A     		sub	r2, r3, r0
 181 0008 9200     		lsl	r2, r2, #2
 182 000a AA18     		add	r2, r5, r2
 183 000c 9468     		ldr	r4, [r2, #8]
 184              	.LVL22:
 498:Generated_Source\PSoC4/CapSense_1_Filter.c ****     
 185              		.loc 1 498 0
 186 000e 8A00     		lsl	r2, r1, #2
 187 0010 5118     		add	r1, r2, r1
 188              	.LVL23:
 189 0012 4900     		lsl	r1, r1, #1
 190 0014 6418     		add	r4, r4, r1
 191              	.LVL24:
 500:Generated_Source\PSoC4/CapSense_1_Filter.c **** }
 192              		.loc 1 500 0
 193 0016 181A     		sub	r0, r3, r0
 194              	.LVL25:
 195 0018 8000     		lsl	r0, r0, #2
 196 001a 2818     		add	r0, r5, r0
 197 001c 067E     		ldrb	r6, [r0, #24]
 198              	.LVL26:
 199              	.LBB4:
 200              	.LBB5:
 523:Generated_Source\PSoC4/CapSense_1_Filter.c ****     {
 201              		.loc 1 523 0
 202 001e 0123     		mov	r3, #1
 203 0020 05E0     		b	.L14
 204              	.LVL27:
 205              	.L15:
 525:Generated_Source\PSoC4/CapSense_1_Filter.c ****     }
 206              		.loc 1 525 0
 207 0022 201C     		mov	r0, r4
 208 0024 311C     		mov	r1, r6
 209 0026 2A1C     		mov	r2, r5
 210 0028 FFF7FEFF 		bl	CapSense_1_FtInitializeBaselineChannel
 211              	.LVL28:
 523:Generated_Source\PSoC4/CapSense_1_Filter.c ****     {
 212              		.loc 1 523 0
ARM GAS  C:\Users\Jannai\AppData\Local\Temp\cckccs8A.s 			page 15


 213 002c 2B1C     		mov	r3, r5
 214              	.LVL29:
 215              	.L14:
 216 002e 5D1E     		sub	r5, r3, #1
 217              	.LVL30:
 218 0030 002B     		cmp	r3, #0
 219 0032 F6D1     		bne	.L15
 220              	.LBE5:
 221              	.LBE4:
 501:Generated_Source\PSoC4/CapSense_1_Filter.c **** 
 222              		.loc 1 501 0
 223              		@ sp needed
 224              	.LVL31:
 225              	.LVL32:
 226              	.LVL33:
 227 0034 70BD     		pop	{r4, r5, r6, pc}
 228              	.L17:
 229 0036 C046     		.align	2
 230              	.L16:
 231 0038 00000000 		.word	CapSense_1_dsFlash
 232              		.cfi_endproc
 233              	.LFE9:
 234              		.size	CapSense_1_InitializeSensorBaseline, .-CapSense_1_InitializeSensorBaseline
 235              		.section	.text.CapSense_1_InitializeWidgetBaseline,"ax",%progbits
 236              		.align	2
 237              		.global	CapSense_1_InitializeWidgetBaseline
 238              		.code	16
 239              		.thumb_func
 240              		.type	CapSense_1_InitializeWidgetBaseline, %function
 241              	CapSense_1_InitializeWidgetBaseline:
 242              	.LFB8:
 447:Generated_Source\PSoC4/CapSense_1_Filter.c ****     uint32 sensorId;
 243              		.loc 1 447 0
 244              		.cfi_startproc
 245              	.LVL34:
 246 0000 38B5     		push	{r3, r4, r5, lr}
 247              		.cfi_def_cfa_offset 16
 248              		.cfi_offset 3, -16
 249              		.cfi_offset 4, -12
 250              		.cfi_offset 5, -8
 251              		.cfi_offset 14, -4
 252 0002 051C     		mov	r5, r0
 253              	.LVL35:
 454:Generated_Source\PSoC4/CapSense_1_Filter.c ****     
 254              		.loc 1 454 0
 255 0004 C300     		lsl	r3, r0, #3
 256 0006 1B1A     		sub	r3, r3, r0
 257 0008 9B00     		lsl	r3, r3, #2
 258 000a 064A     		ldr	r2, .L21
 259 000c D318     		add	r3, r2, r3
 260 000e DB8A     		ldrh	r3, [r3, #22]
 261              	.LVL36:
 456:Generated_Source\PSoC4/CapSense_1_Filter.c ****     {
 262              		.loc 1 456 0
 263 0010 04E0     		b	.L19
 264              	.LVL37:
 265              	.L20:
ARM GAS  C:\Users\Jannai\AppData\Local\Temp\cckccs8A.s 			page 16


 458:Generated_Source\PSoC4/CapSense_1_Filter.c ****     }
 266              		.loc 1 458 0
 267 0012 281C     		mov	r0, r5
 268 0014 211C     		mov	r1, r4
 269 0016 FFF7FEFF 		bl	CapSense_1_InitializeSensorBaseline
 270              	.LVL38:
 456:Generated_Source\PSoC4/CapSense_1_Filter.c ****     {
 271              		.loc 1 456 0
 272 001a 231C     		mov	r3, r4
 273              	.LVL39:
 274              	.L19:
 456:Generated_Source\PSoC4/CapSense_1_Filter.c ****     {
 275              		.loc 1 456 0 is_stmt 0 discriminator 1
 276 001c 5C1E     		sub	r4, r3, #1
 277              	.LVL40:
 278 001e 002B     		cmp	r3, #0
 279 0020 F7D1     		bne	.L20
 460:Generated_Source\PSoC4/CapSense_1_Filter.c **** 
 280              		.loc 1 460 0 is_stmt 1
 281              		@ sp needed
 282              	.LVL41:
 283              	.LVL42:
 284 0022 38BD     		pop	{r3, r4, r5, pc}
 285              	.L22:
 286              		.align	2
 287              	.L21:
 288 0024 00000000 		.word	CapSense_1_dsFlash
 289              		.cfi_endproc
 290              	.LFE8:
 291              		.size	CapSense_1_InitializeWidgetBaseline, .-CapSense_1_InitializeWidgetBaseline
 292              		.section	.text.CapSense_1_InitializeAllBaselines,"ax",%progbits
 293              		.align	2
 294              		.global	CapSense_1_InitializeAllBaselines
 295              		.code	16
 296              		.thumb_func
 297              		.type	CapSense_1_InitializeAllBaselines, %function
 298              	CapSense_1_InitializeAllBaselines:
 299              	.LFB7:
 416:Generated_Source\PSoC4/CapSense_1_Filter.c ****     uint32 widgetId;    
 300              		.loc 1 416 0
 301              		.cfi_startproc
 302 0000 10B5     		push	{r4, lr}
 303              		.cfi_def_cfa_offset 8
 304              		.cfi_offset 4, -8
 305              		.cfi_offset 14, -4
 306              	.LVL43:
 419:Generated_Source\PSoC4/CapSense_1_Filter.c ****     {
 307              		.loc 1 419 0
 308 0002 0123     		mov	r3, #1
 309 0004 03E0     		b	.L24
 310              	.LVL44:
 311              	.L25:
 421:Generated_Source\PSoC4/CapSense_1_Filter.c ****     }
 312              		.loc 1 421 0
 313 0006 201C     		mov	r0, r4
 314 0008 FFF7FEFF 		bl	CapSense_1_InitializeWidgetBaseline
 315              	.LVL45:
ARM GAS  C:\Users\Jannai\AppData\Local\Temp\cckccs8A.s 			page 17


 419:Generated_Source\PSoC4/CapSense_1_Filter.c ****     {
 316              		.loc 1 419 0
 317 000c 231C     		mov	r3, r4
 318              	.LVL46:
 319              	.L24:
 419:Generated_Source\PSoC4/CapSense_1_Filter.c ****     {
 320              		.loc 1 419 0 is_stmt 0 discriminator 1
 321 000e 5C1E     		sub	r4, r3, #1
 322              	.LVL47:
 323 0010 002B     		cmp	r3, #0
 324 0012 F8D1     		bne	.L25
 423:Generated_Source\PSoC4/CapSense_1_Filter.c **** 
 325              		.loc 1 423 0 is_stmt 1
 326              		@ sp needed
 327              	.LVL48:
 328 0014 10BD     		pop	{r4, pc}
 329              		.cfi_endproc
 330              	.LFE7:
 331              		.size	CapSense_1_InitializeAllBaselines, .-CapSense_1_InitializeAllBaselines
 332 0016 C046     		.section	.text.CapSense_1_FtIIR1stOrder,"ax",%progbits
 333              		.align	2
 334              		.global	CapSense_1_FtIIR1stOrder
 335              		.code	16
 336              		.thumb_func
 337              		.type	CapSense_1_FtIIR1stOrder, %function
 338              	CapSense_1_FtIIR1stOrder:
 339              	.LFB12:
 572:Generated_Source\PSoC4/CapSense_1_Filter.c **** 
 573:Generated_Source\PSoC4/CapSense_1_Filter.c **** 
 574:Generated_Source\PSoC4/CapSense_1_Filter.c **** #if (CapSense_1_REGULAR_RC_IIR_FILTER_EN || CapSense_1_PROX_RC_IIR_FILTER_EN)
 575:Generated_Source\PSoC4/CapSense_1_Filter.c **** 
 576:Generated_Source\PSoC4/CapSense_1_Filter.c **** /*******************************************************************************
 577:Generated_Source\PSoC4/CapSense_1_Filter.c **** * Function Name: CapSense_1_InitializeIIR
 578:Generated_Source\PSoC4/CapSense_1_Filter.c **** ****************************************************************************//**
 579:Generated_Source\PSoC4/CapSense_1_Filter.c **** *
 580:Generated_Source\PSoC4/CapSense_1_Filter.c **** * \brief    Initialize the IIR filter history.
 581:Generated_Source\PSoC4/CapSense_1_Filter.c **** *
 582:Generated_Source\PSoC4/CapSense_1_Filter.c **** * \details  Initialize the IIR filter history.
 583:Generated_Source\PSoC4/CapSense_1_Filter.c **** *
 584:Generated_Source\PSoC4/CapSense_1_Filter.c **** * \param    widgetId Specifies the ID number of the widget.
 585:Generated_Source\PSoC4/CapSense_1_Filter.c **** * \param    sensorId Specifies the ID number of the sensor in the widget.
 586:Generated_Source\PSoC4/CapSense_1_Filter.c **** *
 587:Generated_Source\PSoC4/CapSense_1_Filter.c **** *******************************************************************************/
 588:Generated_Source\PSoC4/CapSense_1_Filter.c **** void CapSense_1_InitializeIIR(uint32 widgetId, uint32 sensorId)
 589:Generated_Source\PSoC4/CapSense_1_Filter.c **** {   
 590:Generated_Source\PSoC4/CapSense_1_Filter.c ****     CapSense_1_FLASH_WD_STRUCT const *ptrWidget = &CapSense_1_dsFlash.wdgtArray[widgetId];      
 591:Generated_Source\PSoC4/CapSense_1_Filter.c ****     CapSense_1_RAM_SNS_STRUCT *ptrSensor = NULL;    
 592:Generated_Source\PSoC4/CapSense_1_Filter.c ****     CapSense_1_PTR_FILTER_VARIANT ptrFilterHistObj; 
 593:Generated_Source\PSoC4/CapSense_1_Filter.c ****               
 594:Generated_Source\PSoC4/CapSense_1_Filter.c ****     /* Find pointer to specified sensor object */     
 595:Generated_Source\PSoC4/CapSense_1_Filter.c ****     ptrSensor = ptrWidget->ptr2SnsRam;
 596:Generated_Source\PSoC4/CapSense_1_Filter.c ****     ptrSensor = &ptrSensor[sensorId];
 597:Generated_Source\PSoC4/CapSense_1_Filter.c ****         
 598:Generated_Source\PSoC4/CapSense_1_Filter.c ****     /* Find pointer to specified filter sensor object */     
 599:Generated_Source\PSoC4/CapSense_1_Filter.c ****     ptrFilterHistObj.ptr = ptrWidget->ptr2FltrHistory;
 600:Generated_Source\PSoC4/CapSense_1_Filter.c ****     
 601:Generated_Source\PSoC4/CapSense_1_Filter.c ****     if ((CapSense_1_WD_TYPE_ENUM)ptrWidget->wdgtType != CapSense_1_WD_PROXIMITY_E)
ARM GAS  C:\Users\Jannai\AppData\Local\Temp\cckccs8A.s 			page 18


 602:Generated_Source\PSoC4/CapSense_1_Filter.c ****     {
 603:Generated_Source\PSoC4/CapSense_1_Filter.c ****         #if (CapSense_1_REGULAR_SENSOR_EN)
 604:Generated_Source\PSoC4/CapSense_1_Filter.c ****             ptrFilterHistObj.ptrRegular = &ptrFilterHistObj.ptrRegular[sensorId];
 605:Generated_Source\PSoC4/CapSense_1_Filter.c ****         #endif /* (CapSense_1_REGULAR_SENSOR_EN) */
 606:Generated_Source\PSoC4/CapSense_1_Filter.c ****     }
 607:Generated_Source\PSoC4/CapSense_1_Filter.c ****     else
 608:Generated_Source\PSoC4/CapSense_1_Filter.c ****     {
 609:Generated_Source\PSoC4/CapSense_1_Filter.c ****         #if (CapSense_1_PROXIMITY_SENSOR_EN)
 610:Generated_Source\PSoC4/CapSense_1_Filter.c ****             ptrFilterHistObj.ptrProx = &ptrFilterHistObj.ptrProx[sensorId];
 611:Generated_Source\PSoC4/CapSense_1_Filter.c ****         #endif /* (CapSense_1_PROXIMITY_SENSOR_EN) */
 612:Generated_Source\PSoC4/CapSense_1_Filter.c ****     }    
 613:Generated_Source\PSoC4/CapSense_1_Filter.c ****     
 614:Generated_Source\PSoC4/CapSense_1_Filter.c ****     CapSense_1_InitializeIIRInternal(ptrFilterHistObj, ptrSensor, (uint32)ptrWidget->wdgtType);
 615:Generated_Source\PSoC4/CapSense_1_Filter.c **** }
 616:Generated_Source\PSoC4/CapSense_1_Filter.c **** 
 617:Generated_Source\PSoC4/CapSense_1_Filter.c **** 
 618:Generated_Source\PSoC4/CapSense_1_Filter.c **** /*******************************************************************************
 619:Generated_Source\PSoC4/CapSense_1_Filter.c **** * Function Name: CapSense_1_RunIIR
 620:Generated_Source\PSoC4/CapSense_1_Filter.c **** ****************************************************************************//**
 621:Generated_Source\PSoC4/CapSense_1_Filter.c **** *
 622:Generated_Source\PSoC4/CapSense_1_Filter.c **** * \brief    Executes the IIR filter algorithm on a sensor indicated by an input
 623:Generated_Source\PSoC4/CapSense_1_Filter.c **** *           parameter. 
 624:Generated_Source\PSoC4/CapSense_1_Filter.c **** *
 625:Generated_Source\PSoC4/CapSense_1_Filter.c **** * \details  Executes the IIR filter algorithm on a sensor indicated by an input
 626:Generated_Source\PSoC4/CapSense_1_Filter.c **** *           parameter. 
 627:Generated_Source\PSoC4/CapSense_1_Filter.c **** *
 628:Generated_Source\PSoC4/CapSense_1_Filter.c **** * \param    widgetId Specifies the ID number of the widget.
 629:Generated_Source\PSoC4/CapSense_1_Filter.c **** * \param    sensorId Specifies the ID number of the sensor in the widget.
 630:Generated_Source\PSoC4/CapSense_1_Filter.c **** *
 631:Generated_Source\PSoC4/CapSense_1_Filter.c **** *******************************************************************************/
 632:Generated_Source\PSoC4/CapSense_1_Filter.c **** void CapSense_1_RunIIR(uint32 widgetId, uint32 sensorId)
 633:Generated_Source\PSoC4/CapSense_1_Filter.c **** {
 634:Generated_Source\PSoC4/CapSense_1_Filter.c ****     CapSense_1_FLASH_WD_STRUCT const *ptrWidget = &CapSense_1_dsFlash.wdgtArray[widgetId];      
 635:Generated_Source\PSoC4/CapSense_1_Filter.c ****     CapSense_1_RAM_SNS_STRUCT *ptrSensor = NULL;    
 636:Generated_Source\PSoC4/CapSense_1_Filter.c ****     CapSense_1_PTR_FILTER_VARIANT ptrFilterHistObj; 
 637:Generated_Source\PSoC4/CapSense_1_Filter.c ****               
 638:Generated_Source\PSoC4/CapSense_1_Filter.c ****     /* Find pointer to specified sensor object */     
 639:Generated_Source\PSoC4/CapSense_1_Filter.c ****     ptrSensor = ptrWidget->ptr2SnsRam;
 640:Generated_Source\PSoC4/CapSense_1_Filter.c ****     ptrSensor = &ptrSensor[sensorId];
 641:Generated_Source\PSoC4/CapSense_1_Filter.c ****         
 642:Generated_Source\PSoC4/CapSense_1_Filter.c ****     /* Find pointer to specified filter sensor object */     
 643:Generated_Source\PSoC4/CapSense_1_Filter.c ****     ptrFilterHistObj.ptr = ptrWidget->ptr2FltrHistory;
 644:Generated_Source\PSoC4/CapSense_1_Filter.c ****     
 645:Generated_Source\PSoC4/CapSense_1_Filter.c ****     if ((CapSense_1_WD_TYPE_ENUM)ptrWidget->wdgtType != CapSense_1_WD_PROXIMITY_E)
 646:Generated_Source\PSoC4/CapSense_1_Filter.c ****     {
 647:Generated_Source\PSoC4/CapSense_1_Filter.c ****         #if (CapSense_1_REGULAR_SENSOR_EN)
 648:Generated_Source\PSoC4/CapSense_1_Filter.c ****             ptrFilterHistObj.ptrRegular = &ptrFilterHistObj.ptrRegular[sensorId];
 649:Generated_Source\PSoC4/CapSense_1_Filter.c ****         #endif /* (CapSense_1_REGULAR_SENSOR_EN) */
 650:Generated_Source\PSoC4/CapSense_1_Filter.c ****     }
 651:Generated_Source\PSoC4/CapSense_1_Filter.c ****     else
 652:Generated_Source\PSoC4/CapSense_1_Filter.c ****     {
 653:Generated_Source\PSoC4/CapSense_1_Filter.c ****         #if (CapSense_1_PROXIMITY_SENSOR_EN)
 654:Generated_Source\PSoC4/CapSense_1_Filter.c ****             ptrFilterHistObj.ptrProx = &ptrFilterHistObj.ptrProx[sensorId];
 655:Generated_Source\PSoC4/CapSense_1_Filter.c ****         #endif /* (CapSense_1_PROXIMITY_SENSOR_EN) */
 656:Generated_Source\PSoC4/CapSense_1_Filter.c ****     }    
 657:Generated_Source\PSoC4/CapSense_1_Filter.c ****     
 658:Generated_Source\PSoC4/CapSense_1_Filter.c ****     CapSense_1_RunIIRInternal(ptrFilterHistObj, ptrSensor, (uint32)ptrWidget->wdgtType);
ARM GAS  C:\Users\Jannai\AppData\Local\Temp\cckccs8A.s 			page 19


 659:Generated_Source\PSoC4/CapSense_1_Filter.c **** }
 660:Generated_Source\PSoC4/CapSense_1_Filter.c ****     
 661:Generated_Source\PSoC4/CapSense_1_Filter.c **** /*******************************************************************************
 662:Generated_Source\PSoC4/CapSense_1_Filter.c **** * Function Name: CapSense_1_InitializeIIRInternal
 663:Generated_Source\PSoC4/CapSense_1_Filter.c **** ****************************************************************************//**
 664:Generated_Source\PSoC4/CapSense_1_Filter.c **** *
 665:Generated_Source\PSoC4/CapSense_1_Filter.c **** * \brief    Initializes the IIR filter history.
 666:Generated_Source\PSoC4/CapSense_1_Filter.c **** *
 667:Generated_Source\PSoC4/CapSense_1_Filter.c **** * \details  Initializes the IIR filter history.
 668:Generated_Source\PSoC4/CapSense_1_Filter.c **** *
 669:Generated_Source\PSoC4/CapSense_1_Filter.c **** * \param    ptrFilterHistObj The pointer to the filter RAM object of the sensor.
 670:Generated_Source\PSoC4/CapSense_1_Filter.c **** * \param    ptrSensorObj     The pointer to the sensor RAM object of the sensor.
 671:Generated_Source\PSoC4/CapSense_1_Filter.c **** * \param    wdType           Specifies the type of a widget.                                  
 672:Generated_Source\PSoC4/CapSense_1_Filter.c **** *
 673:Generated_Source\PSoC4/CapSense_1_Filter.c **** *******************************************************************************/
 674:Generated_Source\PSoC4/CapSense_1_Filter.c **** void CapSense_1_InitializeIIRInternal(CapSense_1_PTR_FILTER_VARIANT ptrFilterHistObj,
 675:Generated_Source\PSoC4/CapSense_1_Filter.c ****                                             CapSense_1_RAM_SNS_STRUCT *ptrSensorObj, uint32 wdType)
 676:Generated_Source\PSoC4/CapSense_1_Filter.c **** {
 677:Generated_Source\PSoC4/CapSense_1_Filter.c ****     uint32 channel;
 678:Generated_Source\PSoC4/CapSense_1_Filter.c **** 
 679:Generated_Source\PSoC4/CapSense_1_Filter.c ****     for(channel = CapSense_1_NUM_SCAN_FREQS; channel-- > 0u;)
 680:Generated_Source\PSoC4/CapSense_1_Filter.c ****     {
 681:Generated_Source\PSoC4/CapSense_1_Filter.c ****         if ((CapSense_1_WD_TYPE_ENUM)wdType != CapSense_1_WD_PROXIMITY_E)
 682:Generated_Source\PSoC4/CapSense_1_Filter.c ****         {
 683:Generated_Source\PSoC4/CapSense_1_Filter.c ****             #if (CapSense_1_REGULAR_SENSOR_EN && CapSense_1_REGULAR_RC_IIR_FILTER_EN)
 684:Generated_Source\PSoC4/CapSense_1_Filter.c ****                 #if (CapSense_1_REGULAR_IIR_RC_TYPE == CapSense_1_IIR_FILTER_PERFORMANCE)
 685:Generated_Source\PSoC4/CapSense_1_Filter.c ****                     ptrFilterHistObj.ptrRegular->regularChannel[channel].iirHistory = ptrSensorObj-
 686:Generated_Source\PSoC4/CapSense_1_Filter.c ****                     ptrFilterHistObj.ptrRegular->regularChannel[channel].iirHistoryLow = 0u;
 687:Generated_Source\PSoC4/CapSense_1_Filter.c ****                 #else
 688:Generated_Source\PSoC4/CapSense_1_Filter.c ****                     ptrFilterHistObj.ptrRegular->regularChannel[channel].iirHistory = ptrSensorObj-
 689:Generated_Source\PSoC4/CapSense_1_Filter.c ****                 #endif /* (CapSense_1_REGULAR_IIR_RC_TYPE == CapSense_1_IIR_FILTER_PERFORMANCE) */
 690:Generated_Source\PSoC4/CapSense_1_Filter.c ****             #endif /* (CapSense_1_REGULAR_SENSOR_EN) */    
 691:Generated_Source\PSoC4/CapSense_1_Filter.c ****         }
 692:Generated_Source\PSoC4/CapSense_1_Filter.c ****         else
 693:Generated_Source\PSoC4/CapSense_1_Filter.c ****         {
 694:Generated_Source\PSoC4/CapSense_1_Filter.c ****             #if (CapSense_1_PROXIMITY_SENSOR_EN && CapSense_1_PROX_RC_IIR_FILTER_EN)
 695:Generated_Source\PSoC4/CapSense_1_Filter.c ****                 #if (CapSense_1_PROX_IIR_RC_TYPE == CapSense_1_IIR_FILTER_PERFORMANCE)
 696:Generated_Source\PSoC4/CapSense_1_Filter.c ****                     ptrFilterHistObj.ptrProx->proxChannel[channel].iirHistory = ptrSensorObj->raw[c
 697:Generated_Source\PSoC4/CapSense_1_Filter.c ****                     ptrFilterHistObj.ptrProx->proxChannel[channel].iirHistoryLow = 0u;    
 698:Generated_Source\PSoC4/CapSense_1_Filter.c ****                 #else
 699:Generated_Source\PSoC4/CapSense_1_Filter.c ****                     ptrFilterHistObj.ptrProx->proxChannel[channel].iirHistory = ptrSensorObj->raw[c
 700:Generated_Source\PSoC4/CapSense_1_Filter.c ****                 #endif /* (CapSense_1_PROX_IIR_RC_TYPE == CapSense_1_IIR_FILTER_PERFORMANCE) */
 701:Generated_Source\PSoC4/CapSense_1_Filter.c ****             #endif /* (CapSense_1_PROX_SENSOR_EN) */
 702:Generated_Source\PSoC4/CapSense_1_Filter.c ****         }    
 703:Generated_Source\PSoC4/CapSense_1_Filter.c ****     }    
 704:Generated_Source\PSoC4/CapSense_1_Filter.c **** }
 705:Generated_Source\PSoC4/CapSense_1_Filter.c ****  
 706:Generated_Source\PSoC4/CapSense_1_Filter.c **** 
 707:Generated_Source\PSoC4/CapSense_1_Filter.c **** /*******************************************************************************
 708:Generated_Source\PSoC4/CapSense_1_Filter.c **** * Function Name: CapSense_1_RunIIRInternal
 709:Generated_Source\PSoC4/CapSense_1_Filter.c **** ****************************************************************************//**
 710:Generated_Source\PSoC4/CapSense_1_Filter.c **** *
 711:Generated_Source\PSoC4/CapSense_1_Filter.c **** * \brief    Run the IIR filter.
 712:Generated_Source\PSoC4/CapSense_1_Filter.c **** *
 713:Generated_Source\PSoC4/CapSense_1_Filter.c **** * \details  Run the IIR filter.
 714:Generated_Source\PSoC4/CapSense_1_Filter.c **** *
 715:Generated_Source\PSoC4/CapSense_1_Filter.c **** * \param    ptrFilterHistObj The pointer to the filter RAM object of the sensor.
ARM GAS  C:\Users\Jannai\AppData\Local\Temp\cckccs8A.s 			page 20


 716:Generated_Source\PSoC4/CapSense_1_Filter.c **** * \param    ptrSensorObj     The pointer to the sensor RAM object of the sensor.
 717:Generated_Source\PSoC4/CapSense_1_Filter.c **** * \param    wdType           Specifies the type of a widget.
 718:Generated_Source\PSoC4/CapSense_1_Filter.c **** *
 719:Generated_Source\PSoC4/CapSense_1_Filter.c **** *******************************************************************************/    
 720:Generated_Source\PSoC4/CapSense_1_Filter.c **** void CapSense_1_RunIIRInternal(CapSense_1_PTR_FILTER_VARIANT ptrFilterHistObj, 
 721:Generated_Source\PSoC4/CapSense_1_Filter.c ****                                      CapSense_1_RAM_SNS_STRUCT *ptrSensorObj, uint32 wdType)
 722:Generated_Source\PSoC4/CapSense_1_Filter.c **** {        
 723:Generated_Source\PSoC4/CapSense_1_Filter.c ****     uint32 channel;
 724:Generated_Source\PSoC4/CapSense_1_Filter.c ****     uint32 temp;
 725:Generated_Source\PSoC4/CapSense_1_Filter.c **** 
 726:Generated_Source\PSoC4/CapSense_1_Filter.c ****     for(channel = CapSense_1_NUM_SCAN_FREQS; channel-- > 0u;)
 727:Generated_Source\PSoC4/CapSense_1_Filter.c ****     {
 728:Generated_Source\PSoC4/CapSense_1_Filter.c ****         if ((CapSense_1_WD_TYPE_ENUM)wdType != CapSense_1_WD_PROXIMITY_E)
 729:Generated_Source\PSoC4/CapSense_1_Filter.c ****         {
 730:Generated_Source\PSoC4/CapSense_1_Filter.c ****             #if (CapSense_1_REGULAR_SENSOR_EN && CapSense_1_REGULAR_RC_IIR_FILTER_EN)
 731:Generated_Source\PSoC4/CapSense_1_Filter.c ****                 #if (CapSense_1_REGULAR_IIR_RC_TYPE == CapSense_1_IIR_FILTER_PERFORMANCE)
 732:Generated_Source\PSoC4/CapSense_1_Filter.c ****                     temp =  ptrFilterHistObj.ptrRegular->regularChannel[channel].iirHistory << CapS
 733:Generated_Source\PSoC4/CapSense_1_Filter.c ****                     temp |= ptrFilterHistObj.ptrRegular->regularChannel[channel].iirHistoryLow;
 734:Generated_Source\PSoC4/CapSense_1_Filter.c ****                     temp =CapSense_1_FtIIR1stOrder((uint32)ptrSensorObj->raw[channel],
 735:Generated_Source\PSoC4/CapSense_1_Filter.c ****                                                         temp,
 736:Generated_Source\PSoC4/CapSense_1_Filter.c ****                                                         CapSense_1_REGULAR_IIR_RC_N,
 737:Generated_Source\PSoC4/CapSense_1_Filter.c ****                                                         CapSense_1_REGULAR_IIR_RC_SHIFT);
 738:Generated_Source\PSoC4/CapSense_1_Filter.c ****                     ptrFilterHistObj.ptrRegular->regularChannel[channel].iirHistory = LO16(temp >>C
 739:Generated_Source\PSoC4/CapSense_1_Filter.c ****                     ptrFilterHistObj.ptrRegular->regularChannel[channel].iirHistoryLow = LO8(temp);
 740:Generated_Source\PSoC4/CapSense_1_Filter.c ****                     ptrSensorObj->raw[channel] = LO16(temp >>CapSense_1_REGULAR_IIR_RC_SHIFT);
 741:Generated_Source\PSoC4/CapSense_1_Filter.c ****                 #else
 742:Generated_Source\PSoC4/CapSense_1_Filter.c ****                     temp =CapSense_1_FtIIR1stOrder((uint32)ptrSensorObj->raw[channel],
 743:Generated_Source\PSoC4/CapSense_1_Filter.c ****                                                         (uint32)ptrFilterHistObj.ptrRegular->regula
 744:Generated_Source\PSoC4/CapSense_1_Filter.c ****                                                         CapSense_1_REGULAR_IIR_RC_N,
 745:Generated_Source\PSoC4/CapSense_1_Filter.c ****                                                         CapSense_1_REGULAR_IIR_RC_SHIFT);
 746:Generated_Source\PSoC4/CapSense_1_Filter.c ****                     ptrFilterHistObj.ptrRegular->regularChannel[channel].iirHistory = LO16(temp);
 747:Generated_Source\PSoC4/CapSense_1_Filter.c ****                     ptrSensorObj->raw[channel] = LO16(temp >>CapSense_1_REGULAR_IIR_RC_SHIFT);
 748:Generated_Source\PSoC4/CapSense_1_Filter.c ****                 #endif /* (CapSense_1_REGULAR_IIR_RC_TYPE == CapSense_1_IIR_FILTER_PERFORMANCE) */
 749:Generated_Source\PSoC4/CapSense_1_Filter.c ****             #endif /* (CapSense_1_REGULAR_SENSOR_EN) */    
 750:Generated_Source\PSoC4/CapSense_1_Filter.c ****         }
 751:Generated_Source\PSoC4/CapSense_1_Filter.c ****         else
 752:Generated_Source\PSoC4/CapSense_1_Filter.c ****         {
 753:Generated_Source\PSoC4/CapSense_1_Filter.c ****             #if (CapSense_1_PROXIMITY_SENSOR_EN && CapSense_1_PROX_RC_IIR_FILTER_EN)
 754:Generated_Source\PSoC4/CapSense_1_Filter.c ****                 #if (CapSense_1_PROX_IIR_RC_TYPE == CapSense_1_IIR_FILTER_PERFORMANCE)
 755:Generated_Source\PSoC4/CapSense_1_Filter.c ****                     temp =  ptrFilterHistObj.ptrProx->proxChannel[channel].iirHistory << CapSense_1
 756:Generated_Source\PSoC4/CapSense_1_Filter.c ****                     temp |= ptrFilterHistObj.ptrProx->proxChannel[channel].iirHistoryLow;
 757:Generated_Source\PSoC4/CapSense_1_Filter.c ****                     temp =CapSense_1_FtIIR1stOrder((uint32)ptrSensorObj->raw[channel],
 758:Generated_Source\PSoC4/CapSense_1_Filter.c ****                                                         temp,
 759:Generated_Source\PSoC4/CapSense_1_Filter.c ****                                                         CapSense_1_PROX_IIR_RC_N,
 760:Generated_Source\PSoC4/CapSense_1_Filter.c ****                                                         CapSense_1_PROX_IIR_RC_SHIFT);
 761:Generated_Source\PSoC4/CapSense_1_Filter.c ****                     ptrFilterHistObj.ptrProx->proxChannel[channel].iirHistory = LO16(temp >>CapSens
 762:Generated_Source\PSoC4/CapSense_1_Filter.c ****                     ptrFilterHistObj.ptrProx->proxChannel[channel].iirHistoryLow = LO8(temp);
 763:Generated_Source\PSoC4/CapSense_1_Filter.c ****                     ptrSensorObj->raw[channel] = LO16(temp >>CapSense_1_PROX_IIR_RC_SHIFT);
 764:Generated_Source\PSoC4/CapSense_1_Filter.c ****                 #else
 765:Generated_Source\PSoC4/CapSense_1_Filter.c ****                     temp =CapSense_1_FtIIR1stOrder((uint32)ptrSensorObj->raw[channel],
 766:Generated_Source\PSoC4/CapSense_1_Filter.c ****                                                         (uint32)ptrFilterHistObj.ptrProx->proxChann
 767:Generated_Source\PSoC4/CapSense_1_Filter.c ****                                                         CapSense_1_PROX_IIR_RC_N,
 768:Generated_Source\PSoC4/CapSense_1_Filter.c ****                                                         CapSense_1_PROX_IIR_RC_SHIFT);
 769:Generated_Source\PSoC4/CapSense_1_Filter.c ****                     ptrFilterHistObj.ptrProx->proxChannel[channel].iirHistory = LO16(temp);
 770:Generated_Source\PSoC4/CapSense_1_Filter.c ****                     ptrSensorObj->raw[channel] = LO16(temp >>CapSense_1_PROX_IIR_RC_SHIFT);
 771:Generated_Source\PSoC4/CapSense_1_Filter.c ****                 #endif /* (CapSense_1_PROX_IIR_RC_TYPE == CapSense_1_IIR_FILTER_PERFORMANCE) */
 772:Generated_Source\PSoC4/CapSense_1_Filter.c ****             #endif /* (CapSense_1_PROX_SENSOR_EN) */
ARM GAS  C:\Users\Jannai\AppData\Local\Temp\cckccs8A.s 			page 21


 773:Generated_Source\PSoC4/CapSense_1_Filter.c ****         }    
 774:Generated_Source\PSoC4/CapSense_1_Filter.c ****     }        
 775:Generated_Source\PSoC4/CapSense_1_Filter.c **** }    
 776:Generated_Source\PSoC4/CapSense_1_Filter.c **** #endif /* #if (CapSense_1_REGULAR_RC_IIR_FILTER_EN || CapSense_1_PROX_RC_IIR_FILTER_EN) */
 777:Generated_Source\PSoC4/CapSense_1_Filter.c **** 
 778:Generated_Source\PSoC4/CapSense_1_Filter.c **** 
 779:Generated_Source\PSoC4/CapSense_1_Filter.c **** #if (CapSense_1_REGULAR_RC_MEDIAN_FILTER_EN || CapSense_1_PROX_RC_MEDIAN_FILTER_EN)
 780:Generated_Source\PSoC4/CapSense_1_Filter.c **** 
 781:Generated_Source\PSoC4/CapSense_1_Filter.c **** /*******************************************************************************
 782:Generated_Source\PSoC4/CapSense_1_Filter.c **** * Function Name: CapSense_1_InitializeMedian
 783:Generated_Source\PSoC4/CapSense_1_Filter.c **** ****************************************************************************//**
 784:Generated_Source\PSoC4/CapSense_1_Filter.c **** *
 785:Generated_Source\PSoC4/CapSense_1_Filter.c **** * \brief    Initializes the Median filter history.
 786:Generated_Source\PSoC4/CapSense_1_Filter.c **** *
 787:Generated_Source\PSoC4/CapSense_1_Filter.c **** * \details  Initializes the Median filter history.
 788:Generated_Source\PSoC4/CapSense_1_Filter.c **** *
 789:Generated_Source\PSoC4/CapSense_1_Filter.c **** * \param    widgetId Specifies the ID number of the widget.
 790:Generated_Source\PSoC4/CapSense_1_Filter.c **** * \param    sensorId Specifies the ID number of the sensor in the widget.
 791:Generated_Source\PSoC4/CapSense_1_Filter.c **** *
 792:Generated_Source\PSoC4/CapSense_1_Filter.c **** *******************************************************************************/
 793:Generated_Source\PSoC4/CapSense_1_Filter.c **** void CapSense_1_InitializeMedian(uint32 widgetId, uint32 sensorId)
 794:Generated_Source\PSoC4/CapSense_1_Filter.c **** {
 795:Generated_Source\PSoC4/CapSense_1_Filter.c ****     CapSense_1_FLASH_WD_STRUCT const *ptrWidget = &CapSense_1_dsFlash.wdgtArray[widgetId];      
 796:Generated_Source\PSoC4/CapSense_1_Filter.c ****     CapSense_1_RAM_SNS_STRUCT *ptrSensor = NULL;    
 797:Generated_Source\PSoC4/CapSense_1_Filter.c ****     CapSense_1_PTR_FILTER_VARIANT ptrFilterHistObj; 
 798:Generated_Source\PSoC4/CapSense_1_Filter.c ****               
 799:Generated_Source\PSoC4/CapSense_1_Filter.c ****     /* Find pointer to specified sensor object */     
 800:Generated_Source\PSoC4/CapSense_1_Filter.c ****     ptrSensor = ptrWidget->ptr2SnsRam;
 801:Generated_Source\PSoC4/CapSense_1_Filter.c ****     ptrSensor = &ptrSensor[sensorId];
 802:Generated_Source\PSoC4/CapSense_1_Filter.c ****     
 803:Generated_Source\PSoC4/CapSense_1_Filter.c ****     /* Find pointer to specified filter sensor object */     
 804:Generated_Source\PSoC4/CapSense_1_Filter.c ****     ptrFilterHistObj.ptr = ptrWidget->ptr2FltrHistory;
 805:Generated_Source\PSoC4/CapSense_1_Filter.c ****     
 806:Generated_Source\PSoC4/CapSense_1_Filter.c ****     if ((CapSense_1_WD_TYPE_ENUM)ptrWidget->wdgtType != CapSense_1_WD_PROXIMITY_E)
 807:Generated_Source\PSoC4/CapSense_1_Filter.c ****     {
 808:Generated_Source\PSoC4/CapSense_1_Filter.c ****         #if (CapSense_1_REGULAR_SENSOR_EN)
 809:Generated_Source\PSoC4/CapSense_1_Filter.c ****             ptrFilterHistObj.ptrRegular = &ptrFilterHistObj.ptrRegular[sensorId];
 810:Generated_Source\PSoC4/CapSense_1_Filter.c ****         #endif /* (CapSense_1_REGULAR_SENSOR_EN) */
 811:Generated_Source\PSoC4/CapSense_1_Filter.c ****     }
 812:Generated_Source\PSoC4/CapSense_1_Filter.c ****     else
 813:Generated_Source\PSoC4/CapSense_1_Filter.c ****     {
 814:Generated_Source\PSoC4/CapSense_1_Filter.c ****         #if (CapSense_1_PROXIMITY_SENSOR_EN)
 815:Generated_Source\PSoC4/CapSense_1_Filter.c ****             ptrFilterHistObj.ptrProx = &ptrFilterHistObj.ptrProx[sensorId];
 816:Generated_Source\PSoC4/CapSense_1_Filter.c ****         #endif /* (CapSense_1_PROXIMITY_SENSOR_EN) */
 817:Generated_Source\PSoC4/CapSense_1_Filter.c ****     }
 818:Generated_Source\PSoC4/CapSense_1_Filter.c ****     
 819:Generated_Source\PSoC4/CapSense_1_Filter.c ****     CapSense_1_InitializeMedianInternal(ptrFilterHistObj, ptrSensor, (uint32)ptrWidget->wdgtType);
 820:Generated_Source\PSoC4/CapSense_1_Filter.c **** }     
 821:Generated_Source\PSoC4/CapSense_1_Filter.c **** 
 822:Generated_Source\PSoC4/CapSense_1_Filter.c **** 
 823:Generated_Source\PSoC4/CapSense_1_Filter.c **** /*******************************************************************************
 824:Generated_Source\PSoC4/CapSense_1_Filter.c **** * Function Name: CapSense_1_RunMedian
 825:Generated_Source\PSoC4/CapSense_1_Filter.c **** ****************************************************************************//**
 826:Generated_Source\PSoC4/CapSense_1_Filter.c **** *
 827:Generated_Source\PSoC4/CapSense_1_Filter.c **** * \brief    Executes the Median filter algorithm on a sensor indicated by an input 
 828:Generated_Source\PSoC4/CapSense_1_Filter.c **** *           parameter. 
 829:Generated_Source\PSoC4/CapSense_1_Filter.c **** *
ARM GAS  C:\Users\Jannai\AppData\Local\Temp\cckccs8A.s 			page 22


 830:Generated_Source\PSoC4/CapSense_1_Filter.c **** * \details  Executes the Median filter algorithm on a sensor indicated by an input 
 831:Generated_Source\PSoC4/CapSense_1_Filter.c **** *           parameter. 
 832:Generated_Source\PSoC4/CapSense_1_Filter.c **** *
 833:Generated_Source\PSoC4/CapSense_1_Filter.c **** * \param    widgetId Specifies the ID number of the widget.
 834:Generated_Source\PSoC4/CapSense_1_Filter.c **** * \param    sensorId Specifies the ID number of the sensor in the widget.
 835:Generated_Source\PSoC4/CapSense_1_Filter.c **** *
 836:Generated_Source\PSoC4/CapSense_1_Filter.c **** *******************************************************************************/
 837:Generated_Source\PSoC4/CapSense_1_Filter.c **** void CapSense_1_RunMedian(uint32 widgetId, uint32 sensorId)
 838:Generated_Source\PSoC4/CapSense_1_Filter.c **** {
 839:Generated_Source\PSoC4/CapSense_1_Filter.c ****     CapSense_1_FLASH_WD_STRUCT const *ptrWidget = &CapSense_1_dsFlash.wdgtArray[widgetId];      
 840:Generated_Source\PSoC4/CapSense_1_Filter.c ****     CapSense_1_RAM_SNS_STRUCT *ptrSensor = NULL;    
 841:Generated_Source\PSoC4/CapSense_1_Filter.c ****     CapSense_1_PTR_FILTER_VARIANT ptrFilterHistObj; 
 842:Generated_Source\PSoC4/CapSense_1_Filter.c ****               
 843:Generated_Source\PSoC4/CapSense_1_Filter.c ****     /* Find pointer to specified sensor object */     
 844:Generated_Source\PSoC4/CapSense_1_Filter.c ****     ptrSensor = ptrWidget->ptr2SnsRam;
 845:Generated_Source\PSoC4/CapSense_1_Filter.c ****     ptrSensor = &ptrSensor[sensorId];
 846:Generated_Source\PSoC4/CapSense_1_Filter.c ****     
 847:Generated_Source\PSoC4/CapSense_1_Filter.c ****     /* Find pointer to specified filter sensor object */     
 848:Generated_Source\PSoC4/CapSense_1_Filter.c ****     ptrFilterHistObj.ptr = ptrWidget->ptr2FltrHistory;
 849:Generated_Source\PSoC4/CapSense_1_Filter.c ****     
 850:Generated_Source\PSoC4/CapSense_1_Filter.c ****     if ((CapSense_1_WD_TYPE_ENUM)ptrWidget->wdgtType != CapSense_1_WD_PROXIMITY_E)
 851:Generated_Source\PSoC4/CapSense_1_Filter.c ****     {
 852:Generated_Source\PSoC4/CapSense_1_Filter.c ****         #if (CapSense_1_REGULAR_SENSOR_EN)
 853:Generated_Source\PSoC4/CapSense_1_Filter.c ****             ptrFilterHistObj.ptrRegular = &ptrFilterHistObj.ptrRegular[sensorId];
 854:Generated_Source\PSoC4/CapSense_1_Filter.c ****         #endif /* (CapSense_1_REGULAR_SENSOR_EN) */
 855:Generated_Source\PSoC4/CapSense_1_Filter.c ****     }
 856:Generated_Source\PSoC4/CapSense_1_Filter.c ****     else
 857:Generated_Source\PSoC4/CapSense_1_Filter.c ****     {
 858:Generated_Source\PSoC4/CapSense_1_Filter.c ****         #if (CapSense_1_PROXIMITY_SENSOR_EN)
 859:Generated_Source\PSoC4/CapSense_1_Filter.c ****             ptrFilterHistObj.ptrProx = &ptrFilterHistObj.ptrProx[sensorId];
 860:Generated_Source\PSoC4/CapSense_1_Filter.c ****         #endif /* (CapSense_1_PROXIMITY_SENSOR_EN) */
 861:Generated_Source\PSoC4/CapSense_1_Filter.c ****     }
 862:Generated_Source\PSoC4/CapSense_1_Filter.c ****     
 863:Generated_Source\PSoC4/CapSense_1_Filter.c ****     CapSense_1_RunMedianInternal(ptrFilterHistObj, ptrSensor, (uint32)ptrWidget->wdgtType);
 864:Generated_Source\PSoC4/CapSense_1_Filter.c **** }
 865:Generated_Source\PSoC4/CapSense_1_Filter.c ****    
 866:Generated_Source\PSoC4/CapSense_1_Filter.c **** 
 867:Generated_Source\PSoC4/CapSense_1_Filter.c **** /*******************************************************************************
 868:Generated_Source\PSoC4/CapSense_1_Filter.c **** * Function Name: CapSense_1_InitializeMedianInternal
 869:Generated_Source\PSoC4/CapSense_1_Filter.c **** ****************************************************************************//**
 870:Generated_Source\PSoC4/CapSense_1_Filter.c **** *
 871:Generated_Source\PSoC4/CapSense_1_Filter.c **** * \brief    Initializes the Median filter.
 872:Generated_Source\PSoC4/CapSense_1_Filter.c **** *
 873:Generated_Source\PSoC4/CapSense_1_Filter.c **** * \details  Initializes the Median filter.
 874:Generated_Source\PSoC4/CapSense_1_Filter.c **** *
 875:Generated_Source\PSoC4/CapSense_1_Filter.c **** * \param    ptrFilterHistObj The pointer to the filter RAM object of the sensor.
 876:Generated_Source\PSoC4/CapSense_1_Filter.c **** * \param    ptrSensorObj     The pointer to the sensor RAM object of the sensor.
 877:Generated_Source\PSoC4/CapSense_1_Filter.c **** * \param    wdType           Specifies the type of a widget.
 878:Generated_Source\PSoC4/CapSense_1_Filter.c **** *
 879:Generated_Source\PSoC4/CapSense_1_Filter.c **** *******************************************************************************/
 880:Generated_Source\PSoC4/CapSense_1_Filter.c **** void CapSense_1_InitializeMedianInternal(CapSense_1_PTR_FILTER_VARIANT ptrFilterHistObj,
 881:Generated_Source\PSoC4/CapSense_1_Filter.c ****                                                CapSense_1_RAM_SNS_STRUCT *ptrSensorObj, uint32 wdTy
 882:Generated_Source\PSoC4/CapSense_1_Filter.c **** {
 883:Generated_Source\PSoC4/CapSense_1_Filter.c ****     uint32 channel;
 884:Generated_Source\PSoC4/CapSense_1_Filter.c **** 
 885:Generated_Source\PSoC4/CapSense_1_Filter.c ****     for(channel = CapSense_1_NUM_SCAN_FREQS; channel-- > 0u;)
 886:Generated_Source\PSoC4/CapSense_1_Filter.c ****     {
ARM GAS  C:\Users\Jannai\AppData\Local\Temp\cckccs8A.s 			page 23


 887:Generated_Source\PSoC4/CapSense_1_Filter.c ****         if ((CapSense_1_WD_TYPE_ENUM)wdType != CapSense_1_WD_PROXIMITY_E)
 888:Generated_Source\PSoC4/CapSense_1_Filter.c ****         {
 889:Generated_Source\PSoC4/CapSense_1_Filter.c ****             #if (CapSense_1_REGULAR_SENSOR_EN && CapSense_1_REGULAR_RC_MEDIAN_FILTER_EN)
 890:Generated_Source\PSoC4/CapSense_1_Filter.c ****                 ptrFilterHistObj.ptrRegular->regularChannel[channel].medHistory[0u] = ptrSensorObj-
 891:Generated_Source\PSoC4/CapSense_1_Filter.c ****                 ptrFilterHistObj.ptrRegular->regularChannel[channel].medHistory[1u] = ptrSensorObj-
 892:Generated_Source\PSoC4/CapSense_1_Filter.c ****             #endif /* (CapSense_1_REGULAR_SENSOR_EN) */
 893:Generated_Source\PSoC4/CapSense_1_Filter.c ****         }
 894:Generated_Source\PSoC4/CapSense_1_Filter.c ****         else
 895:Generated_Source\PSoC4/CapSense_1_Filter.c ****         {
 896:Generated_Source\PSoC4/CapSense_1_Filter.c ****             #if (CapSense_1_PROXIMITY_SENSOR_EN && CapSense_1_PROX_RC_MEDIAN_FILTER_EN)
 897:Generated_Source\PSoC4/CapSense_1_Filter.c ****                 ptrFilterHistObj.ptrProx->proxChannel[channel].medHistory[0u] = ptrSensorObj->raw[c
 898:Generated_Source\PSoC4/CapSense_1_Filter.c ****                 ptrFilterHistObj.ptrProx->proxChannel[channel].medHistory[1u] = ptrSensorObj->raw[c
 899:Generated_Source\PSoC4/CapSense_1_Filter.c ****             #endif /* (CapSense_1_PROXIMITY_SENSOR_EN) */               
 900:Generated_Source\PSoC4/CapSense_1_Filter.c ****         }
 901:Generated_Source\PSoC4/CapSense_1_Filter.c ****     }
 902:Generated_Source\PSoC4/CapSense_1_Filter.c **** }
 903:Generated_Source\PSoC4/CapSense_1_Filter.c **** 
 904:Generated_Source\PSoC4/CapSense_1_Filter.c **** 
 905:Generated_Source\PSoC4/CapSense_1_Filter.c **** /*******************************************************************************
 906:Generated_Source\PSoC4/CapSense_1_Filter.c **** * Function Name: CapSense_1_RunMedianInternal
 907:Generated_Source\PSoC4/CapSense_1_Filter.c **** ****************************************************************************//**
 908:Generated_Source\PSoC4/CapSense_1_Filter.c **** *
 909:Generated_Source\PSoC4/CapSense_1_Filter.c **** * \brief    Runs the Median filter.
 910:Generated_Source\PSoC4/CapSense_1_Filter.c **** *
 911:Generated_Source\PSoC4/CapSense_1_Filter.c **** * \details  Runs the Median filter.
 912:Generated_Source\PSoC4/CapSense_1_Filter.c **** *
 913:Generated_Source\PSoC4/CapSense_1_Filter.c **** * \param    ptrFilterHistObj The pointer to the filter RAM object of the sensor.
 914:Generated_Source\PSoC4/CapSense_1_Filter.c **** * \param    ptrSensorObj     The pointer to the sensor RAM object of the sensor.
 915:Generated_Source\PSoC4/CapSense_1_Filter.c **** * \param    wdType           Specifies the type of a widget.
 916:Generated_Source\PSoC4/CapSense_1_Filter.c **** *
 917:Generated_Source\PSoC4/CapSense_1_Filter.c **** *******************************************************************************/
 918:Generated_Source\PSoC4/CapSense_1_Filter.c **** void CapSense_1_RunMedianInternal(CapSense_1_PTR_FILTER_VARIANT ptrFilterHistObj,
 919:Generated_Source\PSoC4/CapSense_1_Filter.c ****                                         CapSense_1_RAM_SNS_STRUCT *ptrSensorObj, uint32 wdType)
 920:Generated_Source\PSoC4/CapSense_1_Filter.c **** {
 921:Generated_Source\PSoC4/CapSense_1_Filter.c ****     uint32 channel;
 922:Generated_Source\PSoC4/CapSense_1_Filter.c ****     
 923:Generated_Source\PSoC4/CapSense_1_Filter.c ****     #if ((CapSense_1_REGULAR_SENSOR_EN && CapSense_1_REGULAR_RC_MEDIAN_FILTER_EN) || \
 924:Generated_Source\PSoC4/CapSense_1_Filter.c ****          (CapSense_1_PROXIMITY_SENSOR_EN && CapSense_1_PROX_RC_MEDIAN_FILTER_EN))
 925:Generated_Source\PSoC4/CapSense_1_Filter.c ****         uint32 temp;
 926:Generated_Source\PSoC4/CapSense_1_Filter.c ****     #endif
 927:Generated_Source\PSoC4/CapSense_1_Filter.c ****     
 928:Generated_Source\PSoC4/CapSense_1_Filter.c ****     for(channel = CapSense_1_NUM_SCAN_FREQS; channel-- > 0u;)
 929:Generated_Source\PSoC4/CapSense_1_Filter.c ****     {    
 930:Generated_Source\PSoC4/CapSense_1_Filter.c ****         if ((CapSense_1_WD_TYPE_ENUM)wdType != CapSense_1_WD_PROXIMITY_E)
 931:Generated_Source\PSoC4/CapSense_1_Filter.c ****         {                                             
 932:Generated_Source\PSoC4/CapSense_1_Filter.c ****             #if (CapSense_1_REGULAR_SENSOR_EN && CapSense_1_REGULAR_RC_MEDIAN_FILTER_EN)
 933:Generated_Source\PSoC4/CapSense_1_Filter.c ****                 temp = CapSense_1_FtMedian((uint32)ptrSensorObj->raw[channel],\
 934:Generated_Source\PSoC4/CapSense_1_Filter.c ****                                                  (uint32)ptrFilterHistObj.ptrRegular->regularChanne
 935:Generated_Source\PSoC4/CapSense_1_Filter.c ****                                                  (uint32)ptrFilterHistObj.ptrRegular->regularChanne
 936:Generated_Source\PSoC4/CapSense_1_Filter.c ****                 ptrFilterHistObj.ptrRegular->regularChannel[channel].medHistory[1u] = \
 937:Generated_Source\PSoC4/CapSense_1_Filter.c ****                 ptrFilterHistObj.ptrRegular->regularChannel[channel].medHistory[0u];
 938:Generated_Source\PSoC4/CapSense_1_Filter.c ****                 ptrFilterHistObj.ptrRegular->regularChannel[channel].medHistory[0u] = ptrSensorObj-
 939:Generated_Source\PSoC4/CapSense_1_Filter.c ****                 ptrSensorObj->raw[channel] = LO16(temp);
 940:Generated_Source\PSoC4/CapSense_1_Filter.c ****             #endif /* (CapSense_1_REGULAR_SENSOR_EN) */     
 941:Generated_Source\PSoC4/CapSense_1_Filter.c ****         }
 942:Generated_Source\PSoC4/CapSense_1_Filter.c ****         else 
 943:Generated_Source\PSoC4/CapSense_1_Filter.c ****         {                   
ARM GAS  C:\Users\Jannai\AppData\Local\Temp\cckccs8A.s 			page 24


 944:Generated_Source\PSoC4/CapSense_1_Filter.c ****             #if (CapSense_1_PROXIMITY_SENSOR_EN && CapSense_1_PROX_RC_MEDIAN_FILTER_EN)
 945:Generated_Source\PSoC4/CapSense_1_Filter.c ****                 temp = CapSense_1_FtMedian((uint32)ptrSensorObj->raw[channel],\
 946:Generated_Source\PSoC4/CapSense_1_Filter.c ****                                                  (uint32)ptrFilterHistObj.ptrProx->proxChannel[chan
 947:Generated_Source\PSoC4/CapSense_1_Filter.c ****                                                  (uint32)ptrFilterHistObj.ptrProx->proxChannel[chan
 948:Generated_Source\PSoC4/CapSense_1_Filter.c ****                 ptrFilterHistObj.ptrProx->proxChannel[channel].medHistory[1u] = \
 949:Generated_Source\PSoC4/CapSense_1_Filter.c ****                 ptrFilterHistObj.ptrProx->proxChannel[channel].medHistory[0u];
 950:Generated_Source\PSoC4/CapSense_1_Filter.c ****                 ptrFilterHistObj.ptrProx->proxChannel[channel].medHistory[0u] = ptrSensorObj->raw[c
 951:Generated_Source\PSoC4/CapSense_1_Filter.c ****                 ptrSensorObj->raw[channel] = LO16(temp);
 952:Generated_Source\PSoC4/CapSense_1_Filter.c ****             #endif /* (CapSense_1_PROXIMITY_SENSOR_EN) */               
 953:Generated_Source\PSoC4/CapSense_1_Filter.c ****         }
 954:Generated_Source\PSoC4/CapSense_1_Filter.c ****     }
 955:Generated_Source\PSoC4/CapSense_1_Filter.c **** }
 956:Generated_Source\PSoC4/CapSense_1_Filter.c **** #endif /* (CapSense_1_REGULAR_RC_MEDIAN_FILTER_EN || CapSense_1_PROX_RC_MEDIAN_FILTER_EN) */
 957:Generated_Source\PSoC4/CapSense_1_Filter.c **** 
 958:Generated_Source\PSoC4/CapSense_1_Filter.c **** 
 959:Generated_Source\PSoC4/CapSense_1_Filter.c **** #if (CapSense_1_REGULAR_RC_AVERAGE_FILTER_EN || CapSense_1_PROX_RC_AVERAGE_FILTER_EN)
 960:Generated_Source\PSoC4/CapSense_1_Filter.c **** 
 961:Generated_Source\PSoC4/CapSense_1_Filter.c **** /*******************************************************************************
 962:Generated_Source\PSoC4/CapSense_1_Filter.c **** * Function Name: CapSense_1_InitializeAverage
 963:Generated_Source\PSoC4/CapSense_1_Filter.c **** ****************************************************************************//**
 964:Generated_Source\PSoC4/CapSense_1_Filter.c **** *
 965:Generated_Source\PSoC4/CapSense_1_Filter.c **** * \brief    Initializes the average filter history.
 966:Generated_Source\PSoC4/CapSense_1_Filter.c **** *
 967:Generated_Source\PSoC4/CapSense_1_Filter.c **** * \details  Initializes the average filter history.
 968:Generated_Source\PSoC4/CapSense_1_Filter.c **** *
 969:Generated_Source\PSoC4/CapSense_1_Filter.c **** * \param    widgetId Specifies the ID number of the widget.
 970:Generated_Source\PSoC4/CapSense_1_Filter.c **** * \param    sensorId Specifies the ID number of the sensor in the widget.
 971:Generated_Source\PSoC4/CapSense_1_Filter.c **** *
 972:Generated_Source\PSoC4/CapSense_1_Filter.c **** *******************************************************************************/
 973:Generated_Source\PSoC4/CapSense_1_Filter.c **** void CapSense_1_InitializeAverage(uint32 widgetId, uint32 sensorId)
 974:Generated_Source\PSoC4/CapSense_1_Filter.c **** {
 975:Generated_Source\PSoC4/CapSense_1_Filter.c ****     CapSense_1_FLASH_WD_STRUCT const *ptrWidget = &CapSense_1_dsFlash.wdgtArray[widgetId];      
 976:Generated_Source\PSoC4/CapSense_1_Filter.c ****     CapSense_1_RAM_SNS_STRUCT *ptrSensor = NULL;
 977:Generated_Source\PSoC4/CapSense_1_Filter.c ****     CapSense_1_PTR_FILTER_VARIANT ptrFilterHistObj;
 978:Generated_Source\PSoC4/CapSense_1_Filter.c **** 
 979:Generated_Source\PSoC4/CapSense_1_Filter.c ****     /* Find pointer to specified sensor object */
 980:Generated_Source\PSoC4/CapSense_1_Filter.c ****     ptrSensor = ptrWidget->ptr2SnsRam;
 981:Generated_Source\PSoC4/CapSense_1_Filter.c ****     ptrSensor = &ptrSensor[sensorId];
 982:Generated_Source\PSoC4/CapSense_1_Filter.c ****     
 983:Generated_Source\PSoC4/CapSense_1_Filter.c ****     /* Find pointer to specified filter sensor object */
 984:Generated_Source\PSoC4/CapSense_1_Filter.c ****     ptrFilterHistObj.ptr = ptrWidget->ptr2FltrHistory;
 985:Generated_Source\PSoC4/CapSense_1_Filter.c **** 
 986:Generated_Source\PSoC4/CapSense_1_Filter.c ****     if ((CapSense_1_WD_TYPE_ENUM)ptrWidget->wdgtType != CapSense_1_WD_PROXIMITY_E)
 987:Generated_Source\PSoC4/CapSense_1_Filter.c ****     {
 988:Generated_Source\PSoC4/CapSense_1_Filter.c ****         #if (CapSense_1_REGULAR_SENSOR_EN)
 989:Generated_Source\PSoC4/CapSense_1_Filter.c ****             ptrFilterHistObj.ptrRegular = &ptrFilterHistObj.ptrRegular[sensorId];
 990:Generated_Source\PSoC4/CapSense_1_Filter.c ****         #endif /* (CapSense_1_REGULAR_SENSOR_EN) */
 991:Generated_Source\PSoC4/CapSense_1_Filter.c ****     }
 992:Generated_Source\PSoC4/CapSense_1_Filter.c ****     else
 993:Generated_Source\PSoC4/CapSense_1_Filter.c ****     {
 994:Generated_Source\PSoC4/CapSense_1_Filter.c ****         #if (CapSense_1_PROXIMITY_SENSOR_EN)
 995:Generated_Source\PSoC4/CapSense_1_Filter.c ****             ptrFilterHistObj.ptrProx = &ptrFilterHistObj.ptrProx[sensorId];
 996:Generated_Source\PSoC4/CapSense_1_Filter.c ****         #endif /* (CapSense_1_PROXIMITY_SENSOR_EN) */
 997:Generated_Source\PSoC4/CapSense_1_Filter.c ****     }
 998:Generated_Source\PSoC4/CapSense_1_Filter.c **** 
 999:Generated_Source\PSoC4/CapSense_1_Filter.c ****     CapSense_1_InitializeAverageInternal(ptrFilterHistObj, ptrSensor, (uint32)ptrWidget->wdgtType);
1000:Generated_Source\PSoC4/CapSense_1_Filter.c **** }
ARM GAS  C:\Users\Jannai\AppData\Local\Temp\cckccs8A.s 			page 25


1001:Generated_Source\PSoC4/CapSense_1_Filter.c **** 
1002:Generated_Source\PSoC4/CapSense_1_Filter.c **** 
1003:Generated_Source\PSoC4/CapSense_1_Filter.c **** /*******************************************************************************
1004:Generated_Source\PSoC4/CapSense_1_Filter.c **** * Function Name: CapSense_1_RunAverage
1005:Generated_Source\PSoC4/CapSense_1_Filter.c **** ****************************************************************************//**
1006:Generated_Source\PSoC4/CapSense_1_Filter.c **** *
1007:Generated_Source\PSoC4/CapSense_1_Filter.c **** * \brief    Executes the average filter algorithm on a sensor indicated by an input 
1008:Generated_Source\PSoC4/CapSense_1_Filter.c **** *           parameter. 
1009:Generated_Source\PSoC4/CapSense_1_Filter.c **** *
1010:Generated_Source\PSoC4/CapSense_1_Filter.c **** * \details  Executes the average filter algorithm on a sensor indicated by an input 
1011:Generated_Source\PSoC4/CapSense_1_Filter.c **** *           parameter. 
1012:Generated_Source\PSoC4/CapSense_1_Filter.c **** *
1013:Generated_Source\PSoC4/CapSense_1_Filter.c **** * \param    widgetId Specifies the ID number of the widget.
1014:Generated_Source\PSoC4/CapSense_1_Filter.c **** * \param    sensorId Specifies the ID number of the sensor in the widget.
1015:Generated_Source\PSoC4/CapSense_1_Filter.c **** *
1016:Generated_Source\PSoC4/CapSense_1_Filter.c **** *******************************************************************************/
1017:Generated_Source\PSoC4/CapSense_1_Filter.c **** void CapSense_1_RunAverage(uint32 widgetId, uint32 sensorId)
1018:Generated_Source\PSoC4/CapSense_1_Filter.c **** {
1019:Generated_Source\PSoC4/CapSense_1_Filter.c ****     CapSense_1_FLASH_WD_STRUCT const *ptrWidget = &CapSense_1_dsFlash.wdgtArray[widgetId];      
1020:Generated_Source\PSoC4/CapSense_1_Filter.c ****     CapSense_1_RAM_SNS_STRUCT *ptrSensor = NULL;    
1021:Generated_Source\PSoC4/CapSense_1_Filter.c ****     CapSense_1_PTR_FILTER_VARIANT ptrFilterHistObj; 
1022:Generated_Source\PSoC4/CapSense_1_Filter.c ****               
1023:Generated_Source\PSoC4/CapSense_1_Filter.c ****     /* Find pointer to specified sensor object */     
1024:Generated_Source\PSoC4/CapSense_1_Filter.c ****     ptrSensor = ptrWidget->ptr2SnsRam;
1025:Generated_Source\PSoC4/CapSense_1_Filter.c ****     ptrSensor = &ptrSensor[sensorId];
1026:Generated_Source\PSoC4/CapSense_1_Filter.c ****     
1027:Generated_Source\PSoC4/CapSense_1_Filter.c ****     /* Find pointer to specified filter sensor object */     
1028:Generated_Source\PSoC4/CapSense_1_Filter.c ****     ptrFilterHistObj.ptr = ptrWidget->ptr2FltrHistory;
1029:Generated_Source\PSoC4/CapSense_1_Filter.c ****     
1030:Generated_Source\PSoC4/CapSense_1_Filter.c ****     if ((CapSense_1_WD_TYPE_ENUM)ptrWidget->wdgtType != CapSense_1_WD_PROXIMITY_E)
1031:Generated_Source\PSoC4/CapSense_1_Filter.c ****     {
1032:Generated_Source\PSoC4/CapSense_1_Filter.c ****         #if (CapSense_1_REGULAR_SENSOR_EN)
1033:Generated_Source\PSoC4/CapSense_1_Filter.c ****             ptrFilterHistObj.ptrRegular = &ptrFilterHistObj.ptrRegular[sensorId];
1034:Generated_Source\PSoC4/CapSense_1_Filter.c ****         #endif /* (CapSense_1_REGULAR_SENSOR_EN) */
1035:Generated_Source\PSoC4/CapSense_1_Filter.c ****     }
1036:Generated_Source\PSoC4/CapSense_1_Filter.c ****     else
1037:Generated_Source\PSoC4/CapSense_1_Filter.c ****     {
1038:Generated_Source\PSoC4/CapSense_1_Filter.c ****         #if (CapSense_1_PROXIMITY_SENSOR_EN)
1039:Generated_Source\PSoC4/CapSense_1_Filter.c ****             ptrFilterHistObj.ptrProx = &ptrFilterHistObj.ptrProx[sensorId];
1040:Generated_Source\PSoC4/CapSense_1_Filter.c ****         #endif /* (CapSense_1_PROXIMITY_SENSOR_EN) */
1041:Generated_Source\PSoC4/CapSense_1_Filter.c ****     }
1042:Generated_Source\PSoC4/CapSense_1_Filter.c ****     
1043:Generated_Source\PSoC4/CapSense_1_Filter.c ****     CapSense_1_RunAverageInternal(ptrFilterHistObj, ptrSensor, (uint32)ptrWidget->wdgtType);
1044:Generated_Source\PSoC4/CapSense_1_Filter.c **** }
1045:Generated_Source\PSoC4/CapSense_1_Filter.c **** 
1046:Generated_Source\PSoC4/CapSense_1_Filter.c **** 
1047:Generated_Source\PSoC4/CapSense_1_Filter.c **** /*******************************************************************************
1048:Generated_Source\PSoC4/CapSense_1_Filter.c **** * Function Name: CapSense_1_InitializeAverageInternal
1049:Generated_Source\PSoC4/CapSense_1_Filter.c **** ****************************************************************************//**
1050:Generated_Source\PSoC4/CapSense_1_Filter.c **** *
1051:Generated_Source\PSoC4/CapSense_1_Filter.c **** * \brief    Initializes the average filter.
1052:Generated_Source\PSoC4/CapSense_1_Filter.c **** *
1053:Generated_Source\PSoC4/CapSense_1_Filter.c **** * \details  Initializes the average filter.
1054:Generated_Source\PSoC4/CapSense_1_Filter.c **** *
1055:Generated_Source\PSoC4/CapSense_1_Filter.c **** * \param    ptrFilterHistObj The pointer to the filter RAM object of the sensor.
1056:Generated_Source\PSoC4/CapSense_1_Filter.c **** * \param    ptrSensorObj     The pointer to the sensor RAM object of the sensor.
1057:Generated_Source\PSoC4/CapSense_1_Filter.c **** * \param    wdType           Specifies the type of a widget.
ARM GAS  C:\Users\Jannai\AppData\Local\Temp\cckccs8A.s 			page 26


1058:Generated_Source\PSoC4/CapSense_1_Filter.c **** *
1059:Generated_Source\PSoC4/CapSense_1_Filter.c **** *******************************************************************************/
1060:Generated_Source\PSoC4/CapSense_1_Filter.c **** void CapSense_1_InitializeAverageInternal(CapSense_1_PTR_FILTER_VARIANT ptrFilterHistObj,\
1061:Generated_Source\PSoC4/CapSense_1_Filter.c ****                                                   CapSense_1_RAM_SNS_STRUCT *ptrSensorObj, uint32 w
1062:Generated_Source\PSoC4/CapSense_1_Filter.c **** {
1063:Generated_Source\PSoC4/CapSense_1_Filter.c ****     uint32 channel;
1064:Generated_Source\PSoC4/CapSense_1_Filter.c **** 
1065:Generated_Source\PSoC4/CapSense_1_Filter.c ****     for(channel = CapSense_1_NUM_SCAN_FREQS; channel-- > 0u;)
1066:Generated_Source\PSoC4/CapSense_1_Filter.c ****     {
1067:Generated_Source\PSoC4/CapSense_1_Filter.c ****         if ((CapSense_1_WD_TYPE_ENUM)wdType != CapSense_1_WD_PROXIMITY_E)
1068:Generated_Source\PSoC4/CapSense_1_Filter.c ****         {
1069:Generated_Source\PSoC4/CapSense_1_Filter.c ****             #if (CapSense_1_REGULAR_SENSOR_EN && CapSense_1_REGULAR_RC_AVERAGE_FILTER_EN)
1070:Generated_Source\PSoC4/CapSense_1_Filter.c ****                 ptrFilterHistObj.ptrRegular->regularChannel[channel].avgHistory[0] = ptrSensorObj->
1071:Generated_Source\PSoC4/CapSense_1_Filter.c ****                 #if (CapSense_1_REGULAR_AVERAGE_LEN == CapSense_1_AVERAGE_FILTER_LEN_4)
1072:Generated_Source\PSoC4/CapSense_1_Filter.c ****                     ptrFilterHistObj.ptrRegular->regularChannel[channel].avgHistory[1u] = ptrSensor
1073:Generated_Source\PSoC4/CapSense_1_Filter.c ****                     ptrFilterHistObj.ptrRegular->regularChannel[channel].avgHistory[2u] = ptrSensor
1074:Generated_Source\PSoC4/CapSense_1_Filter.c ****                 #endif /* CapSense_1_REGULAR_AVERAGE_LEN == CapSense_1_AVERAGE_FILTER_LEN_4 */
1075:Generated_Source\PSoC4/CapSense_1_Filter.c ****             #endif /* (CapSense_1_REGULAR_SENSOR_EN) */      
1076:Generated_Source\PSoC4/CapSense_1_Filter.c ****         }
1077:Generated_Source\PSoC4/CapSense_1_Filter.c ****         else
1078:Generated_Source\PSoC4/CapSense_1_Filter.c ****         {
1079:Generated_Source\PSoC4/CapSense_1_Filter.c ****             #if (CapSense_1_PROXIMITY_SENSOR_EN && CapSense_1_PROX_RC_AVERAGE_FILTER_EN)
1080:Generated_Source\PSoC4/CapSense_1_Filter.c ****                 ptrFilterHistObj.ptrProx->proxChannel[channel].avgHistory[0] = ptrSensorObj->raw[ch
1081:Generated_Source\PSoC4/CapSense_1_Filter.c ****                     #if (CapSense_1_PROX_AVERAGE_LEN == CapSense_1_AVERAGE_FILTER_LEN_4)
1082:Generated_Source\PSoC4/CapSense_1_Filter.c ****                         ptrFilterHistObj.ptrProx->proxChannel[channel].avgHistory[1u] = ptrSensorOb
1083:Generated_Source\PSoC4/CapSense_1_Filter.c ****                         ptrFilterHistObj.ptrProx->proxChannel[channel].avgHistory[2u] = ptrSensorOb
1084:Generated_Source\PSoC4/CapSense_1_Filter.c ****                     #endif /* CapSense_1_REGULAR_AVERAGE_LEN == CapSense_1_AVERAGE_FILTER_LEN_4 */
1085:Generated_Source\PSoC4/CapSense_1_Filter.c ****             #endif /* (CapSense_1_PROXIMITY_SENSOR_EN) */
1086:Generated_Source\PSoC4/CapSense_1_Filter.c ****         }
1087:Generated_Source\PSoC4/CapSense_1_Filter.c ****     }
1088:Generated_Source\PSoC4/CapSense_1_Filter.c **** }
1089:Generated_Source\PSoC4/CapSense_1_Filter.c **** 
1090:Generated_Source\PSoC4/CapSense_1_Filter.c **** 
1091:Generated_Source\PSoC4/CapSense_1_Filter.c **** /*******************************************************************************
1092:Generated_Source\PSoC4/CapSense_1_Filter.c **** * Function Name: CapSense_1_RunAverageInternal
1093:Generated_Source\PSoC4/CapSense_1_Filter.c **** ****************************************************************************//**
1094:Generated_Source\PSoC4/CapSense_1_Filter.c **** *
1095:Generated_Source\PSoC4/CapSense_1_Filter.c **** * \brief    Runs the average filter.
1096:Generated_Source\PSoC4/CapSense_1_Filter.c **** *
1097:Generated_Source\PSoC4/CapSense_1_Filter.c **** * \details  Runs the average filter.
1098:Generated_Source\PSoC4/CapSense_1_Filter.c **** *
1099:Generated_Source\PSoC4/CapSense_1_Filter.c **** * \param    ptrFilterHistObj The pointer to the filter RAM object of the sensor.
1100:Generated_Source\PSoC4/CapSense_1_Filter.c **** * \param    ptrSensorObj     The pointer to the sensor RAM object of the sensor.
1101:Generated_Source\PSoC4/CapSense_1_Filter.c **** * \param    wdType           Specifies the type of a widget.
1102:Generated_Source\PSoC4/CapSense_1_Filter.c **** *
1103:Generated_Source\PSoC4/CapSense_1_Filter.c **** *******************************************************************************/
1104:Generated_Source\PSoC4/CapSense_1_Filter.c **** void CapSense_1_RunAverageInternal(CapSense_1_PTR_FILTER_VARIANT ptrFilterHistObj,\
1105:Generated_Source\PSoC4/CapSense_1_Filter.c ****                                            CapSense_1_RAM_SNS_STRUCT *ptrSensorObj, uint32 wdType)
1106:Generated_Source\PSoC4/CapSense_1_Filter.c **** {
1107:Generated_Source\PSoC4/CapSense_1_Filter.c ****     uint32 channel;
1108:Generated_Source\PSoC4/CapSense_1_Filter.c ****     uint32 temp;
1109:Generated_Source\PSoC4/CapSense_1_Filter.c **** 
1110:Generated_Source\PSoC4/CapSense_1_Filter.c ****     for(channel = CapSense_1_NUM_SCAN_FREQS; channel-- > 0u;)
1111:Generated_Source\PSoC4/CapSense_1_Filter.c ****     {
1112:Generated_Source\PSoC4/CapSense_1_Filter.c ****         if ((CapSense_1_WD_TYPE_ENUM)wdType != CapSense_1_WD_PROXIMITY_E)
1113:Generated_Source\PSoC4/CapSense_1_Filter.c ****         {
1114:Generated_Source\PSoC4/CapSense_1_Filter.c ****             #if (CapSense_1_REGULAR_SENSOR_EN && CapSense_1_REGULAR_RC_AVERAGE_FILTER_EN)
ARM GAS  C:\Users\Jannai\AppData\Local\Temp\cckccs8A.s 			page 27


1115:Generated_Source\PSoC4/CapSense_1_Filter.c ****                 #if (CapSense_1_REGULAR_AVERAGE_LEN == CapSense_1_AVERAGE_FILTER_LEN_2)
1116:Generated_Source\PSoC4/CapSense_1_Filter.c ****                     temp = ((uint32)ptrSensorObj->raw[channel] + 
1117:Generated_Source\PSoC4/CapSense_1_Filter.c ****                             (uint32)ptrFilterHistObj.ptrRegular->regularChannel[channel].avgHistory
1118:Generated_Source\PSoC4/CapSense_1_Filter.c ****                     ptrFilterHistObj.ptrRegular->regularChannel[channel].avgHistory[0] = ptrSensorO
1119:Generated_Source\PSoC4/CapSense_1_Filter.c ****                     ptrSensorObj->raw[channel] = LO16(temp);
1120:Generated_Source\PSoC4/CapSense_1_Filter.c ****                 #else
1121:Generated_Source\PSoC4/CapSense_1_Filter.c ****                     temp = ((uint32)ptrSensorObj->raw[channel] + 
1122:Generated_Source\PSoC4/CapSense_1_Filter.c ****                             (uint32)ptrFilterHistObj.ptrRegular->regularChannel[channel].avgHistory
1123:Generated_Source\PSoC4/CapSense_1_Filter.c ****                             (uint32)ptrFilterHistObj.ptrRegular->regularChannel[channel].avgHistory
1124:Generated_Source\PSoC4/CapSense_1_Filter.c ****                             (uint32)ptrFilterHistObj.ptrRegular->regularChannel[channel].avgHistory
1125:Generated_Source\PSoC4/CapSense_1_Filter.c **** 
1126:Generated_Source\PSoC4/CapSense_1_Filter.c ****                     ptrFilterHistObj.ptrRegular->regularChannel[channel].avgHistory[2u] =
1127:Generated_Source\PSoC4/CapSense_1_Filter.c ****                     ptrFilterHistObj.ptrRegular->regularChannel[channel].avgHistory[1u];
1128:Generated_Source\PSoC4/CapSense_1_Filter.c ****                     ptrFilterHistObj.ptrRegular->regularChannel[channel].avgHistory[1u] =
1129:Generated_Source\PSoC4/CapSense_1_Filter.c ****                     ptrFilterHistObj.ptrRegular->regularChannel[channel].avgHistory[0];
1130:Generated_Source\PSoC4/CapSense_1_Filter.c ****                     ptrFilterHistObj.ptrRegular->regularChannel[channel].avgHistory[0] = ptrSensorO
1131:Generated_Source\PSoC4/CapSense_1_Filter.c ****                     ptrSensorObj->raw[channel] = LO16(temp);
1132:Generated_Source\PSoC4/CapSense_1_Filter.c ****                 #endif /* CapSense_1_REGULAR_AVERAGE_LEN == CapSense_1_AVERAGE_FILTER_LEN_4 */
1133:Generated_Source\PSoC4/CapSense_1_Filter.c ****             #endif /* (CapSense_1_REGULAR_SENSOR_EN) */
1134:Generated_Source\PSoC4/CapSense_1_Filter.c ****         }
1135:Generated_Source\PSoC4/CapSense_1_Filter.c ****         else 
1136:Generated_Source\PSoC4/CapSense_1_Filter.c ****         {
1137:Generated_Source\PSoC4/CapSense_1_Filter.c ****             #if (CapSense_1_PROXIMITY_SENSOR_EN && CapSense_1_PROX_RC_AVERAGE_FILTER_EN)
1138:Generated_Source\PSoC4/CapSense_1_Filter.c ****                 #if (CapSense_1_PROX_AVERAGE_LEN == CapSense_1_AVERAGE_FILTER_LEN_2)     
1139:Generated_Source\PSoC4/CapSense_1_Filter.c ****                     temp = ((uint32)ptrSensorObj->raw[channel] + 
1140:Generated_Source\PSoC4/CapSense_1_Filter.c ****                             (uint32)ptrFilterHistObj.ptrProx->proxChannel[channel].avgHistory[0]) >
1141:Generated_Source\PSoC4/CapSense_1_Filter.c ****                     ptrFilterHistObj.ptrProx->proxChannel[channel].avgHistory[0] = ptrSensorObj->ra
1142:Generated_Source\PSoC4/CapSense_1_Filter.c ****                     ptrSensorObj->raw[channel] = LO16(temp);
1143:Generated_Source\PSoC4/CapSense_1_Filter.c ****                 #else
1144:Generated_Source\PSoC4/CapSense_1_Filter.c ****                     temp = ((uint32)ptrSensorObj->raw[channel] + 
1145:Generated_Source\PSoC4/CapSense_1_Filter.c ****                             (uint32)ptrFilterHistObj.ptrProx->proxChannel[channel].avgHistory[0] +
1146:Generated_Source\PSoC4/CapSense_1_Filter.c ****                             (uint32)ptrFilterHistObj.ptrProx->proxChannel[channel].avgHistory[1u] +
1147:Generated_Source\PSoC4/CapSense_1_Filter.c ****                             (uint32)ptrFilterHistObj.ptrProx->proxChannel[channel].avgHistory[2u]) 
1148:Generated_Source\PSoC4/CapSense_1_Filter.c ****                     
1149:Generated_Source\PSoC4/CapSense_1_Filter.c ****                     ptrFilterHistObj.ptrProx->proxChannel[channel].avgHistory[2u] =
1150:Generated_Source\PSoC4/CapSense_1_Filter.c ****                     ptrFilterHistObj.ptrProx->proxChannel[channel].avgHistory[1u];
1151:Generated_Source\PSoC4/CapSense_1_Filter.c ****                     ptrFilterHistObj.ptrProx->proxChannel[channel].avgHistory[1u] =
1152:Generated_Source\PSoC4/CapSense_1_Filter.c ****                     ptrFilterHistObj.ptrProx->proxChannel[channel].avgHistory[0];
1153:Generated_Source\PSoC4/CapSense_1_Filter.c ****                     ptrFilterHistObj.ptrProx->proxChannel[channel].avgHistory[0] = ptrSensorObj->ra
1154:Generated_Source\PSoC4/CapSense_1_Filter.c ****                     ptrSensorObj->raw[channel] = LO16(temp);
1155:Generated_Source\PSoC4/CapSense_1_Filter.c ****                 #endif /* CapSense_1_PROX_AVERAGE_LEN == CapSense_1_AVERAGE_FILTER_LEN_4 */
1156:Generated_Source\PSoC4/CapSense_1_Filter.c ****             #endif /* (CapSense_1_PROXIMITY_SENSOR_EN) */
1157:Generated_Source\PSoC4/CapSense_1_Filter.c ****         }
1158:Generated_Source\PSoC4/CapSense_1_Filter.c ****     }
1159:Generated_Source\PSoC4/CapSense_1_Filter.c **** }
1160:Generated_Source\PSoC4/CapSense_1_Filter.c **** #endif /* (CapSense_1_REGULAR_RC_AVERAGE_FILTER_EN || CapSense_1_PROX_RC_AVERAGE_FILTER_EN) */
1161:Generated_Source\PSoC4/CapSense_1_Filter.c **** 
1162:Generated_Source\PSoC4/CapSense_1_Filter.c **** 
1163:Generated_Source\PSoC4/CapSense_1_Filter.c **** #if ((CapSense_1_REGULAR_RC_FILTER_EN || CapSense_1_PROX_RC_FILTER_EN))
1164:Generated_Source\PSoC4/CapSense_1_Filter.c **** /*******************************************************************************
1165:Generated_Source\PSoC4/CapSense_1_Filter.c **** * Function Name: CapSense_1_FtRunEnabledFilters
1166:Generated_Source\PSoC4/CapSense_1_Filter.c **** ****************************************************************************//**
1167:Generated_Source\PSoC4/CapSense_1_Filter.c **** *
1168:Generated_Source\PSoC4/CapSense_1_Filter.c **** * \brief    Runs all enabled filters.
1169:Generated_Source\PSoC4/CapSense_1_Filter.c **** *
1170:Generated_Source\PSoC4/CapSense_1_Filter.c **** * \details  Runs all enabled filters.
1171:Generated_Source\PSoC4/CapSense_1_Filter.c **** *
ARM GAS  C:\Users\Jannai\AppData\Local\Temp\cckccs8A.s 			page 28


1172:Generated_Source\PSoC4/CapSense_1_Filter.c **** * \param    widgetId Specifies the ID number of a widget to update the IIR filter history.*
1173:Generated_Source\PSoC4/CapSense_1_Filter.c **** * \param    sensorId Specifies the ID number of a sensor in the widget to update the IIR 
1174:Generated_Source\PSoC4/CapSense_1_Filter.c **** *           filter history.
1175:Generated_Source\PSoC4/CapSense_1_Filter.c **** *
1176:Generated_Source\PSoC4/CapSense_1_Filter.c **** *******************************************************************************/
1177:Generated_Source\PSoC4/CapSense_1_Filter.c **** void CapSense_1_FtRunEnabledFilters(uint32 widgetId, uint32 sensorId)
1178:Generated_Source\PSoC4/CapSense_1_Filter.c **** {
1179:Generated_Source\PSoC4/CapSense_1_Filter.c ****     CapSense_1_FLASH_WD_STRUCT const *ptrWidget = &CapSense_1_dsFlash.wdgtArray[widgetId];      
1180:Generated_Source\PSoC4/CapSense_1_Filter.c ****     CapSense_1_RAM_SNS_STRUCT *ptrSensor = NULL;    
1181:Generated_Source\PSoC4/CapSense_1_Filter.c ****     CapSense_1_PTR_FILTER_VARIANT ptrFilterHistObj; 
1182:Generated_Source\PSoC4/CapSense_1_Filter.c ****               
1183:Generated_Source\PSoC4/CapSense_1_Filter.c ****     /* Find pointer to specified sensor object */     
1184:Generated_Source\PSoC4/CapSense_1_Filter.c ****     ptrSensor = ptrWidget->ptr2SnsRam;
1185:Generated_Source\PSoC4/CapSense_1_Filter.c ****     ptrSensor = &ptrSensor[sensorId];
1186:Generated_Source\PSoC4/CapSense_1_Filter.c ****     
1187:Generated_Source\PSoC4/CapSense_1_Filter.c ****     /* Find pointer to specified filter sensor object */     
1188:Generated_Source\PSoC4/CapSense_1_Filter.c ****     ptrFilterHistObj.ptr = ptrWidget->ptr2FltrHistory;
1189:Generated_Source\PSoC4/CapSense_1_Filter.c ****     
1190:Generated_Source\PSoC4/CapSense_1_Filter.c ****     if ((CapSense_1_WD_TYPE_ENUM)ptrWidget->wdgtType != CapSense_1_WD_PROXIMITY_E)
1191:Generated_Source\PSoC4/CapSense_1_Filter.c ****     {
1192:Generated_Source\PSoC4/CapSense_1_Filter.c ****         #if (CapSense_1_REGULAR_SENSOR_EN)
1193:Generated_Source\PSoC4/CapSense_1_Filter.c ****             ptrFilterHistObj.ptrRegular = &ptrFilterHistObj.ptrRegular[sensorId];
1194:Generated_Source\PSoC4/CapSense_1_Filter.c ****         #endif /* (CapSense_1_REGULAR_SENSOR_EN) */
1195:Generated_Source\PSoC4/CapSense_1_Filter.c ****     }
1196:Generated_Source\PSoC4/CapSense_1_Filter.c ****     else
1197:Generated_Source\PSoC4/CapSense_1_Filter.c ****     {
1198:Generated_Source\PSoC4/CapSense_1_Filter.c ****         #if (CapSense_1_PROXIMITY_SENSOR_EN)
1199:Generated_Source\PSoC4/CapSense_1_Filter.c ****             ptrFilterHistObj.ptrProx = &ptrFilterHistObj.ptrProx[sensorId];
1200:Generated_Source\PSoC4/CapSense_1_Filter.c ****         #endif /* (CapSense_1_PROXIMITY_SENSOR_EN) */
1201:Generated_Source\PSoC4/CapSense_1_Filter.c ****     }
1202:Generated_Source\PSoC4/CapSense_1_Filter.c ****     
1203:Generated_Source\PSoC4/CapSense_1_Filter.c ****     CapSense_1_FtRunEnabledFiltersInternal(ptrFilterHistObj, ptrSensor, (uint32)ptrWidget->wdgtType
1204:Generated_Source\PSoC4/CapSense_1_Filter.c **** }
1205:Generated_Source\PSoC4/CapSense_1_Filter.c **** 
1206:Generated_Source\PSoC4/CapSense_1_Filter.c **** 
1207:Generated_Source\PSoC4/CapSense_1_Filter.c **** /*******************************************************************************
1208:Generated_Source\PSoC4/CapSense_1_Filter.c **** * Function Name: CapSense_1_FtRunEnabledFiltersInternal
1209:Generated_Source\PSoC4/CapSense_1_Filter.c **** ****************************************************************************//**
1210:Generated_Source\PSoC4/CapSense_1_Filter.c **** *
1211:Generated_Source\PSoC4/CapSense_1_Filter.c **** * \brief    Runs all enabled filters.
1212:Generated_Source\PSoC4/CapSense_1_Filter.c **** *
1213:Generated_Source\PSoC4/CapSense_1_Filter.c **** * \details  Runs all enabled filters.
1214:Generated_Source\PSoC4/CapSense_1_Filter.c **** *
1215:Generated_Source\PSoC4/CapSense_1_Filter.c **** * \param    ptrFilterHistObj The pointer to the filter RAM object of the sensor.
1216:Generated_Source\PSoC4/CapSense_1_Filter.c **** * \param    ptrSensorObj     The pointer to the sensor RAM object of the sensor.
1217:Generated_Source\PSoC4/CapSense_1_Filter.c **** * \param    wdType           Specifies the type of a widget.
1218:Generated_Source\PSoC4/CapSense_1_Filter.c **** *
1219:Generated_Source\PSoC4/CapSense_1_Filter.c **** *******************************************************************************/
1220:Generated_Source\PSoC4/CapSense_1_Filter.c **** void CapSense_1_FtRunEnabledFiltersInternal(CapSense_1_PTR_FILTER_VARIANT ptrFilterHistObj, 
1221:Generated_Source\PSoC4/CapSense_1_Filter.c ****                                                   CapSense_1_RAM_SNS_STRUCT *ptrSensorObj, uint32 w
1222:Generated_Source\PSoC4/CapSense_1_Filter.c **** {
1223:Generated_Source\PSoC4/CapSense_1_Filter.c ****     #if (CapSense_1_REGULAR_RC_MEDIAN_FILTER_EN || CapSense_1_PROX_RC_MEDIAN_FILTER_EN)
1224:Generated_Source\PSoC4/CapSense_1_Filter.c ****         CapSense_1_RunMedianInternal(ptrFilterHistObj, ptrSensorObj, wdType);
1225:Generated_Source\PSoC4/CapSense_1_Filter.c ****     #endif /* (CapSense_1_REGULAR_RC_MEDIAN_FILTER_EN || CapSense_1_PROX_RC_MEDIAN_FILTER_EN) */
1226:Generated_Source\PSoC4/CapSense_1_Filter.c ****     
1227:Generated_Source\PSoC4/CapSense_1_Filter.c ****     #if (CapSense_1_REGULAR_RC_IIR_FILTER_EN || CapSense_1_PROX_RC_IIR_FILTER_EN)    
1228:Generated_Source\PSoC4/CapSense_1_Filter.c ****         CapSense_1_RunIIRInternal(ptrFilterHistObj, ptrSensorObj, wdType);
ARM GAS  C:\Users\Jannai\AppData\Local\Temp\cckccs8A.s 			page 29


1229:Generated_Source\PSoC4/CapSense_1_Filter.c ****     #endif /* (CapSense_1_REGULAR_RC_IIR_FILTER_EN || CapSense_1_PROX_RC_IIR_FILTER_EN) */ 
1230:Generated_Source\PSoC4/CapSense_1_Filter.c **** 
1231:Generated_Source\PSoC4/CapSense_1_Filter.c ****     #if (CapSense_1_REGULAR_RC_AVERAGE_FILTER_EN || CapSense_1_PROX_RC_AVERAGE_FILTER_EN)
1232:Generated_Source\PSoC4/CapSense_1_Filter.c ****         CapSense_1_RunAverageInternal(ptrFilterHistObj, ptrSensorObj, wdType);
1233:Generated_Source\PSoC4/CapSense_1_Filter.c ****     #endif /* (CapSense_1_REGULAR_RC_AVERAGE_FILTER_EN || CapSense_1_PROX_RC_AVERAGE_FILTER_EN) */ 
1234:Generated_Source\PSoC4/CapSense_1_Filter.c **** }
1235:Generated_Source\PSoC4/CapSense_1_Filter.c **** #endif /* (CapSense_1_REGULAR_RC_FILTER_EN || CapSense_1_PROX_RC_FILTER_EN) */
1236:Generated_Source\PSoC4/CapSense_1_Filter.c **** 
1237:Generated_Source\PSoC4/CapSense_1_Filter.c **** 
1238:Generated_Source\PSoC4/CapSense_1_Filter.c **** #if (CapSense_1_CSD_AUTOTUNE & CapSense_1_CSD_SS_TH_EN)
1239:Generated_Source\PSoC4/CapSense_1_Filter.c **** /*******************************************************************************
1240:Generated_Source\PSoC4/CapSense_1_Filter.c **** * Function Name: CapSense_1_RunNoiseEnvelope
1241:Generated_Source\PSoC4/CapSense_1_Filter.c **** ****************************************************************************//**
1242:Generated_Source\PSoC4/CapSense_1_Filter.c **** *
1243:Generated_Source\PSoC4/CapSense_1_Filter.c **** * \brief    Executes the noise envelope  filter algorithm on a sensor indicated by 
1244:Generated_Source\PSoC4/CapSense_1_Filter.c **** *           an input parameter to measure the pk-to-pk noise in the sensor raw count.
1245:Generated_Source\PSoC4/CapSense_1_Filter.c **** *
1246:Generated_Source\PSoC4/CapSense_1_Filter.c **** * \details  Executes the noise envelope  filter algorithm on a sensor indicated by 
1247:Generated_Source\PSoC4/CapSense_1_Filter.c **** *           an input parameter to measure the pk-to-pk noise in the sensor raw count.
1248:Generated_Source\PSoC4/CapSense_1_Filter.c **** *
1249:Generated_Source\PSoC4/CapSense_1_Filter.c **** * \param    widgetId Specifies the ID number of the widget.
1250:Generated_Source\PSoC4/CapSense_1_Filter.c **** * \param    sensorId Specifies the ID number of the sensor in the widget.
1251:Generated_Source\PSoC4/CapSense_1_Filter.c **** *
1252:Generated_Source\PSoC4/CapSense_1_Filter.c **** *******************************************************************************/
1253:Generated_Source\PSoC4/CapSense_1_Filter.c **** void CapSense_1_RunNoiseEnvelope(uint32 widgetId, uint32 sensorId)
1254:Generated_Source\PSoC4/CapSense_1_Filter.c **** {
1255:Generated_Source\PSoC4/CapSense_1_Filter.c ****     CapSense_1_FLASH_WD_STRUCT const *ptrWidget = &CapSense_1_dsFlash.wdgtArray[widgetId];
1256:Generated_Source\PSoC4/CapSense_1_Filter.c ****     CapSense_1_RAM_WD_BASE_STRUCT *ptrWidgetRam = ptrWidget->ptr2WdgtRam;
1257:Generated_Source\PSoC4/CapSense_1_Filter.c ****     CapSense_1_RAM_SNS_STRUCT *ptrSensor = NULL;    
1258:Generated_Source\PSoC4/CapSense_1_Filter.c ****     SMARTSENSE_CSD_NOISE_ENVELOPE_STRUCT *ptrNoiseEnvelope = NULL;
1259:Generated_Source\PSoC4/CapSense_1_Filter.c **** 
1260:Generated_Source\PSoC4/CapSense_1_Filter.c ****     /* Find pointer to specified sensor object */
1261:Generated_Source\PSoC4/CapSense_1_Filter.c ****     ptrSensor = ptrWidget->ptr2SnsRam;
1262:Generated_Source\PSoC4/CapSense_1_Filter.c ****     ptrSensor = &ptrSensor[sensorId];
1263:Generated_Source\PSoC4/CapSense_1_Filter.c ****     
1264:Generated_Source\PSoC4/CapSense_1_Filter.c ****     /* Find pointer to specified filter sensor object */
1265:Generated_Source\PSoC4/CapSense_1_Filter.c ****     ptrNoiseEnvelope = ptrWidget->ptr2NoiseEnvlp;
1266:Generated_Source\PSoC4/CapSense_1_Filter.c ****     ptrNoiseEnvelope = &ptrNoiseEnvelope[sensorId];    
1267:Generated_Source\PSoC4/CapSense_1_Filter.c **** 
1268:Generated_Source\PSoC4/CapSense_1_Filter.c ****     SmartSense_RunNoiseEnvelope(ptrSensor->raw[0u], ptrWidgetRam->sigPFC, ptrNoiseEnvelope);
1269:Generated_Source\PSoC4/CapSense_1_Filter.c **** }
1270:Generated_Source\PSoC4/CapSense_1_Filter.c **** 
1271:Generated_Source\PSoC4/CapSense_1_Filter.c **** 
1272:Generated_Source\PSoC4/CapSense_1_Filter.c **** /*******************************************************************************
1273:Generated_Source\PSoC4/CapSense_1_Filter.c **** * Function Name: CapSense_1_InitializeNoiseEnvelope
1274:Generated_Source\PSoC4/CapSense_1_Filter.c **** ****************************************************************************//**
1275:Generated_Source\PSoC4/CapSense_1_Filter.c **** *
1276:Generated_Source\PSoC4/CapSense_1_Filter.c **** * \brief    Initializes the noise-envelope filter
1277:Generated_Source\PSoC4/CapSense_1_Filter.c **** *
1278:Generated_Source\PSoC4/CapSense_1_Filter.c **** * \details  Initializes the noise-envelope filter
1279:Generated_Source\PSoC4/CapSense_1_Filter.c **** *
1280:Generated_Source\PSoC4/CapSense_1_Filter.c **** * \param    widgetId Specifies the ID number of the widget.
1281:Generated_Source\PSoC4/CapSense_1_Filter.c **** * \param    sensorId Specifies the ID number of the sensor in the widget.
1282:Generated_Source\PSoC4/CapSense_1_Filter.c **** *
1283:Generated_Source\PSoC4/CapSense_1_Filter.c **** *******************************************************************************/
1284:Generated_Source\PSoC4/CapSense_1_Filter.c **** void CapSense_1_InitializeNoiseEnvelope(uint32 widgetId, uint32 sensorId)
1285:Generated_Source\PSoC4/CapSense_1_Filter.c **** {
ARM GAS  C:\Users\Jannai\AppData\Local\Temp\cckccs8A.s 			page 30


1286:Generated_Source\PSoC4/CapSense_1_Filter.c ****     CapSense_1_FLASH_WD_STRUCT const *ptrWidget = &CapSense_1_dsFlash.wdgtArray[widgetId];
1287:Generated_Source\PSoC4/CapSense_1_Filter.c ****     CapSense_1_RAM_WD_BASE_STRUCT *ptrWidgetRam = ptrWidget->ptr2WdgtRam;
1288:Generated_Source\PSoC4/CapSense_1_Filter.c ****     CapSense_1_RAM_SNS_STRUCT *ptrSensor = NULL;    
1289:Generated_Source\PSoC4/CapSense_1_Filter.c ****     SMARTSENSE_CSD_NOISE_ENVELOPE_STRUCT *ptrNoiseEnvelope = NULL;
1290:Generated_Source\PSoC4/CapSense_1_Filter.c **** 
1291:Generated_Source\PSoC4/CapSense_1_Filter.c ****     /* Find pointer to specified sensor object */
1292:Generated_Source\PSoC4/CapSense_1_Filter.c ****     ptrSensor = ptrWidget->ptr2SnsRam;
1293:Generated_Source\PSoC4/CapSense_1_Filter.c ****     ptrSensor = &ptrSensor[sensorId];
1294:Generated_Source\PSoC4/CapSense_1_Filter.c ****     
1295:Generated_Source\PSoC4/CapSense_1_Filter.c ****     /* Find pointer to specified filter sensor object */
1296:Generated_Source\PSoC4/CapSense_1_Filter.c ****     ptrNoiseEnvelope = ptrWidget->ptr2NoiseEnvlp;
1297:Generated_Source\PSoC4/CapSense_1_Filter.c ****     ptrNoiseEnvelope = &ptrNoiseEnvelope[sensorId];    
1298:Generated_Source\PSoC4/CapSense_1_Filter.c **** 
1299:Generated_Source\PSoC4/CapSense_1_Filter.c ****     SmartSense_InitializeNoiseEnvelope(ptrSensor->raw[0u], ptrWidgetRam->sigPFC, ptrNoiseEnvelope);
1300:Generated_Source\PSoC4/CapSense_1_Filter.c **** }
1301:Generated_Source\PSoC4/CapSense_1_Filter.c **** #endif /* #if CapSense_1_CSD_AUTOTUNE & CapSense_1_CSD_SS_TH_EN */
1302:Generated_Source\PSoC4/CapSense_1_Filter.c **** 
1303:Generated_Source\PSoC4/CapSense_1_Filter.c **** 
1304:Generated_Source\PSoC4/CapSense_1_Filter.c **** #if (CapSense_1_POS_MEDIAN_FILTER_EN || CapSense_1_REGULAR_RC_MEDIAN_FILTER_EN || CapSense_1_PROX_R
1305:Generated_Source\PSoC4/CapSense_1_Filter.c **** /*******************************************************************************
1306:Generated_Source\PSoC4/CapSense_1_Filter.c **** * Function Name: CapSense_1_FtMedian
1307:Generated_Source\PSoC4/CapSense_1_Filter.c **** ****************************************************************************//**
1308:Generated_Source\PSoC4/CapSense_1_Filter.c **** *
1309:Generated_Source\PSoC4/CapSense_1_Filter.c **** * \brief    Return the median value from the three passed arguments.
1310:Generated_Source\PSoC4/CapSense_1_Filter.c **** *
1311:Generated_Source\PSoC4/CapSense_1_Filter.c **** * \details  Return the median value from the three passed arguments.
1312:Generated_Source\PSoC4/CapSense_1_Filter.c **** *
1313:Generated_Source\PSoC4/CapSense_1_Filter.c **** * \param    x1 The first value to be compared.
1314:Generated_Source\PSoC4/CapSense_1_Filter.c **** * \param    x2 The second value to be compared.
1315:Generated_Source\PSoC4/CapSense_1_Filter.c **** * \param    x3 The third value to be compared.
1316:Generated_Source\PSoC4/CapSense_1_Filter.c **** *
1317:Generated_Source\PSoC4/CapSense_1_Filter.c **** * \return   Returns the median value of input arguments.
1318:Generated_Source\PSoC4/CapSense_1_Filter.c **** *
1319:Generated_Source\PSoC4/CapSense_1_Filter.c **** *******************************************************************************/
1320:Generated_Source\PSoC4/CapSense_1_Filter.c **** uint32 CapSense_1_FtMedian(uint32 x1, uint32 x2, uint32 x3)
1321:Generated_Source\PSoC4/CapSense_1_Filter.c **** {
1322:Generated_Source\PSoC4/CapSense_1_Filter.c ****     uint32 tmp;
1323:Generated_Source\PSoC4/CapSense_1_Filter.c **** 
1324:Generated_Source\PSoC4/CapSense_1_Filter.c ****     if (x1 > x2)
1325:Generated_Source\PSoC4/CapSense_1_Filter.c ****     {
1326:Generated_Source\PSoC4/CapSense_1_Filter.c ****         tmp = x2;
1327:Generated_Source\PSoC4/CapSense_1_Filter.c ****         x2 = x1;
1328:Generated_Source\PSoC4/CapSense_1_Filter.c ****         x1 = tmp;
1329:Generated_Source\PSoC4/CapSense_1_Filter.c ****     }
1330:Generated_Source\PSoC4/CapSense_1_Filter.c **** 
1331:Generated_Source\PSoC4/CapSense_1_Filter.c ****     if (x2 > x3)
1332:Generated_Source\PSoC4/CapSense_1_Filter.c ****     {
1333:Generated_Source\PSoC4/CapSense_1_Filter.c ****         x2 = x3;
1334:Generated_Source\PSoC4/CapSense_1_Filter.c ****     }
1335:Generated_Source\PSoC4/CapSense_1_Filter.c **** 
1336:Generated_Source\PSoC4/CapSense_1_Filter.c ****     return ((x1 > x2) ? x1 : x2);
1337:Generated_Source\PSoC4/CapSense_1_Filter.c **** }
1338:Generated_Source\PSoC4/CapSense_1_Filter.c **** #endif /*CapSense_1_POS_MEDIAN_FILTER_EN || CapSense_1_REGULAR_RC_MEDIAN_FILTER_EN || CapSense_1_PR
1339:Generated_Source\PSoC4/CapSense_1_Filter.c **** 
1340:Generated_Source\PSoC4/CapSense_1_Filter.c **** 
1341:Generated_Source\PSoC4/CapSense_1_Filter.c **** /*******************************************************************************
1342:Generated_Source\PSoC4/CapSense_1_Filter.c **** * Function Name: CapSense_1_FtIIR1stOrder
ARM GAS  C:\Users\Jannai\AppData\Local\Temp\cckccs8A.s 			page 31


1343:Generated_Source\PSoC4/CapSense_1_Filter.c **** ****************************************************************************//**
1344:Generated_Source\PSoC4/CapSense_1_Filter.c **** *
1345:Generated_Source\PSoC4/CapSense_1_Filter.c **** * \brief    Return the filtered data by the IIR 1-st order algorithm
1346:Generated_Source\PSoC4/CapSense_1_Filter.c **** *
1347:Generated_Source\PSoC4/CapSense_1_Filter.c **** * \details  Return the filtered data by the IIR 1-st order algorithm
1348:Generated_Source\PSoC4/CapSense_1_Filter.c **** *
1349:Generated_Source\PSoC4/CapSense_1_Filter.c **** * \param    input      The data to be filtered.
1350:Generated_Source\PSoC4/CapSense_1_Filter.c **** * \param    prevOutput The previous filtered data.
1351:Generated_Source\PSoC4/CapSense_1_Filter.c **** * \param    n          The IIR filter coefficient (n/256).
1352:Generated_Source\PSoC4/CapSense_1_Filter.c **** * \param    shift      The parameter is used to shift input data to have free LSB 
1353:Generated_Source\PSoC4/CapSense_1_Filter.c **** *                       bits for a fraction storage of the filter output calculation.
1354:Generated_Source\PSoC4/CapSense_1_Filter.c **** *
1355:Generated_Source\PSoC4/CapSense_1_Filter.c **** * \return   Returns the filtered data.
1356:Generated_Source\PSoC4/CapSense_1_Filter.c **** *
1357:Generated_Source\PSoC4/CapSense_1_Filter.c **** *******************************************************************************/
1358:Generated_Source\PSoC4/CapSense_1_Filter.c **** uint32 CapSense_1_FtIIR1stOrder(uint32 input, uint32 prevOutput, uint32 n, uint32 shift)
1359:Generated_Source\PSoC4/CapSense_1_Filter.c **** {   
 340              		.loc 1 1359 0
 341              		.cfi_startproc
 342              	.LVL49:
1360:Generated_Source\PSoC4/CapSense_1_Filter.c ****     uint32 output;
1361:Generated_Source\PSoC4/CapSense_1_Filter.c ****    
1362:Generated_Source\PSoC4/CapSense_1_Filter.c ****     /*
1363:Generated_Source\PSoC4/CapSense_1_Filter.c ****     * n - IIR filter coefficient (n/256)
1364:Generated_Source\PSoC4/CapSense_1_Filter.c ****     * shift - Used to shift input data to have free LSB bits
1365:Generated_Source\PSoC4/CapSense_1_Filter.c ****     * for fraction storage of filter output calculation
1366:Generated_Source\PSoC4/CapSense_1_Filter.c ****     */
1367:Generated_Source\PSoC4/CapSense_1_Filter.c ****     output = ((n * (input << shift)) + ((CapSense_1_IIR_COEFFICIENT_K - n) * prevOutput)) >> 8u;
 343              		.loc 1 1367 0
 344 0000 9840     		lsl	r0, r0, r3
 345              	.LVL50:
 346 0002 031C     		mov	r3, r0
 347              	.LVL51:
 348 0004 5343     		mul	r3, r2
 349 0006 8020     		mov	r0, #128
 350 0008 4000     		lsl	r0, r0, #1
 351 000a 801A     		sub	r0, r0, r2
 352 000c 4143     		mul	r1, r0
 353              	.LVL52:
 354 000e 5818     		add	r0, r3, r1
 355 0010 000A     		lsr	r0, r0, #8
 356              	.LVL53:
1368:Generated_Source\PSoC4/CapSense_1_Filter.c ****     
1369:Generated_Source\PSoC4/CapSense_1_Filter.c ****     /* Shift operation of output will be done in upper level API if needed */
1370:Generated_Source\PSoC4/CapSense_1_Filter.c ****     return output;
1371:Generated_Source\PSoC4/CapSense_1_Filter.c **** }
 357              		.loc 1 1371 0
 358              		@ sp needed
 359 0012 7047     		bx	lr
 360              		.cfi_endproc
 361              	.LFE12:
 362              		.size	CapSense_1_FtIIR1stOrder, .-CapSense_1_FtIIR1stOrder
 363              		.section	.text.CapSense_1_FtUpdateBaseline,"ax",%progbits
 364              		.align	2
 365              		.global	CapSense_1_FtUpdateBaseline
 366              		.code	16
 367              		.thumb_func
ARM GAS  C:\Users\Jannai\AppData\Local\Temp\cckccs8A.s 			page 32


 368              		.type	CapSense_1_FtUpdateBaseline, %function
 369              	CapSense_1_FtUpdateBaseline:
 370              	.LFB6:
 290:Generated_Source\PSoC4/CapSense_1_Filter.c ****     uint32 sign;
 371              		.loc 1 290 0
 372              		.cfi_startproc
 373              	.LVL54:
 374 0000 F0B5     		push	{r4, r5, r6, r7, lr}
 375              		.cfi_def_cfa_offset 20
 376              		.cfi_offset 4, -20
 377              		.cfi_offset 5, -16
 378              		.cfi_offset 6, -12
 379              		.cfi_offset 7, -8
 380              		.cfi_offset 14, -4
 381 0002 83B0     		sub	sp, sp, #12
 382              		.cfi_def_cfa_offset 32
 383 0004 071C     		mov	r7, r0
 384 0006 0E1C     		mov	r6, r1
 385 0008 0192     		str	r2, [sp, #4]
 386              	.LVL55:
 301:Generated_Source\PSoC4/CapSense_1_Filter.c ****     {               
 387              		.loc 1 301 0
 388 000a 0123     		mov	r3, #1
 389 000c 3BE0     		b	.L28
 390              	.LVL56:
 391              	.L35:
 304:Generated_Source\PSoC4/CapSense_1_Filter.c ****         {
 392              		.loc 1 304 0
 393 000e 6300     		lsl	r3, r4, #1
 394 0010 985B     		ldrh	r0, [r3, r6]
 395 0012 F318     		add	r3, r6, r3
 396 0014 5988     		ldrh	r1, [r3, #2]
 397 0016 8842     		cmp	r0, r1
 398 0018 05D3     		bcc	.L29
 306:Generated_Source\PSoC4/CapSense_1_Filter.c ****             sign = 1u;
 399              		.loc 1 306 0
 400 001a 431A     		sub	r3, r0, r1
 401              	.LVL57:
 308:Generated_Source\PSoC4/CapSense_1_Filter.c ****         }
 402              		.loc 1 308 0
 403 001c 3219     		add	r2, r6, r4
 404 001e 0025     		mov	r5, #0
 405 0020 1572     		strb	r5, [r2, #8]
 307:Generated_Source\PSoC4/CapSense_1_Filter.c ****             ptrSensor->negBslnRstCnt[channel] = 0u;
 406              		.loc 1 307 0
 407 0022 0122     		mov	r2, #1
 408 0024 01E0     		b	.L30
 409              	.LVL58:
 410              	.L29:
 312:Generated_Source\PSoC4/CapSense_1_Filter.c ****             sign = 0u;
 411              		.loc 1 312 0
 412 0026 0B1A     		sub	r3, r1, r0
 413              	.LVL59:
 313:Generated_Source\PSoC4/CapSense_1_Filter.c ****         }     
 414              		.loc 1 313 0
 415 0028 0022     		mov	r2, #0
 416              	.LVL60:
ARM GAS  C:\Users\Jannai\AppData\Local\Temp\cckccs8A.s 			page 33


 417              	.L30:
 317:Generated_Source\PSoC4/CapSense_1_Filter.c ****         {
 418              		.loc 1 317 0
 419 002a 002A     		cmp	r2, #0
 420 002c 11D1     		bne	.L31
 317:Generated_Source\PSoC4/CapSense_1_Filter.c ****         {
 421              		.loc 1 317 0 is_stmt 0 discriminator 1
 422 002e 7D79     		ldrb	r5, [r7, #5]
 423 0030 9D42     		cmp	r5, r3
 424 0032 0ED2     		bcs	.L31
 319:Generated_Source\PSoC4/CapSense_1_Filter.c ****             {                
 425              		.loc 1 319 0 is_stmt 1
 426 0034 3319     		add	r3, r6, r4
 427              	.LVL61:
 428 0036 1B7A     		ldrb	r3, [r3, #8]
 429 0038 3A7A     		ldrb	r2, [r7, #8]
 430              	.LVL62:
 431 003a 9342     		cmp	r3, r2
 432 003c 05D3     		bcc	.L32
 321:Generated_Source\PSoC4/CapSense_1_Filter.c ****             }
 433              		.loc 1 321 0
 434 003e 301C     		mov	r0, r6
 435 0040 0199     		ldr	r1, [sp, #4]
 436 0042 221C     		mov	r2, r4
 437 0044 FFF7FEFF 		bl	CapSense_1_FtInitializeBaselineChannel
 438              	.LVL63:
 439 0048 1CE0     		b	.L33
 440              	.L32:
 325:Generated_Source\PSoC4/CapSense_1_Filter.c ****             }
 441              		.loc 1 325 0
 442 004a 3219     		add	r2, r6, r4
 443 004c 0133     		add	r3, r3, #1
 444 004e 1372     		strb	r3, [r2, #8]
 445 0050 18E0     		b	.L33
 446              	.LVL64:
 447              	.L31:
 332:Generated_Source\PSoC4/CapSense_1_Filter.c ****                     ((difference < (uint32) ptrWidgetRam->nNoiseTh) && (sign == 0u)))
 448              		.loc 1 332 0
 449 0052 3D79     		ldrb	r5, [r7, #4]
 450 0054 9D42     		cmp	r5, r3
 451 0056 04D2     		bcs	.L34
 333:Generated_Source\PSoC4/CapSense_1_Filter.c ****                 {
 452              		.loc 1 333 0 discriminator 1
 453 0058 7D79     		ldrb	r5, [r7, #5]
 332:Generated_Source\PSoC4/CapSense_1_Filter.c ****                     ((difference < (uint32) ptrWidgetRam->nNoiseTh) && (sign == 0u)))
 454              		.loc 1 332 0 discriminator 1
 455 005a 9D42     		cmp	r5, r3
 456 005c 12D9     		bls	.L33
 333:Generated_Source\PSoC4/CapSense_1_Filter.c ****                 {
 457              		.loc 1 333 0
 458 005e 002A     		cmp	r2, #0
 459 0060 10D1     		bne	.L33
 460              	.L34:
 339:Generated_Source\PSoC4/CapSense_1_Filter.c ****                         {
 461              		.loc 1 339 0
 462 0062 6B46     		mov	r3, sp
 463              	.LVL65:
ARM GAS  C:\Users\Jannai\AppData\Local\Temp\cckccs8A.s 			page 34


 464 0064 1B79     		ldrb	r3, [r3, #4]
 465 0066 062B     		cmp	r3, #6
 466 0068 0CD0     		beq	.L33
 343:Generated_Source\PSoC4/CapSense_1_Filter.c ****                                     history |= ptrSensor->bslnExt[channel];
 467              		.loc 1 343 0
 468 006a 0902     		lsl	r1, r1, #8
 469              	.LVL66:
 344:Generated_Source\PSoC4/CapSense_1_Filter.c ****                                 #else
 470              		.loc 1 344 0
 471 006c 3519     		add	r5, r6, r4
 472 006e 2B79     		ldrb	r3, [r5, #4]
 473 0070 1943     		orr	r1, r3
 474              	.LVL67:
 349:Generated_Source\PSoC4/CapSense_1_Filter.c ****                                                 (uint32)ptrSensor->raw[channel],
 475              		.loc 1 349 0
 476 0072 0122     		mov	r2, #1
 477              	.LVL68:
 478 0074 0823     		mov	r3, #8
 479 0076 FFF7FEFF 		bl	CapSense_1_FtIIR1stOrder
 480              	.LVL69:
 356:Generated_Source\PSoC4/CapSense_1_Filter.c ****                                     ptrSensor->bslnExt[channel] = LO8(history);
 481              		.loc 1 356 0
 482 007a 020A     		lsr	r2, r0, #8
 483 007c 6300     		lsl	r3, r4, #1
 484 007e F318     		add	r3, r6, r3
 485 0080 5A80     		strh	r2, [r3, #2]
 357:Generated_Source\PSoC4/CapSense_1_Filter.c ****                                 #else
 486              		.loc 1 357 0
 487 0082 2871     		strb	r0, [r5, #4]
 488              	.LVL70:
 489              	.L33:
 490 0084 231C     		mov	r3, r4
 491              	.LVL71:
 492              	.L28:
 301:Generated_Source\PSoC4/CapSense_1_Filter.c ****     {               
 493              		.loc 1 301 0 discriminator 1
 494 0086 5C1E     		sub	r4, r3, #1
 495              	.LVL72:
 496 0088 002B     		cmp	r3, #0
 497 008a C0D1     		bne	.L35
 399:Generated_Source\PSoC4/CapSense_1_Filter.c **** 
 498              		.loc 1 399 0
 499 008c 0020     		mov	r0, #0
 500 008e 03B0     		add	sp, sp, #12
 501              		@ sp needed
 502              	.LVL73:
 503              	.LVL74:
 504              	.LVL75:
 505 0090 F0BD     		pop	{r4, r5, r6, r7, pc}
 506              		.cfi_endproc
 507              	.LFE6:
 508              		.size	CapSense_1_FtUpdateBaseline, .-CapSense_1_FtUpdateBaseline
 509 0092 C046     		.section	.text.CapSense_1_UpdateSensorBaseline,"ax",%progbits
 510              		.align	2
 511              		.global	CapSense_1_UpdateSensorBaseline
 512              		.code	16
 513              		.thumb_func
ARM GAS  C:\Users\Jannai\AppData\Local\Temp\cckccs8A.s 			page 35


 514              		.type	CapSense_1_UpdateSensorBaseline, %function
 515              	CapSense_1_UpdateSensorBaseline:
 516              	.LFB5:
 251:Generated_Source\PSoC4/CapSense_1_Filter.c ****     cystatus bslnStatus = CYRET_SUCCESS;  
 517              		.loc 1 251 0
 518              		.cfi_startproc
 519              	.LVL76:
 520 0000 70B5     		push	{r4, r5, r6, lr}
 521              		.cfi_def_cfa_offset 16
 522              		.cfi_offset 4, -16
 523              		.cfi_offset 5, -12
 524              		.cfi_offset 6, -8
 525              		.cfi_offset 14, -4
 526              	.LVL77:
 256:Generated_Source\PSoC4/CapSense_1_Filter.c ****           
 527              		.loc 1 256 0
 528 0002 094D     		ldr	r5, .L37
 529 0004 C200     		lsl	r2, r0, #3
 530 0006 141A     		sub	r4, r2, r0
 531 0008 A400     		lsl	r4, r4, #2
 532 000a 2C19     		add	r4, r5, r4
 533 000c 6668     		ldr	r6, [r4, #4]
 534              	.LVL78:
 259:Generated_Source\PSoC4/CapSense_1_Filter.c ****     ptrSensor = &ptrSensor[sensorId];
 535              		.loc 1 259 0
 536 000e A368     		ldr	r3, [r4, #8]
 537              	.LVL79:
 260:Generated_Source\PSoC4/CapSense_1_Filter.c ****     
 538              		.loc 1 260 0
 539 0010 8C00     		lsl	r4, r1, #2
 540 0012 6118     		add	r1, r4, r1
 541              	.LVL80:
 542 0014 4900     		lsl	r1, r1, #1
 543 0016 5918     		add	r1, r3, r1
 544              	.LVL81:
 263:Generated_Source\PSoC4/CapSense_1_Filter.c ****    
 545              		.loc 1 263 0
 546 0018 131A     		sub	r3, r2, r0
 547 001a 9B00     		lsl	r3, r3, #2
 548 001c EB18     		add	r3, r5, r3
 549 001e 1A7E     		ldrb	r2, [r3, #24]
 262:Generated_Source\PSoC4/CapSense_1_Filter.c ****                         ptrWidgetRam, ptrSensor, (uint32)ptrWidget->wdgtType);
 550              		.loc 1 262 0
 551 0020 301C     		mov	r0, r6
 552              	.LVL82:
 553 0022 FFF7FEFF 		bl	CapSense_1_FtUpdateBaseline
 554              	.LVL83:
 266:Generated_Source\PSoC4/CapSense_1_Filter.c ****  
 555              		.loc 1 266 0
 556              		@ sp needed
 557              	.LVL84:
 558              	.LVL85:
 559              	.LVL86:
 560 0026 70BD     		pop	{r4, r5, r6, pc}
 561              	.L38:
 562              		.align	2
 563              	.L37:
ARM GAS  C:\Users\Jannai\AppData\Local\Temp\cckccs8A.s 			page 36


 564 0028 00000000 		.word	CapSense_1_dsFlash
 565              		.cfi_endproc
 566              	.LFE5:
 567              		.size	CapSense_1_UpdateSensorBaseline, .-CapSense_1_UpdateSensorBaseline
 568              		.section	.text.CapSense_1_UpdateWidgetBaseline,"ax",%progbits
 569              		.align	2
 570              		.global	CapSense_1_UpdateWidgetBaseline
 571              		.code	16
 572              		.thumb_func
 573              		.type	CapSense_1_UpdateWidgetBaseline, %function
 574              	CapSense_1_UpdateWidgetBaseline:
 575              	.LFB4:
 197:Generated_Source\PSoC4/CapSense_1_Filter.c ****     uint32 sensorId;       
 576              		.loc 1 197 0
 577              		.cfi_startproc
 578              	.LVL87:
 579 0000 70B5     		push	{r4, r5, r6, lr}
 580              		.cfi_def_cfa_offset 16
 581              		.cfi_offset 4, -16
 582              		.cfi_offset 5, -12
 583              		.cfi_offset 6, -8
 584              		.cfi_offset 14, -4
 585 0002 061C     		mov	r6, r0
 586              	.LVL88:
 205:Generated_Source\PSoC4/CapSense_1_Filter.c ****     
 587              		.loc 1 205 0
 588 0004 C300     		lsl	r3, r0, #3
 589 0006 1B1A     		sub	r3, r3, r0
 590 0008 9B00     		lsl	r3, r3, #2
 591 000a 084A     		ldr	r2, .L42
 592 000c D318     		add	r3, r2, r3
 593 000e DB8A     		ldrh	r3, [r3, #22]
 594              	.LVL89:
 202:Generated_Source\PSoC4/CapSense_1_Filter.c ****     
 595              		.loc 1 202 0
 596 0010 0025     		mov	r5, #0
 207:Generated_Source\PSoC4/CapSense_1_Filter.c ****     {
 597              		.loc 1 207 0
 598 0012 05E0     		b	.L40
 599              	.LVL90:
 600              	.L41:
 209:Generated_Source\PSoC4/CapSense_1_Filter.c ****     }
 601              		.loc 1 209 0
 602 0014 301C     		mov	r0, r6
 603 0016 211C     		mov	r1, r4
 604 0018 FFF7FEFF 		bl	CapSense_1_UpdateSensorBaseline
 605              	.LVL91:
 606 001c 0543     		orr	r5, r0
 607              	.LVL92:
 207:Generated_Source\PSoC4/CapSense_1_Filter.c ****     {
 608              		.loc 1 207 0
 609 001e 231C     		mov	r3, r4
 610              	.LVL93:
 611              	.L40:
 207:Generated_Source\PSoC4/CapSense_1_Filter.c ****     {
 612              		.loc 1 207 0 is_stmt 0 discriminator 1
 613 0020 5C1E     		sub	r4, r3, #1
ARM GAS  C:\Users\Jannai\AppData\Local\Temp\cckccs8A.s 			page 37


 614              	.LVL94:
 615 0022 002B     		cmp	r3, #0
 616 0024 F6D1     		bne	.L41
 213:Generated_Source\PSoC4/CapSense_1_Filter.c **** 
 617              		.loc 1 213 0 is_stmt 1
 618 0026 281C     		mov	r0, r5
 619              		@ sp needed
 620              	.LVL95:
 621              	.LVL96:
 622              	.LVL97:
 623 0028 70BD     		pop	{r4, r5, r6, pc}
 624              	.L43:
 625 002a C046     		.align	2
 626              	.L42:
 627 002c 00000000 		.word	CapSense_1_dsFlash
 628              		.cfi_endproc
 629              	.LFE4:
 630              		.size	CapSense_1_UpdateWidgetBaseline, .-CapSense_1_UpdateWidgetBaseline
 631              		.section	.text.CapSense_1_UpdateAllBaselines,"ax",%progbits
 632              		.align	2
 633              		.global	CapSense_1_UpdateAllBaselines
 634              		.code	16
 635              		.thumb_func
 636              		.type	CapSense_1_UpdateAllBaselines, %function
 637              	CapSense_1_UpdateAllBaselines:
 638              	.LFB3:
 156:Generated_Source\PSoC4/CapSense_1_Filter.c ****     uint32 widgetId; 
 639              		.loc 1 156 0
 640              		.cfi_startproc
 641 0000 38B5     		push	{r3, r4, r5, lr}
 642              		.cfi_def_cfa_offset 16
 643              		.cfi_offset 3, -16
 644              		.cfi_offset 4, -12
 645              		.cfi_offset 5, -8
 646              		.cfi_offset 14, -4
 647              	.LVL98:
 158:Generated_Source\PSoC4/CapSense_1_Filter.c ****     
 648              		.loc 1 158 0
 649 0002 0024     		mov	r4, #0
 160:Generated_Source\PSoC4/CapSense_1_Filter.c ****     {            
 650              		.loc 1 160 0
 651 0004 0123     		mov	r3, #1
 652 0006 04E0     		b	.L45
 653              	.LVL99:
 654              	.L46:
 162:Generated_Source\PSoC4/CapSense_1_Filter.c ****     }      
 655              		.loc 1 162 0
 656 0008 281C     		mov	r0, r5
 657 000a FFF7FEFF 		bl	CapSense_1_UpdateWidgetBaseline
 658              	.LVL100:
 659 000e 0443     		orr	r4, r0
 660              	.LVL101:
 160:Generated_Source\PSoC4/CapSense_1_Filter.c ****     {            
 661              		.loc 1 160 0
 662 0010 2B1C     		mov	r3, r5
 663              	.LVL102:
 664              	.L45:
ARM GAS  C:\Users\Jannai\AppData\Local\Temp\cckccs8A.s 			page 38


 160:Generated_Source\PSoC4/CapSense_1_Filter.c ****     {            
 665              		.loc 1 160 0 is_stmt 0 discriminator 1
 666 0012 5D1E     		sub	r5, r3, #1
 667              	.LVL103:
 668 0014 002B     		cmp	r3, #0
 669 0016 F7D1     		bne	.L46
 166:Generated_Source\PSoC4/CapSense_1_Filter.c ****   
 670              		.loc 1 166 0 is_stmt 1
 671 0018 201C     		mov	r0, r4
 672              		@ sp needed
 673              	.LVL104:
 674              	.LVL105:
 675 001a 38BD     		pop	{r3, r4, r5, pc}
 676              		.cfi_endproc
 677              	.LFE3:
 678              		.size	CapSense_1_UpdateAllBaselines, .-CapSense_1_UpdateAllBaselines
 679              		.text
 680              	.Letext0:
 681              		.file 2 "Generated_Source\\PSoC4\\cytypes.h"
 682              		.file 3 "Generated_Source\\PSoC4\\CapSense_1_Configuration.h"
 683              		.file 4 "Generated_Source\\PSoC4\\CapSense_1_Structure.h"