ARM GAS  C:\Users\Jannai\AppData\Local\Temp\ccRbizMh.s 			page 1


   1              		.cpu cortex-m0
   2              		.fpu softvfp
   3              		.eabi_attribute 20, 1
   4              		.eabi_attribute 21, 1
   5              		.eabi_attribute 23, 3
   6              		.eabi_attribute 24, 1
   7              		.eabi_attribute 25, 1
   8              		.eabi_attribute 26, 1
   9              		.eabi_attribute 30, 1
  10              		.eabi_attribute 34, 0
  11              		.eabi_attribute 18, 4
  12              		.code	16
  13              		.file	"CapSense_1_Processing.c"
  14              		.text
  15              	.Ltext0:
  16              		.cfi_sections	.debug_frame
  17              		.section	.text.CapSense_1_DpInitialize,"ax",%progbits
  18              		.align	2
  19              		.global	CapSense_1_DpInitialize
  20              		.code	16
  21              		.thumb_func
  22              		.type	CapSense_1_DpInitialize, %function
  23              	CapSense_1_DpInitialize:
  24              	.LFB2:
  25              		.file 1 "Generated_Source\\PSoC4\\CapSense_1_Processing.c"
   1:Generated_Source\PSoC4/CapSense_1_Processing.c **** /***************************************************************************//**
   2:Generated_Source\PSoC4/CapSense_1_Processing.c **** * \file CapSense_1_Processing.c
   3:Generated_Source\PSoC4/CapSense_1_Processing.c **** * \version 3.0
   4:Generated_Source\PSoC4/CapSense_1_Processing.c **** *
   5:Generated_Source\PSoC4/CapSense_1_Processing.c **** * \brief
   6:Generated_Source\PSoC4/CapSense_1_Processing.c **** * This file provides the source code for the Data Processing module APIs
   7:Generated_Source\PSoC4/CapSense_1_Processing.c **** * of the component. The Data Processing module is responsible for the
   8:Generated_Source\PSoC4/CapSense_1_Processing.c **** * low level raw counts processing provided by the sensing module, maintaining
   9:Generated_Source\PSoC4/CapSense_1_Processing.c **** * baseline and difference values and performing high-level widget processing
  10:Generated_Source\PSoC4/CapSense_1_Processing.c **** * like updating button status or calculating slider position.
  11:Generated_Source\PSoC4/CapSense_1_Processing.c **** *
  12:Generated_Source\PSoC4/CapSense_1_Processing.c **** * \see CapSense P4 v3.0 Datasheet
  13:Generated_Source\PSoC4/CapSense_1_Processing.c **** *
  14:Generated_Source\PSoC4/CapSense_1_Processing.c **** *//*****************************************************************************
  15:Generated_Source\PSoC4/CapSense_1_Processing.c **** * Copyright (2016), Cypress Semiconductor Corporation.
  16:Generated_Source\PSoC4/CapSense_1_Processing.c **** ********************************************************************************
  17:Generated_Source\PSoC4/CapSense_1_Processing.c **** * This software is owned by Cypress Semiconductor Corporation (Cypress) and is
  18:Generated_Source\PSoC4/CapSense_1_Processing.c **** * protected by and subject to worldwide patent protection (United States and
  19:Generated_Source\PSoC4/CapSense_1_Processing.c **** * foreign), United States copyright laws and international treaty provisions.
  20:Generated_Source\PSoC4/CapSense_1_Processing.c **** * Cypress hereby grants to licensee a personal, non-exclusive, non-transferable
  21:Generated_Source\PSoC4/CapSense_1_Processing.c **** * license to copy, use, modify, create derivative works of, and compile the
  22:Generated_Source\PSoC4/CapSense_1_Processing.c **** * Cypress Source Code and derivative works for the sole purpose of creating
  23:Generated_Source\PSoC4/CapSense_1_Processing.c **** * custom software in support of licensee product to be used only in conjunction
  24:Generated_Source\PSoC4/CapSense_1_Processing.c **** * with a Cypress integrated circuit as specified in the applicable agreement.
  25:Generated_Source\PSoC4/CapSense_1_Processing.c **** * Any reproduction, modification, translation, compilation, or representation of
  26:Generated_Source\PSoC4/CapSense_1_Processing.c **** * this software except as specified above is prohibited without the express
  27:Generated_Source\PSoC4/CapSense_1_Processing.c **** * written permission of Cypress.
  28:Generated_Source\PSoC4/CapSense_1_Processing.c **** *
  29:Generated_Source\PSoC4/CapSense_1_Processing.c **** * Disclaimer: CYPRESS MAKES NO WARRANTY OF ANY KIND, EXPRESS OR IMPLIED, WITH
  30:Generated_Source\PSoC4/CapSense_1_Processing.c **** * REGARD TO THIS MATERIAL, INCLUDING, BUT NOT LIMITED TO, THE IMPLIED
  31:Generated_Source\PSoC4/CapSense_1_Processing.c **** * WARRANTIES OF MERCHANTABILITY AND FITNESS FOR A PARTICULAR PURPOSE.
  32:Generated_Source\PSoC4/CapSense_1_Processing.c **** * Cypress reserves the right to make changes without further notice to the
ARM GAS  C:\Users\Jannai\AppData\Local\Temp\ccRbizMh.s 			page 2


  33:Generated_Source\PSoC4/CapSense_1_Processing.c **** * materials described herein. Cypress does not assume any liability arising out
  34:Generated_Source\PSoC4/CapSense_1_Processing.c **** * of the application or use of any product or circuit described herein. Cypress
  35:Generated_Source\PSoC4/CapSense_1_Processing.c **** * does not authorize its products for use as critical components in life-support
  36:Generated_Source\PSoC4/CapSense_1_Processing.c **** * systems where a malfunction or failure may reasonably be expected to result in
  37:Generated_Source\PSoC4/CapSense_1_Processing.c **** * significant injury to the user. The inclusion of Cypress' product in a life-
  38:Generated_Source\PSoC4/CapSense_1_Processing.c **** * support systems application implies that the manufacturer assumes all risk of
  39:Generated_Source\PSoC4/CapSense_1_Processing.c **** * such use and in doing so indemnifies Cypress against all charges. Use may be
  40:Generated_Source\PSoC4/CapSense_1_Processing.c **** * limited by and subject to the applicable Cypress software license agreement.
  41:Generated_Source\PSoC4/CapSense_1_Processing.c **** *******************************************************************************/
  42:Generated_Source\PSoC4/CapSense_1_Processing.c **** 
  43:Generated_Source\PSoC4/CapSense_1_Processing.c **** #include "cytypes.h"
  44:Generated_Source\PSoC4/CapSense_1_Processing.c **** #include "CapSense_1_Configuration.h"
  45:Generated_Source\PSoC4/CapSense_1_Processing.c **** #include "CapSense_1_Processing.h"
  46:Generated_Source\PSoC4/CapSense_1_Processing.c **** #include "CapSense_1_Filter.h"
  47:Generated_Source\PSoC4/CapSense_1_Processing.c **** 
  48:Generated_Source\PSoC4/CapSense_1_Processing.c **** #if (0u != CapSense_1_CENTROID_EN)
  49:Generated_Source\PSoC4/CapSense_1_Processing.c ****     #include "CapSense_1_Centroid_LL.h"
  50:Generated_Source\PSoC4/CapSense_1_Processing.c **** #endif /* (0 != CapSense_1_CENTROID_EN) */
  51:Generated_Source\PSoC4/CapSense_1_Processing.c **** 
  52:Generated_Source\PSoC4/CapSense_1_Processing.c **** #if (0 != (CapSense_1_CSD_AUTOTUNE & CapSense_1_CSD_SS_TH_EN))
  53:Generated_Source\PSoC4/CapSense_1_Processing.c ****     #include "CapSense_1_SmartSense_LL.h"
  54:Generated_Source\PSoC4/CapSense_1_Processing.c **** #endif /* (0 != (CapSense_1_CSD_AUTOTUNE & CapSense_1_CSD_SS_TH_EN)) */
  55:Generated_Source\PSoC4/CapSense_1_Processing.c **** 
  56:Generated_Source\PSoC4/CapSense_1_Processing.c **** #include "CyLib.h"
  57:Generated_Source\PSoC4/CapSense_1_Processing.c **** 
  58:Generated_Source\PSoC4/CapSense_1_Processing.c **** /**************************************************************************************************
  59:Generated_Source\PSoC4/CapSense_1_Processing.c **** * Local definition
  60:Generated_Source\PSoC4/CapSense_1_Processing.c **** ***************************************************************************************************
  61:Generated_Source\PSoC4/CapSense_1_Processing.c **** 
  62:Generated_Source\PSoC4/CapSense_1_Processing.c **** /* This definition resolves to TRUE if any of the FW filters for raw counts are enabled */
  63:Generated_Source\PSoC4/CapSense_1_Processing.c **** #define DP_FW_FILTER_EN                                 \
  64:Generated_Source\PSoC4/CapSense_1_Processing.c ****             (CapSense_1_REGULAR_RC_FILTER_EN |  \
  65:Generated_Source\PSoC4/CapSense_1_Processing.c ****              CapSense_1_PROX_RC_FILTER_EN)
  66:Generated_Source\PSoC4/CapSense_1_Processing.c **** 
  67:Generated_Source\PSoC4/CapSense_1_Processing.c **** /* This definition resolves to TRUE if any of the position filters are enabled */
  68:Generated_Source\PSoC4/CapSense_1_Processing.c **** #define DP_POSITION_FILTER_EN                           \
  69:Generated_Source\PSoC4/CapSense_1_Processing.c ****             (CapSense_1_POS_IIR_FILTER_EN      || \
  70:Generated_Source\PSoC4/CapSense_1_Processing.c ****              CapSense_1_POS_MEDIAN_FILTER_EN   || \
  71:Generated_Source\PSoC4/CapSense_1_Processing.c ****              CapSense_1_POS_AVERAGE_FILTER_EN  || \
  72:Generated_Source\PSoC4/CapSense_1_Processing.c ****              CapSense_1_POS_JITTER_FILTER_EN)
  73:Generated_Source\PSoC4/CapSense_1_Processing.c **** 
  74:Generated_Source\PSoC4/CapSense_1_Processing.c **** /* This definition resolves to TRUE if any of position filters are enabled and component has slider
  75:Generated_Source\PSoC4/CapSense_1_Processing.c ****  * The processing function of the CSD touchpad reuses the filtering function of the slider widget. 
  76:Generated_Source\PSoC4/CapSense_1_Processing.c **** #define DP_LINEAR_SLIDER_FILTER_EN                                             \
  77:Generated_Source\PSoC4/CapSense_1_Processing.c ****            (DP_POSITION_FILTER_EN && (CapSense_1_TOTAL_LINEAR_SLIDERS || \
  78:Generated_Source\PSoC4/CapSense_1_Processing.c ****                                       CapSense_1_CSD_TOUCHPAD_WIDGET_EN))
  79:Generated_Source\PSoC4/CapSense_1_Processing.c **** 
  80:Generated_Source\PSoC4/CapSense_1_Processing.c **** /* UINT32 constant with all odd bits set. It is used by the processing function of the Proximity wi
  81:Generated_Source\PSoC4/CapSense_1_Processing.c **** *  determine type of the status bit: odd bits report proximity status; even bits report touch statu
  82:Generated_Source\PSoC4/CapSense_1_Processing.c ****  */
  83:Generated_Source\PSoC4/CapSense_1_Processing.c **** #define UINT32_ODD_BITS_CONST       (0x55555555u)
  84:Generated_Source\PSoC4/CapSense_1_Processing.c **** 
  85:Generated_Source\PSoC4/CapSense_1_Processing.c **** /* Default value for the Off Debounce counter when the Off Debounce is disabled */
  86:Generated_Source\PSoC4/CapSense_1_Processing.c **** #define DEFAULT_OFF_DEBOUNCE_VALUE  (1u)
  87:Generated_Source\PSoC4/CapSense_1_Processing.c **** 
  88:Generated_Source\PSoC4/CapSense_1_Processing.c **** 
  89:Generated_Source\PSoC4/CapSense_1_Processing.c **** /**************************************************************************************************
ARM GAS  C:\Users\Jannai\AppData\Local\Temp\ccRbizMh.s 			page 3


  90:Generated_Source\PSoC4/CapSense_1_Processing.c **** * Local variables
  91:Generated_Source\PSoC4/CapSense_1_Processing.c **** ***************************************************************************************************
  92:Generated_Source\PSoC4/CapSense_1_Processing.c **** #if (0u != CapSense_1_CSX_MULTIPHASE_TX_EN)
  93:Generated_Source\PSoC4/CapSense_1_Processing.c ****     static uint16 deconvRowData[CapSense_1_CSX_MAX_TX_PHASE_LENGTH];
  94:Generated_Source\PSoC4/CapSense_1_Processing.c **** #endif
  95:Generated_Source\PSoC4/CapSense_1_Processing.c **** 
  96:Generated_Source\PSoC4/CapSense_1_Processing.c **** 
  97:Generated_Source\PSoC4/CapSense_1_Processing.c **** /**************************************************************************************************
  98:Generated_Source\PSoC4/CapSense_1_Processing.c **** * Static Function Prototypes
  99:Generated_Source\PSoC4/CapSense_1_Processing.c **** ***************************************************************************************************
 100:Generated_Source\PSoC4/CapSense_1_Processing.c **** /**
 101:Generated_Source\PSoC4/CapSense_1_Processing.c **** * \if SECTION_CAPSENSE_INTERNAL
 102:Generated_Source\PSoC4/CapSense_1_Processing.c **** * \addtogroup group_capsense_internal
 103:Generated_Source\PSoC4/CapSense_1_Processing.c **** * \{
 104:Generated_Source\PSoC4/CapSense_1_Processing.c **** */
 105:Generated_Source\PSoC4/CapSense_1_Processing.c **** #if (0u != CapSense_1_TOTAL_LINEAR_SLIDERS)
 106:Generated_Source\PSoC4/CapSense_1_Processing.c ****     static CY_INLINE void DpUpdateLinSlider(
 107:Generated_Source\PSoC4/CapSense_1_Processing.c ****                         const uint16 newPos[], uint32 numTouches,
 108:Generated_Source\PSoC4/CapSense_1_Processing.c ****                         CapSense_1_FLASH_WD_STRUCT const *ptrFlashWdgt,
 109:Generated_Source\PSoC4/CapSense_1_Processing.c ****                         CapSense_1_RAM_WD_SLIDER_STRUCT *ptrRamWdgt);
 110:Generated_Source\PSoC4/CapSense_1_Processing.c **** #endif /* #if (0u != CapSense_1_TOTAL_LINEAR_SLIDERS) */
 111:Generated_Source\PSoC4/CapSense_1_Processing.c **** 
 112:Generated_Source\PSoC4/CapSense_1_Processing.c **** #if (0u != DP_LINEAR_SLIDER_FILTER_EN)
 113:Generated_Source\PSoC4/CapSense_1_Processing.c ****     static CY_INLINE void DpFilterLinSlider(
 114:Generated_Source\PSoC4/CapSense_1_Processing.c ****                         uint16 newPos, uint32 staticConfig, uint16 *ptrCurrPos,
 115:Generated_Source\PSoC4/CapSense_1_Processing.c ****                         CapSense_1_SLIDER_POS_HISTORY_STRUCT *ptrHistory);
 116:Generated_Source\PSoC4/CapSense_1_Processing.c **** #endif /* #if (0u != DP_LINEAR_SLIDER_FILTER_EN) */
 117:Generated_Source\PSoC4/CapSense_1_Processing.c **** 
 118:Generated_Source\PSoC4/CapSense_1_Processing.c **** #if (0u != CapSense_1_TOTAL_RADIAL_SLIDERS)
 119:Generated_Source\PSoC4/CapSense_1_Processing.c ****     static CY_INLINE void DpUpdateRadSlider(
 120:Generated_Source\PSoC4/CapSense_1_Processing.c ****                         const uint16 newPos[], uint32 numTouches,
 121:Generated_Source\PSoC4/CapSense_1_Processing.c ****                         CapSense_1_FLASH_WD_STRUCT const * ptrFlashWdgt,
 122:Generated_Source\PSoC4/CapSense_1_Processing.c ****                         CapSense_1_RAM_WD_SLIDER_STRUCT *ptrRamWdgt);
 123:Generated_Source\PSoC4/CapSense_1_Processing.c **** #endif /* #if (0u != CapSense_1_TOTAL_RADIAL_SLIDERS) */
 124:Generated_Source\PSoC4/CapSense_1_Processing.c **** 
 125:Generated_Source\PSoC4/CapSense_1_Processing.c **** #if (0u != CapSense_1_CSD_TOUCHPAD_WIDGET_EN)
 126:Generated_Source\PSoC4/CapSense_1_Processing.c ****     static CY_INLINE void CapSense_1_DpInitCsdTouchpad(CapSense_1_FLASH_WD_STRUCT const * ptrFlashW
 127:Generated_Source\PSoC4/CapSense_1_Processing.c **** #endif /* #if (0u != CapSense_1_CSD_TOUCHPAD_WIDGET_EN) */
 128:Generated_Source\PSoC4/CapSense_1_Processing.c **** 
 129:Generated_Source\PSoC4/CapSense_1_Processing.c **** #if (0u != CapSense_1_CSX_TOUCHPAD_WIDGET_EN)
 130:Generated_Source\PSoC4/CapSense_1_Processing.c ****     static CY_INLINE void CapSense_1_DpInitCsxTouchpad(CapSense_1_FLASH_WD_STRUCT const * ptrFlashW
 131:Generated_Source\PSoC4/CapSense_1_Processing.c **** #endif /* #if (0u != CapSense_1_CSX_TOUCHPAD_WIDGET_EN) */
 132:Generated_Source\PSoC4/CapSense_1_Processing.c **** 
 133:Generated_Source\PSoC4/CapSense_1_Processing.c **** #if (0u != CapSense_1_SLIDER_WIDGET_EN)
 134:Generated_Source\PSoC4/CapSense_1_Processing.c ****     static CY_INLINE void CapSense_1_DpInitSlider(CapSense_1_FLASH_WD_STRUCT const * ptrFlashWdgt);
 135:Generated_Source\PSoC4/CapSense_1_Processing.c **** #endif /* #if (0u != CapSense_1_SLIDER_WIDGET_EN) */
 136:Generated_Source\PSoC4/CapSense_1_Processing.c **** 
 137:Generated_Source\PSoC4/CapSense_1_Processing.c **** #if (0u != CapSense_1_CSD_MATRIX_WIDGET_EN)
 138:Generated_Source\PSoC4/CapSense_1_Processing.c ****     static CY_INLINE void CapSense_1_DpInitCsdMatrix(CapSense_1_FLASH_WD_STRUCT const * ptrFlashWdg
 139:Generated_Source\PSoC4/CapSense_1_Processing.c **** #endif /* #if (0u != CapSense_1_CSD_MATRIX_WIDGET_EN) */
 140:Generated_Source\PSoC4/CapSense_1_Processing.c **** 
 141:Generated_Source\PSoC4/CapSense_1_Processing.c **** /** \}
 142:Generated_Source\PSoC4/CapSense_1_Processing.c **** * \endif */
 143:Generated_Source\PSoC4/CapSense_1_Processing.c **** 
 144:Generated_Source\PSoC4/CapSense_1_Processing.c **** #if (0u != CapSense_1_CSD_TOUCHPAD_WIDGET_EN)
 145:Generated_Source\PSoC4/CapSense_1_Processing.c **** /*******************************************************************************
 146:Generated_Source\PSoC4/CapSense_1_Processing.c **** * Function Name: CapSense_1_DpInitCsdTouchpad
ARM GAS  C:\Users\Jannai\AppData\Local\Temp\ccRbizMh.s 			page 4


 147:Generated_Source\PSoC4/CapSense_1_Processing.c **** ****************************************************************************//**
 148:Generated_Source\PSoC4/CapSense_1_Processing.c **** *
 149:Generated_Source\PSoC4/CapSense_1_Processing.c **** * \brief
 150:Generated_Source\PSoC4/CapSense_1_Processing.c **** *  Performs initialization of the CSD touchpad widget.
 151:Generated_Source\PSoC4/CapSense_1_Processing.c **** *   - Resets the position data to NONE
 152:Generated_Source\PSoC4/CapSense_1_Processing.c **** *   - Initializes the median filter history if the appropriate position filter is enabled.
 153:Generated_Source\PSoC4/CapSense_1_Processing.c **** *
 154:Generated_Source\PSoC4/CapSense_1_Processing.c **** * \details
 155:Generated_Source\PSoC4/CapSense_1_Processing.c **** *  The position data is always reset to the CapSense_1_TOUCHPAD_POS_NONE value.
 156:Generated_Source\PSoC4/CapSense_1_Processing.c **** *  The same happens to the median filter history data if this type of filter is enabled.
 157:Generated_Source\PSoC4/CapSense_1_Processing.c **** *
 158:Generated_Source\PSoC4/CapSense_1_Processing.c **** *******************************************************************************/
 159:Generated_Source\PSoC4/CapSense_1_Processing.c **** static CY_INLINE void CapSense_1_DpInitCsdTouchpad(CapSense_1_FLASH_WD_STRUCT const * ptrFlashWdgt)
 160:Generated_Source\PSoC4/CapSense_1_Processing.c **** {
 161:Generated_Source\PSoC4/CapSense_1_Processing.c ****     CapSense_1_RAM_WD_CSD_TOUCHPAD_STRUCT *ptrWdTouchpad;
 162:Generated_Source\PSoC4/CapSense_1_Processing.c **** 
 163:Generated_Source\PSoC4/CapSense_1_Processing.c ****     #if (0u != CapSense_1_POS_MEDIAN_FILTER_EN)
 164:Generated_Source\PSoC4/CapSense_1_Processing.c ****         CapSense_1_TOUCHPAD_POS_HISTORY_STRUCT *ptrHistory;
 165:Generated_Source\PSoC4/CapSense_1_Processing.c ****     #endif  /* #if (0u != CapSense_1_POS_MEDIAN_FILTER_EN) */
 166:Generated_Source\PSoC4/CapSense_1_Processing.c **** 
 167:Generated_Source\PSoC4/CapSense_1_Processing.c ****     ptrWdTouchpad = ptrFlashWdgt->ptr2WdgtRam;
 168:Generated_Source\PSoC4/CapSense_1_Processing.c **** 
 169:Generated_Source\PSoC4/CapSense_1_Processing.c ****     /* Reset position data */
 170:Generated_Source\PSoC4/CapSense_1_Processing.c ****     ptrWdTouchpad->posX = CapSense_1_TOUCHPAD_POS_NONE;
 171:Generated_Source\PSoC4/CapSense_1_Processing.c ****     ptrWdTouchpad->posY = CapSense_1_TOUCHPAD_POS_NONE;
 172:Generated_Source\PSoC4/CapSense_1_Processing.c **** 
 173:Generated_Source\PSoC4/CapSense_1_Processing.c ****     /* Reset median filter */
 174:Generated_Source\PSoC4/CapSense_1_Processing.c ****     #if (0u != CapSense_1_POS_MEDIAN_FILTER_EN)
 175:Generated_Source\PSoC4/CapSense_1_Processing.c ****         ptrHistory = ptrFlashWdgt->ptr2PosHistory;
 176:Generated_Source\PSoC4/CapSense_1_Processing.c **** 
 177:Generated_Source\PSoC4/CapSense_1_Processing.c ****         if (NULL != ptrHistory)
 178:Generated_Source\PSoC4/CapSense_1_Processing.c ****         {
 179:Generated_Source\PSoC4/CapSense_1_Processing.c ****             ptrHistory->xPos.posMedianZ1 = CapSense_1_TOUCHPAD_POS_NONE;
 180:Generated_Source\PSoC4/CapSense_1_Processing.c ****             ptrHistory->xPos.posMedianZ2 = CapSense_1_TOUCHPAD_POS_NONE;
 181:Generated_Source\PSoC4/CapSense_1_Processing.c **** 
 182:Generated_Source\PSoC4/CapSense_1_Processing.c ****             ptrHistory->yPos.posMedianZ1 = CapSense_1_TOUCHPAD_POS_NONE;
 183:Generated_Source\PSoC4/CapSense_1_Processing.c ****             ptrHistory->yPos.posMedianZ2 = CapSense_1_TOUCHPAD_POS_NONE;
 184:Generated_Source\PSoC4/CapSense_1_Processing.c ****         }
 185:Generated_Source\PSoC4/CapSense_1_Processing.c ****     #endif /* #if (0u != CapSense_1_POS_MEDIAN_FILTER_EN) */
 186:Generated_Source\PSoC4/CapSense_1_Processing.c **** }
 187:Generated_Source\PSoC4/CapSense_1_Processing.c **** #endif /* #if (0u != CapSense_1_CSD_TOUCHPAD_WIDGET_EN) */
 188:Generated_Source\PSoC4/CapSense_1_Processing.c **** 
 189:Generated_Source\PSoC4/CapSense_1_Processing.c **** #if (0u != CapSense_1_CSX_TOUCHPAD_WIDGET_EN)
 190:Generated_Source\PSoC4/CapSense_1_Processing.c **** /*******************************************************************************
 191:Generated_Source\PSoC4/CapSense_1_Processing.c **** * Function Name: CapSense_1_DpInitCsxTouchpad
 192:Generated_Source\PSoC4/CapSense_1_Processing.c **** ****************************************************************************//**
 193:Generated_Source\PSoC4/CapSense_1_Processing.c **** *
 194:Generated_Source\PSoC4/CapSense_1_Processing.c **** * \brief
 195:Generated_Source\PSoC4/CapSense_1_Processing.c **** *  Performs initialization of the CSX touchpad widget i.e. Resets the position data to NONE.
 196:Generated_Source\PSoC4/CapSense_1_Processing.c **** *
 197:Generated_Source\PSoC4/CapSense_1_Processing.c **** * \details
 198:Generated_Source\PSoC4/CapSense_1_Processing.c **** *  The position data is always reset to the CapSense_1_TOUCHPAD_POS_NONE value.
 199:Generated_Source\PSoC4/CapSense_1_Processing.c **** *
 200:Generated_Source\PSoC4/CapSense_1_Processing.c **** *******************************************************************************/
 201:Generated_Source\PSoC4/CapSense_1_Processing.c **** static CY_INLINE void CapSense_1_DpInitCsxTouchpad(CapSense_1_FLASH_WD_STRUCT const * ptrFlashWdgt)
 202:Generated_Source\PSoC4/CapSense_1_Processing.c **** {
 203:Generated_Source\PSoC4/CapSense_1_Processing.c ****     CapSense_1_RAM_WD_CSX_TOUCHPAD_STRUCT *ptrWdTouchpad;
ARM GAS  C:\Users\Jannai\AppData\Local\Temp\ccRbizMh.s 			page 5


 204:Generated_Source\PSoC4/CapSense_1_Processing.c **** 
 205:Generated_Source\PSoC4/CapSense_1_Processing.c ****     ptrWdTouchpad = ptrFlashWdgt->ptr2WdgtRam;
 206:Generated_Source\PSoC4/CapSense_1_Processing.c **** 
 207:Generated_Source\PSoC4/CapSense_1_Processing.c ****     /* Reset position data for finger */
 208:Generated_Source\PSoC4/CapSense_1_Processing.c ****     ptrWdTouchpad->touch[0u].x = CapSense_1_TOUCHPAD_POS_NONE;
 209:Generated_Source\PSoC4/CapSense_1_Processing.c ****     ptrWdTouchpad->touch[0u].y = CapSense_1_TOUCHPAD_POS_NONE;
 210:Generated_Source\PSoC4/CapSense_1_Processing.c ****     ptrWdTouchpad->touch[0u].z = LO8(CapSense_1_TOUCHPAD_POS_NONE);
 211:Generated_Source\PSoC4/CapSense_1_Processing.c **** 
 212:Generated_Source\PSoC4/CapSense_1_Processing.c ****     #if (CapSense_1_CSX_MAX_FINGERS > 1u)
 213:Generated_Source\PSoC4/CapSense_1_Processing.c ****         ptrWdTouchpad->touch[1u].x = CapSense_1_TOUCHPAD_POS_NONE;
 214:Generated_Source\PSoC4/CapSense_1_Processing.c ****         ptrWdTouchpad->touch[1u].y = CapSense_1_TOUCHPAD_POS_NONE;
 215:Generated_Source\PSoC4/CapSense_1_Processing.c ****         ptrWdTouchpad->touch[1u].z = LO8(CapSense_1_TOUCHPAD_POS_NONE);
 216:Generated_Source\PSoC4/CapSense_1_Processing.c ****     #endif /* #if (CapSense_1_CSX_MAX_FINGERS > 1u) */
 217:Generated_Source\PSoC4/CapSense_1_Processing.c **** 
 218:Generated_Source\PSoC4/CapSense_1_Processing.c ****     #if (CapSense_1_CSX_MAX_FINGERS > 2u)
 219:Generated_Source\PSoC4/CapSense_1_Processing.c ****         ptrWdTouchpad->touch[2u].x = CapSense_1_TOUCHPAD_POS_NONE;
 220:Generated_Source\PSoC4/CapSense_1_Processing.c ****         ptrWdTouchpad->touch[2u].y = CapSense_1_TOUCHPAD_POS_NONE;
 221:Generated_Source\PSoC4/CapSense_1_Processing.c ****         ptrWdTouchpad->touch[2u].z = LO8(CapSense_1_TOUCHPAD_POS_NONE);
 222:Generated_Source\PSoC4/CapSense_1_Processing.c ****     #endif /* #if (CapSense_1_CSX_MAX_FINGERS > 2u) */
 223:Generated_Source\PSoC4/CapSense_1_Processing.c **** }
 224:Generated_Source\PSoC4/CapSense_1_Processing.c **** #endif /* #if (0u != CapSense_1_CSX_TOUCHPAD_WIDGET_EN) */
 225:Generated_Source\PSoC4/CapSense_1_Processing.c **** 
 226:Generated_Source\PSoC4/CapSense_1_Processing.c **** #if (0u != CapSense_1_SLIDER_WIDGET_EN)
 227:Generated_Source\PSoC4/CapSense_1_Processing.c **** /*******************************************************************************
 228:Generated_Source\PSoC4/CapSense_1_Processing.c **** * Function Name: CapSense_1_DpInitSlider
 229:Generated_Source\PSoC4/CapSense_1_Processing.c **** ****************************************************************************//**
 230:Generated_Source\PSoC4/CapSense_1_Processing.c **** *
 231:Generated_Source\PSoC4/CapSense_1_Processing.c **** * \brief
 232:Generated_Source\PSoC4/CapSense_1_Processing.c **** *  Performs initialization of the Radial and Linear Slider widget.
 233:Generated_Source\PSoC4/CapSense_1_Processing.c **** *   - Resets the position data to NONE
 234:Generated_Source\PSoC4/CapSense_1_Processing.c **** *   - Initializes the median filter history to NONE if it is enabled.
 235:Generated_Source\PSoC4/CapSense_1_Processing.c **** *
 236:Generated_Source\PSoC4/CapSense_1_Processing.c **** * \details
 237:Generated_Source\PSoC4/CapSense_1_Processing.c **** *  Position data is always reset to the CapSense_1_SLIDER_POS_NONE value.
 238:Generated_Source\PSoC4/CapSense_1_Processing.c **** *  The same happens to the median filter history data.
 239:Generated_Source\PSoC4/CapSense_1_Processing.c **** *
 240:Generated_Source\PSoC4/CapSense_1_Processing.c **** *******************************************************************************/
 241:Generated_Source\PSoC4/CapSense_1_Processing.c **** static CY_INLINE void CapSense_1_DpInitSlider(CapSense_1_FLASH_WD_STRUCT const * ptrFlashWdgt)
 242:Generated_Source\PSoC4/CapSense_1_Processing.c **** {
 243:Generated_Source\PSoC4/CapSense_1_Processing.c ****     uint32 idx;
 244:Generated_Source\PSoC4/CapSense_1_Processing.c ****     CapSense_1_RAM_WD_SLIDER_STRUCT *ptrWdSlider;
 245:Generated_Source\PSoC4/CapSense_1_Processing.c **** 
 246:Generated_Source\PSoC4/CapSense_1_Processing.c ****     #if (0u != CapSense_1_POS_MEDIAN_FILTER_EN)
 247:Generated_Source\PSoC4/CapSense_1_Processing.c ****         CapSense_1_SLIDER_POS_HISTORY_STRUCT *ptrHistory;
 248:Generated_Source\PSoC4/CapSense_1_Processing.c ****     #endif /* #if (0u != CapSense_1_POS_MEDIAN_FILTER_EN) */
 249:Generated_Source\PSoC4/CapSense_1_Processing.c **** 
 250:Generated_Source\PSoC4/CapSense_1_Processing.c ****     ptrWdSlider = ptrFlashWdgt->ptr2WdgtRam;
 251:Generated_Source\PSoC4/CapSense_1_Processing.c **** 
 252:Generated_Source\PSoC4/CapSense_1_Processing.c ****     /* Reset slider position data to NONE */
 253:Generated_Source\PSoC4/CapSense_1_Processing.c ****     for (idx = 0u; idx < CapSense_1_NUM_CENTROIDS; idx++)
 254:Generated_Source\PSoC4/CapSense_1_Processing.c ****     {
 255:Generated_Source\PSoC4/CapSense_1_Processing.c ****         ptrWdSlider->position[idx] = CapSense_1_SLIDER_POS_NONE;
 256:Generated_Source\PSoC4/CapSense_1_Processing.c **** 
 257:Generated_Source\PSoC4/CapSense_1_Processing.c ****         #if (0u != CapSense_1_POS_MEDIAN_FILTER_EN)
 258:Generated_Source\PSoC4/CapSense_1_Processing.c ****             ptrHistory = ptrFlashWdgt->ptr2PosHistory;
 259:Generated_Source\PSoC4/CapSense_1_Processing.c ****             
 260:Generated_Source\PSoC4/CapSense_1_Processing.c ****             if (NULL != ptrHistory)
ARM GAS  C:\Users\Jannai\AppData\Local\Temp\ccRbizMh.s 			page 6


 261:Generated_Source\PSoC4/CapSense_1_Processing.c ****             {
 262:Generated_Source\PSoC4/CapSense_1_Processing.c ****                 ptrHistory[idx].posMedianZ1 = CapSense_1_SLIDER_POS_NONE;
 263:Generated_Source\PSoC4/CapSense_1_Processing.c ****                 ptrHistory[idx].posMedianZ2 = CapSense_1_SLIDER_POS_NONE;
 264:Generated_Source\PSoC4/CapSense_1_Processing.c ****             }
 265:Generated_Source\PSoC4/CapSense_1_Processing.c ****         #endif /* #if (0u != CapSense_1_POS_MEDIAN_FILTER_EN) */
 266:Generated_Source\PSoC4/CapSense_1_Processing.c ****     }
 267:Generated_Source\PSoC4/CapSense_1_Processing.c **** }
 268:Generated_Source\PSoC4/CapSense_1_Processing.c **** #endif /* #if (0u != CapSense_1_SLIDER_WIDGET_EN) */
 269:Generated_Source\PSoC4/CapSense_1_Processing.c **** 
 270:Generated_Source\PSoC4/CapSense_1_Processing.c **** #if (0u != CapSense_1_CSD_MATRIX_WIDGET_EN)
 271:Generated_Source\PSoC4/CapSense_1_Processing.c **** /*******************************************************************************
 272:Generated_Source\PSoC4/CapSense_1_Processing.c **** * Function Name: CapSense_1_DpInitCsdMatrix
 273:Generated_Source\PSoC4/CapSense_1_Processing.c **** ****************************************************************************//**
 274:Generated_Source\PSoC4/CapSense_1_Processing.c **** *
 275:Generated_Source\PSoC4/CapSense_1_Processing.c **** * \brief
 276:Generated_Source\PSoC4/CapSense_1_Processing.c **** *  Performs initialization of the CSD Matrix Buttons widget.
 277:Generated_Source\PSoC4/CapSense_1_Processing.c **** *   - Resets the active button position data to NONE.
 278:Generated_Source\PSoC4/CapSense_1_Processing.c **** *
 279:Generated_Source\PSoC4/CapSense_1_Processing.c **** * \details
 280:Generated_Source\PSoC4/CapSense_1_Processing.c **** *  Position data is always reset to the CapSense_1_MATRIX_POS_NONE value.
 281:Generated_Source\PSoC4/CapSense_1_Processing.c **** *
 282:Generated_Source\PSoC4/CapSense_1_Processing.c **** *******************************************************************************/
 283:Generated_Source\PSoC4/CapSense_1_Processing.c **** static CY_INLINE void CapSense_1_DpInitCsdMatrix(CapSense_1_FLASH_WD_STRUCT const * ptrFlashWdgt)
 284:Generated_Source\PSoC4/CapSense_1_Processing.c **** {
 285:Generated_Source\PSoC4/CapSense_1_Processing.c ****     CapSense_1_RAM_WD_CSD_MATRIX_STRUCT *ptrRamWdgt;
 286:Generated_Source\PSoC4/CapSense_1_Processing.c **** 
 287:Generated_Source\PSoC4/CapSense_1_Processing.c ****     ptrRamWdgt = ptrFlashWdgt->ptr2WdgtRam;
 288:Generated_Source\PSoC4/CapSense_1_Processing.c **** 
 289:Generated_Source\PSoC4/CapSense_1_Processing.c ****     /* Reset sensor id, row and col registers in data structure */
 290:Generated_Source\PSoC4/CapSense_1_Processing.c ****     ptrRamWdgt->posRow   = CapSense_1_MATRIX_POS_NONE;
 291:Generated_Source\PSoC4/CapSense_1_Processing.c ****     ptrRamWdgt->posCol   = CapSense_1_MATRIX_POS_NONE;
 292:Generated_Source\PSoC4/CapSense_1_Processing.c ****     ptrRamWdgt->posSnsId = CapSense_1_MATRIX_POS_NONE;
 293:Generated_Source\PSoC4/CapSense_1_Processing.c **** }
 294:Generated_Source\PSoC4/CapSense_1_Processing.c **** #endif /* #if (0u != CapSense_1_CSD_MATRIX_WIDGET_EN) */
 295:Generated_Source\PSoC4/CapSense_1_Processing.c **** 
 296:Generated_Source\PSoC4/CapSense_1_Processing.c **** /*******************************************************************************
 297:Generated_Source\PSoC4/CapSense_1_Processing.c **** * Function Name: CapSense_1_DpInitialize
 298:Generated_Source\PSoC4/CapSense_1_Processing.c **** ****************************************************************************//**
 299:Generated_Source\PSoC4/CapSense_1_Processing.c **** *
 300:Generated_Source\PSoC4/CapSense_1_Processing.c **** * \brief
 301:Generated_Source\PSoC4/CapSense_1_Processing.c **** *  Performs initialization of the data processing FW module:
 302:Generated_Source\PSoC4/CapSense_1_Processing.c **** *   - Resets the de-bounce counters of all widgets
 303:Generated_Source\PSoC4/CapSense_1_Processing.c **** *   - Resets the position filter history for slider and touchpad widgets
 304:Generated_Source\PSoC4/CapSense_1_Processing.c **** *   - Clears widget and sensor statuses
 305:Generated_Source\PSoC4/CapSense_1_Processing.c **** *   - Enables all widgets.
 306:Generated_Source\PSoC4/CapSense_1_Processing.c **** *
 307:Generated_Source\PSoC4/CapSense_1_Processing.c **** * \details
 308:Generated_Source\PSoC4/CapSense_1_Processing.c **** *  The Button and Matrix Button widgets have individual de-bounce counter per
 309:Generated_Source\PSoC4/CapSense_1_Processing.c **** *  sensor for the CSD widgets and per node for the CSX widgets.
 310:Generated_Source\PSoC4/CapSense_1_Processing.c **** *
 311:Generated_Source\PSoC4/CapSense_1_Processing.c **** *  The Slider and Touchpad widgets have a single de-bounce counter per widget.
 312:Generated_Source\PSoC4/CapSense_1_Processing.c **** *
 313:Generated_Source\PSoC4/CapSense_1_Processing.c **** *  The Proximity widget has two de-bounce counters per sensor. One for the
 314:Generated_Source\PSoC4/CapSense_1_Processing.c **** *  proximity event and second for the touch event.
 315:Generated_Source\PSoC4/CapSense_1_Processing.c **** *
 316:Generated_Source\PSoC4/CapSense_1_Processing.c **** *  All debounce counters during initialization are set to the value of the
 317:Generated_Source\PSoC4/CapSense_1_Processing.c **** *  onDebounce widget parameter.
ARM GAS  C:\Users\Jannai\AppData\Local\Temp\ccRbizMh.s 			page 7


 318:Generated_Source\PSoC4/CapSense_1_Processing.c **** *
 319:Generated_Source\PSoC4/CapSense_1_Processing.c **** *******************************************************************************/
 320:Generated_Source\PSoC4/CapSense_1_Processing.c **** void CapSense_1_DpInitialize(void)
 321:Generated_Source\PSoC4/CapSense_1_Processing.c **** {
  26              		.loc 1 321 0
  27              		.cfi_startproc
  28 0000 70B5     		push	{r4, r5, r6, lr}
  29              		.cfi_def_cfa_offset 16
  30              		.cfi_offset 4, -16
  31              		.cfi_offset 5, -12
  32              		.cfi_offset 6, -8
  33              		.cfi_offset 14, -4
  34              	.LVL0:
 322:Generated_Source\PSoC4/CapSense_1_Processing.c ****     uint32 wdgtId;
 323:Generated_Source\PSoC4/CapSense_1_Processing.c ****     CapSense_1_WD_TYPE_ENUM widgetType;
 324:Generated_Source\PSoC4/CapSense_1_Processing.c ****     CapSense_1_RAM_WD_BASE_STRUCT * ptrRamWdgt;
 325:Generated_Source\PSoC4/CapSense_1_Processing.c ****     CapSense_1_FLASH_WD_STRUCT const * ptrFlashWdgt;
 326:Generated_Source\PSoC4/CapSense_1_Processing.c **** 
 327:Generated_Source\PSoC4/CapSense_1_Processing.c ****     for (wdgtId = 0u; wdgtId < CapSense_1_WDGT_STATUS_WORDS; wdgtId++)
  35              		.loc 1 327 0
  36 0002 0023     		mov	r3, #0
  37 0004 0BE0     		b	.L2
  38              	.LVL1:
  39              	.L3:
 328:Generated_Source\PSoC4/CapSense_1_Processing.c ****     {
 329:Generated_Source\PSoC4/CapSense_1_Processing.c ****         /* Clear widget status */
 330:Generated_Source\PSoC4/CapSense_1_Processing.c ****         CapSense_1_dsRam.wdgtStatus[wdgtId] = 0u;
  40              		.loc 1 330 0 discriminator 3
  41 0006 1348     		ldr	r0, .L8
  42 0008 191D     		add	r1, r3, #4
  43 000a 8900     		lsl	r1, r1, #2
  44 000c 0022     		mov	r2, #0
  45 000e 0A50     		str	r2, [r1, r0]
 331:Generated_Source\PSoC4/CapSense_1_Processing.c **** 
 332:Generated_Source\PSoC4/CapSense_1_Processing.c ****         /* Enable all widgets */
 333:Generated_Source\PSoC4/CapSense_1_Processing.c ****         CapSense_1_dsRam.wdgtEnable[wdgtId] = 0xFFFFFFFFLu;
  46              		.loc 1 333 0 discriminator 3
  47 0010 9A1C     		add	r2, r3, #2
  48 0012 9200     		lsl	r2, r2, #2
  49 0014 8218     		add	r2, r0, r2
  50 0016 0121     		mov	r1, #1
  51 0018 4942     		neg	r1, r1
  52 001a 5160     		str	r1, [r2, #4]
 327:Generated_Source\PSoC4/CapSense_1_Processing.c ****     {
  53              		.loc 1 327 0 discriminator 3
  54 001c 0133     		add	r3, r3, #1
  55              	.LVL2:
  56              	.L2:
 327:Generated_Source\PSoC4/CapSense_1_Processing.c ****     {
  57              		.loc 1 327 0 is_stmt 0 discriminator 1
  58 001e 002B     		cmp	r3, #0
  59 0020 F1D0     		beq	.L3
  60 0022 0D4C     		ldr	r4, .L8+4
  61 0024 0123     		mov	r3, #1
  62              	.LVL3:
  63 0026 10E0     		b	.L4
  64              	.LVL4:
ARM GAS  C:\Users\Jannai\AppData\Local\Temp\ccRbizMh.s 			page 8


  65              	.L7:
 334:Generated_Source\PSoC4/CapSense_1_Processing.c **** 
 335:Generated_Source\PSoC4/CapSense_1_Processing.c ****         /* Set all widgets to working state if the Self-Test is not enabled */
 336:Generated_Source\PSoC4/CapSense_1_Processing.c ****         #if (0u != CapSense_1_SELF_TEST_EN)
 337:Generated_Source\PSoC4/CapSense_1_Processing.c ****             CapSense_1_dsRam.wdgtWorking[wdgtId] = 0xFFFFFFFFLu;
 338:Generated_Source\PSoC4/CapSense_1_Processing.c ****         #endif /* #if (0u == CapSense_1_SELF_TEST_EN) */
 339:Generated_Source\PSoC4/CapSense_1_Processing.c ****     }
 340:Generated_Source\PSoC4/CapSense_1_Processing.c **** 
 341:Generated_Source\PSoC4/CapSense_1_Processing.c ****     ptrFlashWdgt = CapSense_1_dsFlash.wdgtArray;
 342:Generated_Source\PSoC4/CapSense_1_Processing.c **** 
 343:Generated_Source\PSoC4/CapSense_1_Processing.c ****     for (wdgtId = CapSense_1_TOTAL_WIDGETS; wdgtId-- > 0u; )
 344:Generated_Source\PSoC4/CapSense_1_Processing.c ****     {
 345:Generated_Source\PSoC4/CapSense_1_Processing.c ****         ptrRamWdgt = ptrFlashWdgt->ptr2WdgtRam;
  66              		.loc 1 345 0 is_stmt 1
  67 0028 6668     		ldr	r6, [r4, #4]
  68              	.LVL5:
 346:Generated_Source\PSoC4/CapSense_1_Processing.c ****         widgetType = (CapSense_1_WD_TYPE_ENUM)ptrFlashWdgt->wdgtType;
  69              		.loc 1 346 0
  70 002a 227E     		ldrb	r2, [r4, #24]
  71              	.LVL6:
 347:Generated_Source\PSoC4/CapSense_1_Processing.c **** 
 348:Generated_Source\PSoC4/CapSense_1_Processing.c ****         /* Clear all sensor statuses */
 349:Generated_Source\PSoC4/CapSense_1_Processing.c ****         CapSense_1_dsRam.snsStatus[wdgtId] = 0u;
  72              		.loc 1 349 0
  73 002c 094B     		ldr	r3, .L8
  74 002e 5B19     		add	r3, r3, r5
  75 0030 0021     		mov	r1, #0
  76 0032 1975     		strb	r1, [r3, #20]
 350:Generated_Source\PSoC4/CapSense_1_Processing.c **** 
 351:Generated_Source\PSoC4/CapSense_1_Processing.c ****         /* Reset de-bounce counters */
 352:Generated_Source\PSoC4/CapSense_1_Processing.c ****         switch (widgetType)
  77              		.loc 1 352 0
  78 0034 012A     		cmp	r2, #1
  79 0036 06D1     		bne	.L5
 353:Generated_Source\PSoC4/CapSense_1_Processing.c ****         {
 354:Generated_Source\PSoC4/CapSense_1_Processing.c ****         #if (0u != CapSense_1_MATRIX_WIDGET_EN)
 355:Generated_Source\PSoC4/CapSense_1_Processing.c ****             case CapSense_1_WD_MATRIX_BUTTON_E:
 356:Generated_Source\PSoC4/CapSense_1_Processing.c ****                 #if (0u != CapSense_1_CSD_MATRIX_WIDGET_EN)
 357:Generated_Source\PSoC4/CapSense_1_Processing.c ****                     if (CapSense_1_SENSE_METHOD_CSD_E == CapSense_1_GET_SENSE_METHOD(ptrFlashWdgt))
 358:Generated_Source\PSoC4/CapSense_1_Processing.c ****                     {
 359:Generated_Source\PSoC4/CapSense_1_Processing.c ****                         CapSense_1_DpInitCsdMatrix(ptrFlashWdgt);
 360:Generated_Source\PSoC4/CapSense_1_Processing.c ****                     }
 361:Generated_Source\PSoC4/CapSense_1_Processing.c ****                 #endif /* #if (0u != CapSense_1_CSD_MATRIX_WIDGET_EN) */
 362:Generated_Source\PSoC4/CapSense_1_Processing.c ****                 
 363:Generated_Source\PSoC4/CapSense_1_Processing.c ****                 if (NULL != ptrFlashWdgt->ptr2DebounceArr)
 364:Generated_Source\PSoC4/CapSense_1_Processing.c ****                 {
 365:Generated_Source\PSoC4/CapSense_1_Processing.c ****                     /* Initialize array of debounce counters */
 366:Generated_Source\PSoC4/CapSense_1_Processing.c ****                     (void)memset(ptrFlashWdgt->ptr2DebounceArr, 
 367:Generated_Source\PSoC4/CapSense_1_Processing.c ****                                  (int32)ptrRamWdgt->onDebounce, 
 368:Generated_Source\PSoC4/CapSense_1_Processing.c ****                                  (size_t)ptrFlashWdgt->totalNumSns);
 369:Generated_Source\PSoC4/CapSense_1_Processing.c ****                 }
 370:Generated_Source\PSoC4/CapSense_1_Processing.c ****                 break;
 371:Generated_Source\PSoC4/CapSense_1_Processing.c ****         #endif /* #if (0u != CapSense_1_MATRIX_WIDGET_EN) */
 372:Generated_Source\PSoC4/CapSense_1_Processing.c ****         
 373:Generated_Source\PSoC4/CapSense_1_Processing.c ****         #if (0u != CapSense_1_BUTTON_WIDGET_EN)
 374:Generated_Source\PSoC4/CapSense_1_Processing.c ****             case CapSense_1_WD_BUTTON_E:
 375:Generated_Source\PSoC4/CapSense_1_Processing.c ****                 if (NULL != ptrFlashWdgt->ptr2DebounceArr)
ARM GAS  C:\Users\Jannai\AppData\Local\Temp\ccRbizMh.s 			page 9


  80              		.loc 1 375 0
  81 0038 2069     		ldr	r0, [r4, #16]
  82 003a 0028     		cmp	r0, #0
  83 003c 03D0     		beq	.L5
 376:Generated_Source\PSoC4/CapSense_1_Processing.c ****                 {
 377:Generated_Source\PSoC4/CapSense_1_Processing.c ****                     /* Initialize array of debounce counters */
 378:Generated_Source\PSoC4/CapSense_1_Processing.c ****                     (void)memset(ptrFlashWdgt->ptr2DebounceArr, 
 379:Generated_Source\PSoC4/CapSense_1_Processing.c ****                                  (int32)ptrRamWdgt->onDebounce, 
  84              		.loc 1 379 0
  85 003e F179     		ldrb	r1, [r6, #7]
 380:Generated_Source\PSoC4/CapSense_1_Processing.c ****                                  (size_t)ptrFlashWdgt->totalNumSns);
  86              		.loc 1 380 0
  87 0040 E28A     		ldrh	r2, [r4, #22]
  88              	.LVL7:
 378:Generated_Source\PSoC4/CapSense_1_Processing.c ****                                  (int32)ptrRamWdgt->onDebounce, 
  89              		.loc 1 378 0
  90 0042 FFF7FEFF 		bl	memset
  91              	.LVL8:
  92              	.L5:
 381:Generated_Source\PSoC4/CapSense_1_Processing.c ****                 }
 382:Generated_Source\PSoC4/CapSense_1_Processing.c ****                 break;
 383:Generated_Source\PSoC4/CapSense_1_Processing.c ****         #endif /* #if (0u != CapSense_1_BUTTON_WIDGET_EN) */
 384:Generated_Source\PSoC4/CapSense_1_Processing.c **** 
 385:Generated_Source\PSoC4/CapSense_1_Processing.c ****         #if (0u != CapSense_1_SLIDER_WIDGET_EN)
 386:Generated_Source\PSoC4/CapSense_1_Processing.c ****             case CapSense_1_WD_LINEAR_SLIDER_E:
 387:Generated_Source\PSoC4/CapSense_1_Processing.c ****             case CapSense_1_WD_RADIAL_SLIDER_E:
 388:Generated_Source\PSoC4/CapSense_1_Processing.c ****                 if (NULL != ptrFlashWdgt->ptr2DebounceArr)
 389:Generated_Source\PSoC4/CapSense_1_Processing.c ****                 {
 390:Generated_Source\PSoC4/CapSense_1_Processing.c ****                     /* Initialize single debounce counter of slider */
 391:Generated_Source\PSoC4/CapSense_1_Processing.c ****                     *(uint8 *)(ptrFlashWdgt->ptr2DebounceArr) = ptrRamWdgt->onDebounce;
 392:Generated_Source\PSoC4/CapSense_1_Processing.c ****                 }
 393:Generated_Source\PSoC4/CapSense_1_Processing.c **** 
 394:Generated_Source\PSoC4/CapSense_1_Processing.c ****                 CapSense_1_DpInitSlider(ptrFlashWdgt);
 395:Generated_Source\PSoC4/CapSense_1_Processing.c **** 
 396:Generated_Source\PSoC4/CapSense_1_Processing.c ****                 break;
 397:Generated_Source\PSoC4/CapSense_1_Processing.c ****         #endif /* #if (0u != CapSense_1_SLIDER_WIDGET_EN) */
 398:Generated_Source\PSoC4/CapSense_1_Processing.c **** 
 399:Generated_Source\PSoC4/CapSense_1_Processing.c ****         #if (0u != CapSense_1_TOUCHPAD_WIDGET_EN)
 400:Generated_Source\PSoC4/CapSense_1_Processing.c ****             case CapSense_1_WD_TOUCHPAD_E:
 401:Generated_Source\PSoC4/CapSense_1_Processing.c ****                 if (NULL != ptrFlashWdgt->ptr2DebounceArr)
 402:Generated_Source\PSoC4/CapSense_1_Processing.c ****                 {
 403:Generated_Source\PSoC4/CapSense_1_Processing.c ****                     /* Initialize single debounce counter of touchpad */
 404:Generated_Source\PSoC4/CapSense_1_Processing.c ****                     *(uint8 *)(ptrFlashWdgt->ptr2DebounceArr) = ptrRamWdgt->onDebounce;
 405:Generated_Source\PSoC4/CapSense_1_Processing.c ****                 }
 406:Generated_Source\PSoC4/CapSense_1_Processing.c **** 
 407:Generated_Source\PSoC4/CapSense_1_Processing.c ****                 #if (0u != CapSense_1_CSD_TOUCHPAD_WIDGET_EN)
 408:Generated_Source\PSoC4/CapSense_1_Processing.c ****                     if (CapSense_1_SENSE_METHOD_CSD_E == CapSense_1_GET_SENSE_METHOD(ptrFlashWdgt))
 409:Generated_Source\PSoC4/CapSense_1_Processing.c ****                     {
 410:Generated_Source\PSoC4/CapSense_1_Processing.c ****                         CapSense_1_DpInitCsdTouchpad(ptrFlashWdgt);
 411:Generated_Source\PSoC4/CapSense_1_Processing.c ****                     }
 412:Generated_Source\PSoC4/CapSense_1_Processing.c ****                 #endif /* #if (0u != CapSense_1_CSD_TOUCHPAD_WIDGET_EN) */
 413:Generated_Source\PSoC4/CapSense_1_Processing.c **** 
 414:Generated_Source\PSoC4/CapSense_1_Processing.c ****                 #if (0u != CapSense_1_CSX_TOUCHPAD_WIDGET_EN)
 415:Generated_Source\PSoC4/CapSense_1_Processing.c ****                     if (CapSense_1_SENSE_METHOD_CSX_E == CapSense_1_GET_SENSE_METHOD(ptrFlashWdgt))
 416:Generated_Source\PSoC4/CapSense_1_Processing.c ****                     {
 417:Generated_Source\PSoC4/CapSense_1_Processing.c ****                         CapSense_1_DpInitCsxTouchpad(ptrFlashWdgt);
 418:Generated_Source\PSoC4/CapSense_1_Processing.c ****                     }
ARM GAS  C:\Users\Jannai\AppData\Local\Temp\ccRbizMh.s 			page 10


 419:Generated_Source\PSoC4/CapSense_1_Processing.c ****                 #endif /* #if (0u != CapSense_1_CSX_TOUCHPAD_WIDGET_EN) */
 420:Generated_Source\PSoC4/CapSense_1_Processing.c **** 
 421:Generated_Source\PSoC4/CapSense_1_Processing.c ****                 break;
 422:Generated_Source\PSoC4/CapSense_1_Processing.c ****         #endif /* #if (0u != CapSense_1_TOUCHPAD_WIDGET_EN) */
 423:Generated_Source\PSoC4/CapSense_1_Processing.c **** 
 424:Generated_Source\PSoC4/CapSense_1_Processing.c ****         #if (0u != CapSense_1_PROXIMITY_WIDGET_EN)
 425:Generated_Source\PSoC4/CapSense_1_Processing.c ****             case CapSense_1_WD_PROXIMITY_E:
 426:Generated_Source\PSoC4/CapSense_1_Processing.c ****                 if (NULL != ptrFlashWdgt->ptr2DebounceArr)
 427:Generated_Source\PSoC4/CapSense_1_Processing.c ****                 {
 428:Generated_Source\PSoC4/CapSense_1_Processing.c ****                     /* Proximity widgets have 2 de-bounce counters per sensor. 
 429:Generated_Source\PSoC4/CapSense_1_Processing.c ****                      * Therefore the number of sensors is multiplied by 2. 
 430:Generated_Source\PSoC4/CapSense_1_Processing.c ****                      */
 431:Generated_Source\PSoC4/CapSense_1_Processing.c ****                    (void)memset(ptrFlashWdgt->ptr2DebounceArr, 
 432:Generated_Source\PSoC4/CapSense_1_Processing.c ****                                 (int32)ptrRamWdgt->onDebounce, 
 433:Generated_Source\PSoC4/CapSense_1_Processing.c ****                                 (size_t)ptrFlashWdgt->totalNumSns * 2u);
 434:Generated_Source\PSoC4/CapSense_1_Processing.c ****                 }
 435:Generated_Source\PSoC4/CapSense_1_Processing.c ****                 break;
 436:Generated_Source\PSoC4/CapSense_1_Processing.c ****         #endif /* #if (0u != CapSense_1_PROXIMITY_WIDGET_EN) */
 437:Generated_Source\PSoC4/CapSense_1_Processing.c ****                 
 438:Generated_Source\PSoC4/CapSense_1_Processing.c ****             default:
 439:Generated_Source\PSoC4/CapSense_1_Processing.c ****                 break;
 440:Generated_Source\PSoC4/CapSense_1_Processing.c ****         }
 441:Generated_Source\PSoC4/CapSense_1_Processing.c **** 
 442:Generated_Source\PSoC4/CapSense_1_Processing.c ****         /* Move to next widget */
 443:Generated_Source\PSoC4/CapSense_1_Processing.c ****         ptrFlashWdgt++;
  93              		.loc 1 443 0
  94 0046 1C34     		add	r4, r4, #28
  95              	.LVL9:
 343:Generated_Source\PSoC4/CapSense_1_Processing.c ****     {
  96              		.loc 1 343 0
  97 0048 2B1C     		mov	r3, r5
  98              	.LVL10:
  99              	.L4:
 343:Generated_Source\PSoC4/CapSense_1_Processing.c ****     {
 100              		.loc 1 343 0 is_stmt 0 discriminator 1
 101 004a 5D1E     		sub	r5, r3, #1
 102              	.LVL11:
 103 004c 002B     		cmp	r3, #0
 104 004e EBD1     		bne	.L7
 444:Generated_Source\PSoC4/CapSense_1_Processing.c ****     }
 445:Generated_Source\PSoC4/CapSense_1_Processing.c **** }
 105              		.loc 1 445 0 is_stmt 1
 106              		@ sp needed
 107              	.LVL12:
 108              	.LVL13:
 109 0050 70BD     		pop	{r4, r5, r6, pc}
 110              	.L9:
 111 0052 C046     		.align	2
 112              	.L8:
 113 0054 00000000 		.word	CapSense_1_dsRam
 114 0058 00000000 		.word	CapSense_1_dsFlash
 115              		.cfi_endproc
 116              	.LFE2:
 117              		.size	CapSense_1_DpInitialize, .-CapSense_1_DpInitialize
 118              		.section	.text.CapSense_1_DpUpdateDifferences,"ax",%progbits
 119              		.align	2
 120              		.global	CapSense_1_DpUpdateDifferences
ARM GAS  C:\Users\Jannai\AppData\Local\Temp\ccRbizMh.s 			page 11


 121              		.code	16
 122              		.thumb_func
 123              		.type	CapSense_1_DpUpdateDifferences, %function
 124              	CapSense_1_DpUpdateDifferences:
 125              	.LFB6:
 446:Generated_Source\PSoC4/CapSense_1_Processing.c **** 
 447:Generated_Source\PSoC4/CapSense_1_Processing.c **** #if (0u != CapSense_1_TOTAL_CSX_WIDGETS)
 448:Generated_Source\PSoC4/CapSense_1_Processing.c **** /*******************************************************************************
 449:Generated_Source\PSoC4/CapSense_1_Processing.c **** * Function Name: CapSense_1_DpProcessCsxWidgetRawCounts
 450:Generated_Source\PSoC4/CapSense_1_Processing.c **** ****************************************************************************//**
 451:Generated_Source\PSoC4/CapSense_1_Processing.c **** *
 452:Generated_Source\PSoC4/CapSense_1_Processing.c **** * \brief
 453:Generated_Source\PSoC4/CapSense_1_Processing.c **** *  Performs default processing of the CSX raw counts.
 454:Generated_Source\PSoC4/CapSense_1_Processing.c **** *
 455:Generated_Source\PSoC4/CapSense_1_Processing.c **** * \details
 456:Generated_Source\PSoC4/CapSense_1_Processing.c **** *  Performs default processing of the CSX raw counts:
 457:Generated_Source\PSoC4/CapSense_1_Processing.c **** *   - Run Filters
 458:Generated_Source\PSoC4/CapSense_1_Processing.c **** *   - Update Baselines
 459:Generated_Source\PSoC4/CapSense_1_Processing.c **** *   - Update Differences
 460:Generated_Source\PSoC4/CapSense_1_Processing.c **** *   - Update Status.
 461:Generated_Source\PSoC4/CapSense_1_Processing.c **** *  The same process is applied to all sensors of the specified widget.
 462:Generated_Source\PSoC4/CapSense_1_Processing.c **** *
 463:Generated_Source\PSoC4/CapSense_1_Processing.c **** * \param ptrFlashWdgt The pointer to the Flash widget structure.
 464:Generated_Source\PSoC4/CapSense_1_Processing.c **** *
 465:Generated_Source\PSoC4/CapSense_1_Processing.c **** *******************************************************************************/
 466:Generated_Source\PSoC4/CapSense_1_Processing.c **** void CapSense_1_DpProcessCsxWidgetRawCounts(CapSense_1_FLASH_WD_STRUCT const *ptrFlashWdgt)
 467:Generated_Source\PSoC4/CapSense_1_Processing.c **** {
 468:Generated_Source\PSoC4/CapSense_1_Processing.c ****     uint32  widgetType;
 469:Generated_Source\PSoC4/CapSense_1_Processing.c ****     uint32  snsCount;
 470:Generated_Source\PSoC4/CapSense_1_Processing.c ****     CapSense_1_RAM_SNS_STRUCT *ptrSns;
 471:Generated_Source\PSoC4/CapSense_1_Processing.c ****     CapSense_1_RAM_WD_BASE_STRUCT *ptrRamWdgt;
 472:Generated_Source\PSoC4/CapSense_1_Processing.c **** 
 473:Generated_Source\PSoC4/CapSense_1_Processing.c ****     #if (0u != DP_FW_FILTER_EN)
 474:Generated_Source\PSoC4/CapSense_1_Processing.c ****         CapSense_1_PTR_FILTER_VARIANT fltrHistV;
 475:Generated_Source\PSoC4/CapSense_1_Processing.c ****         
 476:Generated_Source\PSoC4/CapSense_1_Processing.c ****         fltrHistV.ptr = ptrFlashWdgt->ptr2FltrHistory;
 477:Generated_Source\PSoC4/CapSense_1_Processing.c ****     #endif /* #if (0u != DP_FW_FILTER_EN) */
 478:Generated_Source\PSoC4/CapSense_1_Processing.c **** 
 479:Generated_Source\PSoC4/CapSense_1_Processing.c ****     ptrSns = ptrFlashWdgt->ptr2SnsRam;
 480:Generated_Source\PSoC4/CapSense_1_Processing.c ****     snsCount = ptrFlashWdgt->totalNumSns;
 481:Generated_Source\PSoC4/CapSense_1_Processing.c ****     ptrRamWdgt = ptrFlashWdgt->ptr2WdgtRam;
 482:Generated_Source\PSoC4/CapSense_1_Processing.c ****     widgetType = ptrFlashWdgt->wdgtType;
 483:Generated_Source\PSoC4/CapSense_1_Processing.c **** 
 484:Generated_Source\PSoC4/CapSense_1_Processing.c ****     /* Run deconvolution algorithm for the widgets with multiphase TX support */
 485:Generated_Source\PSoC4/CapSense_1_Processing.c ****     #if (0u != CapSense_1_CSX_MULTIPHASE_TX_EN)
 486:Generated_Source\PSoC4/CapSense_1_Processing.c ****         if (0u != (ptrFlashWdgt->staticConfig & CapSense_1_MULTIPHASE_TX_MASK))
 487:Generated_Source\PSoC4/CapSense_1_Processing.c ****         {
 488:Generated_Source\PSoC4/CapSense_1_Processing.c ****             CapSense_1_DpDeconvolution(ptrFlashWdgt);
 489:Generated_Source\PSoC4/CapSense_1_Processing.c ****         }
 490:Generated_Source\PSoC4/CapSense_1_Processing.c ****     #endif  /* #if (0u != CapSense_1_CSX_MULTIPHASE_TX_EN) */   
 491:Generated_Source\PSoC4/CapSense_1_Processing.c ****     
 492:Generated_Source\PSoC4/CapSense_1_Processing.c ****     for (;snsCount-- > 0u;)
 493:Generated_Source\PSoC4/CapSense_1_Processing.c ****     {
 494:Generated_Source\PSoC4/CapSense_1_Processing.c ****         #if (0u != CapSense_1_CSX_SKIP_OVSMPL_SPECIFIC_NODES)
 495:Generated_Source\PSoC4/CapSense_1_Processing.c ****             if (0u != ptrSns->resolution)
 496:Generated_Source\PSoC4/CapSense_1_Processing.c ****         #endif
 497:Generated_Source\PSoC4/CapSense_1_Processing.c ****             {
ARM GAS  C:\Users\Jannai\AppData\Local\Temp\ccRbizMh.s 			page 12


 498:Generated_Source\PSoC4/CapSense_1_Processing.c ****                 #if (0u != DP_FW_FILTER_EN)
 499:Generated_Source\PSoC4/CapSense_1_Processing.c ****                     CapSense_1_FtRunEnabledFiltersInternal(fltrHistV, ptrSns, widgetType);
 500:Generated_Source\PSoC4/CapSense_1_Processing.c ****                 #endif /* #if (0u != DP_FW_FILTER_EN) */
 501:Generated_Source\PSoC4/CapSense_1_Processing.c **** 
 502:Generated_Source\PSoC4/CapSense_1_Processing.c ****                 (void)CapSense_1_FtUpdateBaseline(ptrRamWdgt, ptrSns, widgetType);
 503:Generated_Source\PSoC4/CapSense_1_Processing.c ****                 CapSense_1_DpUpdateDifferences(ptrRamWdgt, ptrSns);
 504:Generated_Source\PSoC4/CapSense_1_Processing.c ****             }
 505:Generated_Source\PSoC4/CapSense_1_Processing.c **** 
 506:Generated_Source\PSoC4/CapSense_1_Processing.c ****         /* Move pointers to the next sensor and filter history objects */
 507:Generated_Source\PSoC4/CapSense_1_Processing.c ****         ptrSns++;
 508:Generated_Source\PSoC4/CapSense_1_Processing.c ****             
 509:Generated_Source\PSoC4/CapSense_1_Processing.c ****         #if (0u != DP_FW_FILTER_EN)
 510:Generated_Source\PSoC4/CapSense_1_Processing.c ****             CapSense_1_INC_FLTR_OBJ_VARIANT(0u, fltrHistV);
 511:Generated_Source\PSoC4/CapSense_1_Processing.c ****         #endif /* #if (0u != DP_FW_FILTER_EN) */
 512:Generated_Source\PSoC4/CapSense_1_Processing.c ****     }
 513:Generated_Source\PSoC4/CapSense_1_Processing.c **** }
 514:Generated_Source\PSoC4/CapSense_1_Processing.c **** 
 515:Generated_Source\PSoC4/CapSense_1_Processing.c **** /*******************************************************************************
 516:Generated_Source\PSoC4/CapSense_1_Processing.c **** * Function Name: CapSense_1_DpProcessCsxSensorRawCountsExt
 517:Generated_Source\PSoC4/CapSense_1_Processing.c **** ****************************************************************************//**
 518:Generated_Source\PSoC4/CapSense_1_Processing.c **** *
 519:Generated_Source\PSoC4/CapSense_1_Processing.c **** * \brief
 520:Generated_Source\PSoC4/CapSense_1_Processing.c **** *   Performs customized processing of the CSX sensor raw counts.
 521:Generated_Source\PSoC4/CapSense_1_Processing.c **** *
 522:Generated_Source\PSoC4/CapSense_1_Processing.c **** * \details
 523:Generated_Source\PSoC4/CapSense_1_Processing.c **** *   Performs customized processing of the CSX sensor raw counts.
 524:Generated_Source\PSoC4/CapSense_1_Processing.c **** *
 525:Generated_Source\PSoC4/CapSense_1_Processing.c **** *   If all bits are set at once the default processing order will take place.
 526:Generated_Source\PSoC4/CapSense_1_Processing.c **** *   For the custom order this API can be called multiple times and execute one task at a time.
 527:Generated_Source\PSoC4/CapSense_1_Processing.c **** *
 528:Generated_Source\PSoC4/CapSense_1_Processing.c **** * \param ptrFlashWdgt The pointer to the Flash Widget Object.
 529:Generated_Source\PSoC4/CapSense_1_Processing.c **** * \param ptrSns       The pointer to the specific RAM Sensor Object.
 530:Generated_Source\PSoC4/CapSense_1_Processing.c **** * \param fltrHistV    The pointer to the Filter History Object in RAM associated with specific sens
 531:Generated_Source\PSoC4/CapSense_1_Processing.c **** * \param mode         The bit-mask with the data processing tasks to be executed.
 532:Generated_Source\PSoC4/CapSense_1_Processing.c **** *   The mode parameters can take the following values:
 533:Generated_Source\PSoC4/CapSense_1_Processing.c **** *    - CapSense_1_PROCESS_FILTER     (0x01) Run Firmware Filter
 534:Generated_Source\PSoC4/CapSense_1_Processing.c **** *    - CapSense_1_PROCESS_BASELINE   (0x02) Update Baselines
 535:Generated_Source\PSoC4/CapSense_1_Processing.c **** *    - CapSense_1_PROCESS_DIFFCOUNTS (0x04) Update Difference Counts
 536:Generated_Source\PSoC4/CapSense_1_Processing.c **** *    - CapSense_1_PROCESS_ALL               Execute all tasks
 537:Generated_Source\PSoC4/CapSense_1_Processing.c **** *
 538:Generated_Source\PSoC4/CapSense_1_Processing.c **** *******************************************************************************/
 539:Generated_Source\PSoC4/CapSense_1_Processing.c **** void CapSense_1_DpProcessCsxSensorRawCountsExt(
 540:Generated_Source\PSoC4/CapSense_1_Processing.c ****                 CapSense_1_FLASH_WD_STRUCT const *ptrFlashWdgt,
 541:Generated_Source\PSoC4/CapSense_1_Processing.c ****                 CapSense_1_RAM_SNS_STRUCT *ptrSns,
 542:Generated_Source\PSoC4/CapSense_1_Processing.c ****                 CapSense_1_PTR_FILTER_VARIANT fltrHistV,
 543:Generated_Source\PSoC4/CapSense_1_Processing.c ****                 uint32 mode)
 544:Generated_Source\PSoC4/CapSense_1_Processing.c **** {
 545:Generated_Source\PSoC4/CapSense_1_Processing.c ****     uint32  widgetType;
 546:Generated_Source\PSoC4/CapSense_1_Processing.c ****     CapSense_1_RAM_WD_BASE_STRUCT *ptrRamWdgt;
 547:Generated_Source\PSoC4/CapSense_1_Processing.c **** 
 548:Generated_Source\PSoC4/CapSense_1_Processing.c ****     widgetType = ptrFlashWdgt->wdgtType;
 549:Generated_Source\PSoC4/CapSense_1_Processing.c ****     ptrRamWdgt = ptrFlashWdgt->ptr2WdgtRam;
 550:Generated_Source\PSoC4/CapSense_1_Processing.c ****     
 551:Generated_Source\PSoC4/CapSense_1_Processing.c ****     #if (0u != DP_FW_FILTER_EN)
 552:Generated_Source\PSoC4/CapSense_1_Processing.c ****         if (0u != (mode & CapSense_1_PROCESS_FILTER))
 553:Generated_Source\PSoC4/CapSense_1_Processing.c ****         {
 554:Generated_Source\PSoC4/CapSense_1_Processing.c ****             CapSense_1_FtRunEnabledFiltersInternal(fltrHistV, ptrSns, widgetType);
ARM GAS  C:\Users\Jannai\AppData\Local\Temp\ccRbizMh.s 			page 13


 555:Generated_Source\PSoC4/CapSense_1_Processing.c ****         }
 556:Generated_Source\PSoC4/CapSense_1_Processing.c ****     #else
 557:Generated_Source\PSoC4/CapSense_1_Processing.c ****         (void)fltrHistV; /* This parameter is unused in such configurations */
 558:Generated_Source\PSoC4/CapSense_1_Processing.c ****     #endif /* #if (0u != DP_FW_FILTER_EN) */
 559:Generated_Source\PSoC4/CapSense_1_Processing.c **** 
 560:Generated_Source\PSoC4/CapSense_1_Processing.c ****     if (0u != (mode & CapSense_1_PROCESS_BASELINE))
 561:Generated_Source\PSoC4/CapSense_1_Processing.c ****     {
 562:Generated_Source\PSoC4/CapSense_1_Processing.c ****         (void)CapSense_1_FtUpdateBaseline(ptrRamWdgt, ptrSns, widgetType);
 563:Generated_Source\PSoC4/CapSense_1_Processing.c ****     }
 564:Generated_Source\PSoC4/CapSense_1_Processing.c **** 
 565:Generated_Source\PSoC4/CapSense_1_Processing.c ****     if (0u != (mode & CapSense_1_PROCESS_DIFFCOUNTS))
 566:Generated_Source\PSoC4/CapSense_1_Processing.c ****     {
 567:Generated_Source\PSoC4/CapSense_1_Processing.c ****         CapSense_1_DpUpdateDifferences(ptrRamWdgt, ptrSns);
 568:Generated_Source\PSoC4/CapSense_1_Processing.c ****     }
 569:Generated_Source\PSoC4/CapSense_1_Processing.c **** }
 570:Generated_Source\PSoC4/CapSense_1_Processing.c **** 
 571:Generated_Source\PSoC4/CapSense_1_Processing.c **** 
 572:Generated_Source\PSoC4/CapSense_1_Processing.c **** /*******************************************************************************
 573:Generated_Source\PSoC4/CapSense_1_Processing.c **** * Function Name: CapSense_1_DpProcessCsxWidgetStatus
 574:Generated_Source\PSoC4/CapSense_1_Processing.c **** ****************************************************************************//**
 575:Generated_Source\PSoC4/CapSense_1_Processing.c **** *
 576:Generated_Source\PSoC4/CapSense_1_Processing.c **** * \brief
 577:Generated_Source\PSoC4/CapSense_1_Processing.c **** *   Updates the status of the CSX widget in the Data Structure.
 578:Generated_Source\PSoC4/CapSense_1_Processing.c **** *
 579:Generated_Source\PSoC4/CapSense_1_Processing.c **** * \details
 580:Generated_Source\PSoC4/CapSense_1_Processing.c **** *  This API determines the type of widget and runs the appropriate function
 581:Generated_Source\PSoC4/CapSense_1_Processing.c **** *  that implements the status update algorithm for this type of widget.
 582:Generated_Source\PSoC4/CapSense_1_Processing.c **** *
 583:Generated_Source\PSoC4/CapSense_1_Processing.c **** *  When the widget-specific processing completes this API updates the snsStatus
 584:Generated_Source\PSoC4/CapSense_1_Processing.c **** *  and wdgtStatus registers in the data structure. The wdgtStatus register
 585:Generated_Source\PSoC4/CapSense_1_Processing.c **** *  is a bitmask were each bit corresponds to the specific widget identified by
 586:Generated_Source\PSoC4/CapSense_1_Processing.c **** *  the widget index. When the bit is set the widget is active (touched);
 587:Generated_Source\PSoC4/CapSense_1_Processing.c **** *
 588:Generated_Source\PSoC4/CapSense_1_Processing.c **** *  Depending on the type of widget the snsStatus register may contain either
 589:Generated_Source\PSoC4/CapSense_1_Processing.c **** *  status of each widget node (active/non-active) or in case of the CSX Touchpad
 590:Generated_Source\PSoC4/CapSense_1_Processing.c **** *  is contains the number of touches. In both cases 0 means that widget is not
 591:Generated_Source\PSoC4/CapSense_1_Processing.c **** *  active.
 592:Generated_Source\PSoC4/CapSense_1_Processing.c **** *
 593:Generated_Source\PSoC4/CapSense_1_Processing.c **** * \param wdgtId       The widget index number.
 594:Generated_Source\PSoC4/CapSense_1_Processing.c **** * \param ptrFlashWdgt The pointer to the Flash Widget Object.
 595:Generated_Source\PSoC4/CapSense_1_Processing.c **** *
 596:Generated_Source\PSoC4/CapSense_1_Processing.c **** *******************************************************************************/
 597:Generated_Source\PSoC4/CapSense_1_Processing.c **** void CapSense_1_DpProcessCsxWidgetStatus(uint32 wdgtId, CapSense_1_FLASH_WD_STRUCT const *ptrFlashW
 598:Generated_Source\PSoC4/CapSense_1_Processing.c **** {
 599:Generated_Source\PSoC4/CapSense_1_Processing.c ****     uint32 sensorStatus;
 600:Generated_Source\PSoC4/CapSense_1_Processing.c ****     uint32 wdStatusIndex;
 601:Generated_Source\PSoC4/CapSense_1_Processing.c ****     uint32 wdStatusMask;
 602:Generated_Source\PSoC4/CapSense_1_Processing.c ****     CapSense_1_WD_TYPE_ENUM widgetType;
 603:Generated_Source\PSoC4/CapSense_1_Processing.c **** 
 604:Generated_Source\PSoC4/CapSense_1_Processing.c ****     widgetType = (CapSense_1_WD_TYPE_ENUM)ptrFlashWdgt->wdgtType;
 605:Generated_Source\PSoC4/CapSense_1_Processing.c ****     sensorStatus = CapSense_1_dsRam.snsStatus[wdgtId];
 606:Generated_Source\PSoC4/CapSense_1_Processing.c **** 
 607:Generated_Source\PSoC4/CapSense_1_Processing.c ****     switch (widgetType)
 608:Generated_Source\PSoC4/CapSense_1_Processing.c ****     {
 609:Generated_Source\PSoC4/CapSense_1_Processing.c ****     #if (0u != CapSense_1_BUTTON_WIDGET_EN)
 610:Generated_Source\PSoC4/CapSense_1_Processing.c ****         case CapSense_1_WD_BUTTON_E:
 611:Generated_Source\PSoC4/CapSense_1_Processing.c ****             sensorStatus = CapSense_1_DpProcessButton(sensorStatus, ptrFlashWdgt);
ARM GAS  C:\Users\Jannai\AppData\Local\Temp\ccRbizMh.s 			page 14


 612:Generated_Source\PSoC4/CapSense_1_Processing.c ****             break;
 613:Generated_Source\PSoC4/CapSense_1_Processing.c ****     #endif /* #if (0u != CapSense_1_BUTTON_WIDGET_EN) */
 614:Generated_Source\PSoC4/CapSense_1_Processing.c **** 
 615:Generated_Source\PSoC4/CapSense_1_Processing.c ****     #if (0u != CapSense_1_CSX_MATRIX_WIDGET_EN)
 616:Generated_Source\PSoC4/CapSense_1_Processing.c ****         case CapSense_1_WD_MATRIX_BUTTON_E:
 617:Generated_Source\PSoC4/CapSense_1_Processing.c ****             sensorStatus = CapSense_1_DpProcessButton(sensorStatus, ptrFlashWdgt);
 618:Generated_Source\PSoC4/CapSense_1_Processing.c ****             break;
 619:Generated_Source\PSoC4/CapSense_1_Processing.c ****     #endif /* #if (0u != CapSense_1_CSX_MATRIX_WIDGET_EN) */
 620:Generated_Source\PSoC4/CapSense_1_Processing.c **** 
 621:Generated_Source\PSoC4/CapSense_1_Processing.c ****     #if (0u != CapSense_1_CSX_TOUCHPAD_WIDGET_EN)
 622:Generated_Source\PSoC4/CapSense_1_Processing.c ****         case CapSense_1_WD_TOUCHPAD_E:
 623:Generated_Source\PSoC4/CapSense_1_Processing.c ****             sensorStatus = CapSense_1_DpProcessCsxTouchpad(sensorStatus, ptrFlashWdgt);
 624:Generated_Source\PSoC4/CapSense_1_Processing.c ****             break;
 625:Generated_Source\PSoC4/CapSense_1_Processing.c ****     #endif /* #if (0u != CapSense_1_CSX_TOUCHPAD_WIDGET_EN) */
 626:Generated_Source\PSoC4/CapSense_1_Processing.c **** 
 627:Generated_Source\PSoC4/CapSense_1_Processing.c ****     default:
 628:Generated_Source\PSoC4/CapSense_1_Processing.c ****         CYASSERT(0u);
 629:Generated_Source\PSoC4/CapSense_1_Processing.c ****         break;
 630:Generated_Source\PSoC4/CapSense_1_Processing.c ****     }
 631:Generated_Source\PSoC4/CapSense_1_Processing.c **** 
 632:Generated_Source\PSoC4/CapSense_1_Processing.c ****     /* Update sensor status in the data structure */
 633:Generated_Source\PSoC4/CapSense_1_Processing.c ****     CapSense_1_dsRam.snsStatus[wdgtId] = (CapSense_1_SNS_STS_TYPE)sensorStatus;
 634:Generated_Source\PSoC4/CapSense_1_Processing.c **** 
 635:Generated_Source\PSoC4/CapSense_1_Processing.c ****     /* The next two lines calculate index and bitmask of the widget status bit in the wdgtStatus ar
 636:Generated_Source\PSoC4/CapSense_1_Processing.c ****     wdStatusIndex = CapSense_1_GET_WDGT_STATUS_INDEX(wdgtId);
 637:Generated_Source\PSoC4/CapSense_1_Processing.c ****     wdStatusMask = CapSense_1_GET_WDGT_STATUS_MASK(wdgtId);
 638:Generated_Source\PSoC4/CapSense_1_Processing.c **** 
 639:Generated_Source\PSoC4/CapSense_1_Processing.c ****     /* Check if there are active sensors and update widget status accordingly */
 640:Generated_Source\PSoC4/CapSense_1_Processing.c ****     if (0u == sensorStatus)
 641:Generated_Source\PSoC4/CapSense_1_Processing.c ****     {
 642:Generated_Source\PSoC4/CapSense_1_Processing.c ****         CapSense_1_dsRam.wdgtStatus[wdStatusIndex] &= ~wdStatusMask;
 643:Generated_Source\PSoC4/CapSense_1_Processing.c ****     }
 644:Generated_Source\PSoC4/CapSense_1_Processing.c ****     else
 645:Generated_Source\PSoC4/CapSense_1_Processing.c ****     {
 646:Generated_Source\PSoC4/CapSense_1_Processing.c ****         CapSense_1_dsRam.wdgtStatus[wdStatusIndex] |= wdStatusMask;
 647:Generated_Source\PSoC4/CapSense_1_Processing.c ****     }
 648:Generated_Source\PSoC4/CapSense_1_Processing.c **** }
 649:Generated_Source\PSoC4/CapSense_1_Processing.c **** #endif /* #if CapSense_1_TOTAL_CSX_WIDGETS */
 650:Generated_Source\PSoC4/CapSense_1_Processing.c **** 
 651:Generated_Source\PSoC4/CapSense_1_Processing.c **** #if (0u != CapSense_1_TOTAL_CSD_WIDGETS)
 652:Generated_Source\PSoC4/CapSense_1_Processing.c **** /*******************************************************************************
 653:Generated_Source\PSoC4/CapSense_1_Processing.c **** * Function Name: CapSense_1_DpProcessCsdWidgetRawCounts
 654:Generated_Source\PSoC4/CapSense_1_Processing.c **** ****************************************************************************//**
 655:Generated_Source\PSoC4/CapSense_1_Processing.c **** *
 656:Generated_Source\PSoC4/CapSense_1_Processing.c **** * \brief
 657:Generated_Source\PSoC4/CapSense_1_Processing.c **** *   Performs default processing for the CSD widget raw counts.
 658:Generated_Source\PSoC4/CapSense_1_Processing.c **** *
 659:Generated_Source\PSoC4/CapSense_1_Processing.c **** * \details
 660:Generated_Source\PSoC4/CapSense_1_Processing.c **** *   Performs default processing for the CSD widget raw counts:
 661:Generated_Source\PSoC4/CapSense_1_Processing.c **** *    - Run Filters
 662:Generated_Source\PSoC4/CapSense_1_Processing.c **** *    - Update Thresholds (FW Auto-tuning)
 663:Generated_Source\PSoC4/CapSense_1_Processing.c **** *    - Update Baselines
 664:Generated_Source\PSoC4/CapSense_1_Processing.c **** *    - Update Differences.
 665:Generated_Source\PSoC4/CapSense_1_Processing.c **** *   The process is applied to all widget's sensors.
 666:Generated_Source\PSoC4/CapSense_1_Processing.c **** *
 667:Generated_Source\PSoC4/CapSense_1_Processing.c **** * \param ptrFlashWdgt The pointer to the Flash Widget Object.
 668:Generated_Source\PSoC4/CapSense_1_Processing.c **** *
ARM GAS  C:\Users\Jannai\AppData\Local\Temp\ccRbizMh.s 			page 15


 669:Generated_Source\PSoC4/CapSense_1_Processing.c **** *******************************************************************************/
 670:Generated_Source\PSoC4/CapSense_1_Processing.c **** void CapSense_1_DpProcessCsdWidgetRawCounts(CapSense_1_FLASH_WD_STRUCT const *ptrFlashWdgt)
 671:Generated_Source\PSoC4/CapSense_1_Processing.c **** {
 672:Generated_Source\PSoC4/CapSense_1_Processing.c ****     uint32  widgetType;
 673:Generated_Source\PSoC4/CapSense_1_Processing.c ****     uint32  snsId;
 674:Generated_Source\PSoC4/CapSense_1_Processing.c ****     CapSense_1_RAM_SNS_STRUCT *ptrSns;
 675:Generated_Source\PSoC4/CapSense_1_Processing.c ****     CapSense_1_RAM_WD_BASE_STRUCT *ptrRamWdgt;
 676:Generated_Source\PSoC4/CapSense_1_Processing.c **** 
 677:Generated_Source\PSoC4/CapSense_1_Processing.c ****     #if (0u != (CapSense_1_CSD_AUTOTUNE & CapSense_1_CSD_SS_TH_EN))
 678:Generated_Source\PSoC4/CapSense_1_Processing.c ****         /* The noise envelope data is available only when Full CSD Auto-Tuning is enabled */
 679:Generated_Source\PSoC4/CapSense_1_Processing.c ****         SMARTSENSE_CSD_NOISE_ENVELOPE_STRUCT *ptrNoiseEnvelope;
 680:Generated_Source\PSoC4/CapSense_1_Processing.c ****         #if (CapSense_1_ENABLE == CapSense_1_PROXIMITY_WIDGET_EN)
 681:Generated_Source\PSoC4/CapSense_1_Processing.c ****             uint32  proximityThreshold;
 682:Generated_Source\PSoC4/CapSense_1_Processing.c ****         #endif /* (0 != CapSense_1_PROXIMITY_WIDGET_EN) */
 683:Generated_Source\PSoC4/CapSense_1_Processing.c ****     #endif /* #if (0u != (CapSense_1_CSD_AUTOTUNE & CapSense_1_CSD_SS_TH_EN)) */
 684:Generated_Source\PSoC4/CapSense_1_Processing.c **** 
 685:Generated_Source\PSoC4/CapSense_1_Processing.c ****     #if (0u != DP_FW_FILTER_EN)
 686:Generated_Source\PSoC4/CapSense_1_Processing.c ****         CapSense_1_PTR_FILTER_VARIANT fltrHistV;
 687:Generated_Source\PSoC4/CapSense_1_Processing.c ****     
 688:Generated_Source\PSoC4/CapSense_1_Processing.c ****         /* Determine if widget type is proximity */
 689:Generated_Source\PSoC4/CapSense_1_Processing.c ****         uint32 isProxWdgt = 
 690:Generated_Source\PSoC4/CapSense_1_Processing.c ****                     (CapSense_1_GET_WIDGET_TYPE(ptrFlashWdgt) == CapSense_1_WD_PROXIMITY_E) ? 1u : 
 691:Generated_Source\PSoC4/CapSense_1_Processing.c ****                     
 692:Generated_Source\PSoC4/CapSense_1_Processing.c ****         /* Get pointer to the filter history object */
 693:Generated_Source\PSoC4/CapSense_1_Processing.c ****         fltrHistV.ptr = ptrFlashWdgt->ptr2FltrHistory;
 694:Generated_Source\PSoC4/CapSense_1_Processing.c ****     #endif /* #if (0u != DP_FW_FILTER_EN) */
 695:Generated_Source\PSoC4/CapSense_1_Processing.c ****     
 696:Generated_Source\PSoC4/CapSense_1_Processing.c ****     ptrSns = ptrFlashWdgt->ptr2SnsRam;
 697:Generated_Source\PSoC4/CapSense_1_Processing.c ****     ptrRamWdgt = ptrFlashWdgt->ptr2WdgtRam;
 698:Generated_Source\PSoC4/CapSense_1_Processing.c ****     widgetType = ptrFlashWdgt->wdgtType;
 699:Generated_Source\PSoC4/CapSense_1_Processing.c **** 
 700:Generated_Source\PSoC4/CapSense_1_Processing.c ****     #if (0u != (CapSense_1_CSD_AUTOTUNE & CapSense_1_CSD_SS_TH_EN))
 701:Generated_Source\PSoC4/CapSense_1_Processing.c ****         ptrNoiseEnvelope = ptrFlashWdgt->ptr2NoiseEnvlp;
 702:Generated_Source\PSoC4/CapSense_1_Processing.c ****     #endif /* #if (0u != (CapSense_1_CSD_AUTOTUNE & CapSense_1_CSD_SS_TH_EN)) */
 703:Generated_Source\PSoC4/CapSense_1_Processing.c **** 
 704:Generated_Source\PSoC4/CapSense_1_Processing.c ****     /* Iterate through all widget's sensors */
 705:Generated_Source\PSoC4/CapSense_1_Processing.c ****     for(snsId = 0u; snsId < ptrFlashWdgt->totalNumSns; snsId++)
 706:Generated_Source\PSoC4/CapSense_1_Processing.c ****     {
 707:Generated_Source\PSoC4/CapSense_1_Processing.c ****         /* Run all enabled filter on specified widget's sensor */
 708:Generated_Source\PSoC4/CapSense_1_Processing.c ****         #if (0u != DP_FW_FILTER_EN)
 709:Generated_Source\PSoC4/CapSense_1_Processing.c ****             CapSense_1_FtRunEnabledFiltersInternal(fltrHistV, ptrSns, widgetType);
 710:Generated_Source\PSoC4/CapSense_1_Processing.c ****         #endif /* #if (0u != DP_FW_FILTER_EN) */
 711:Generated_Source\PSoC4/CapSense_1_Processing.c **** 
 712:Generated_Source\PSoC4/CapSense_1_Processing.c ****         /* Run auto-tuning activities */
 713:Generated_Source\PSoC4/CapSense_1_Processing.c ****         #if (0u != (CapSense_1_CSD_AUTOTUNE & CapSense_1_CSD_SS_TH_EN))
 714:Generated_Source\PSoC4/CapSense_1_Processing.c ****             SmartSense_RunNoiseEnvelope(ptrSns->raw[0u], ptrRamWdgt->sigPFC, ptrNoiseEnvelope);
 715:Generated_Source\PSoC4/CapSense_1_Processing.c ****             CapSense_1_DpUpdateThresholds(ptrRamWdgt, ptrNoiseEnvelope, snsId);
 716:Generated_Source\PSoC4/CapSense_1_Processing.c **** 
 717:Generated_Source\PSoC4/CapSense_1_Processing.c ****             /* Calculate Proximity Touch Threshold in SmartSense mode based on Finger Threshold and
 718:Generated_Source\PSoC4/CapSense_1_Processing.c ****             #if (CapSense_1_ENABLE == CapSense_1_PROXIMITY_WIDGET_EN)
 719:Generated_Source\PSoC4/CapSense_1_Processing.c ****                 if (CapSense_1_WD_PROXIMITY_E == CapSense_1_GET_WIDGET_TYPE(ptrFlashWdgt))
 720:Generated_Source\PSoC4/CapSense_1_Processing.c ****                 {
 721:Generated_Source\PSoC4/CapSense_1_Processing.c ****                     proximityThreshold = (uint32)ptrRamWdgt->fingerTh * CapSense_1_PROX_TOUCH_COEFF
 722:Generated_Source\PSoC4/CapSense_1_Processing.c ****                     if ((((1Lu) << CapSense_1_THRESHOLD_SIZE) - 1u) < proximityThreshold)
 723:Generated_Source\PSoC4/CapSense_1_Processing.c ****                     {
 724:Generated_Source\PSoC4/CapSense_1_Processing.c ****                         proximityThreshold = ((1Lu) << CapSense_1_THRESHOLD_SIZE) - 1u;
 725:Generated_Source\PSoC4/CapSense_1_Processing.c ****                     }
ARM GAS  C:\Users\Jannai\AppData\Local\Temp\ccRbizMh.s 			page 16


 726:Generated_Source\PSoC4/CapSense_1_Processing.c ****                     ((CapSense_1_RAM_WD_PROXIMITY_STRUCT *)ptrFlashWdgt->ptr2WdgtRam)->proxTouchTh 
 727:Generated_Source\PSoC4/CapSense_1_Processing.c ****                         (CapSense_1_THRESHOLD_TYPE)proximityThreshold;
 728:Generated_Source\PSoC4/CapSense_1_Processing.c ****                 }
 729:Generated_Source\PSoC4/CapSense_1_Processing.c ****             #endif /* (0 != CapSense_1_PROXIMITY_WIDGET_EN) */
 730:Generated_Source\PSoC4/CapSense_1_Processing.c ****             
 731:Generated_Source\PSoC4/CapSense_1_Processing.c ****             /* Move to next noise-envelope object */
 732:Generated_Source\PSoC4/CapSense_1_Processing.c ****             ptrNoiseEnvelope++;
 733:Generated_Source\PSoC4/CapSense_1_Processing.c ****         #endif /* (0u != (CapSense_1_CSD_AUTOTUNE & CapSense_1_CSD_SS_TH_EN)) */
 734:Generated_Source\PSoC4/CapSense_1_Processing.c **** 
 735:Generated_Source\PSoC4/CapSense_1_Processing.c ****         (void)CapSense_1_FtUpdateBaseline(ptrRamWdgt, ptrSns, widgetType);
 736:Generated_Source\PSoC4/CapSense_1_Processing.c ****         CapSense_1_DpUpdateDifferences(ptrRamWdgt, ptrSns);
 737:Generated_Source\PSoC4/CapSense_1_Processing.c **** 
 738:Generated_Source\PSoC4/CapSense_1_Processing.c ****         /* Move to next sensor object */
 739:Generated_Source\PSoC4/CapSense_1_Processing.c ****         ptrSns++;
 740:Generated_Source\PSoC4/CapSense_1_Processing.c **** 
 741:Generated_Source\PSoC4/CapSense_1_Processing.c ****         #if (0u != DP_FW_FILTER_EN)
 742:Generated_Source\PSoC4/CapSense_1_Processing.c ****             /* Move to the next filter history object */
 743:Generated_Source\PSoC4/CapSense_1_Processing.c ****             CapSense_1_INC_FLTR_OBJ_VARIANT(isProxWdgt, fltrHistV);
 744:Generated_Source\PSoC4/CapSense_1_Processing.c ****         #endif /* #if (0u != DP_FW_FILTER_EN) */
 745:Generated_Source\PSoC4/CapSense_1_Processing.c ****     }
 746:Generated_Source\PSoC4/CapSense_1_Processing.c **** }
 747:Generated_Source\PSoC4/CapSense_1_Processing.c **** 
 748:Generated_Source\PSoC4/CapSense_1_Processing.c **** 
 749:Generated_Source\PSoC4/CapSense_1_Processing.c **** /*******************************************************************************
 750:Generated_Source\PSoC4/CapSense_1_Processing.c **** * Function Name: CapSense_1_DpProcessCsdSensorRawCountsExt
 751:Generated_Source\PSoC4/CapSense_1_Processing.c **** ****************************************************************************//**
 752:Generated_Source\PSoC4/CapSense_1_Processing.c **** *
 753:Generated_Source\PSoC4/CapSense_1_Processing.c **** * \brief
 754:Generated_Source\PSoC4/CapSense_1_Processing.c **** *   Performs customized processing of the CSD sensor raw counts.
 755:Generated_Source\PSoC4/CapSense_1_Processing.c **** *
 756:Generated_Source\PSoC4/CapSense_1_Processing.c **** * \details
 757:Generated_Source\PSoC4/CapSense_1_Processing.c **** *   Performs customized processing of the CSD sensor raw counts.
 758:Generated_Source\PSoC4/CapSense_1_Processing.c **** *
 759:Generated_Source\PSoC4/CapSense_1_Processing.c **** *   Note that this API updates data associated only with the sensor. It cannot be used to update
 760:Generated_Source\PSoC4/CapSense_1_Processing.c **** *   widget status.
 761:Generated_Source\PSoC4/CapSense_1_Processing.c **** *
 762:Generated_Source\PSoC4/CapSense_1_Processing.c **** * \param ptrFlashWdgt The pointer to the Flash widget structure.
 763:Generated_Source\PSoC4/CapSense_1_Processing.c **** * \param ptrSns       The pointer to the sensor object in RAM.
 764:Generated_Source\PSoC4/CapSense_1_Processing.c **** * \param fltrHistV    The pointer to the Filter History Object in RAM.
 765:Generated_Source\PSoC4/CapSense_1_Processing.c **** * \param mode         The bit-mask with the data processing tasks to be executed.
 766:Generated_Source\PSoC4/CapSense_1_Processing.c **** *   The mode parameters can take the following values:
 767:Generated_Source\PSoC4/CapSense_1_Processing.c **** *    - CapSense_1_PROCESS_FILTER     (0x01) Run Firmware Filter
 768:Generated_Source\PSoC4/CapSense_1_Processing.c **** *    - CapSense_1_PROCESS_BASELINE   (0x02) Update Baselines
 769:Generated_Source\PSoC4/CapSense_1_Processing.c **** *    - CapSense_1_PROCESS_DIFFCOUNTS (0x04) Update Difference Counts
 770:Generated_Source\PSoC4/CapSense_1_Processing.c **** *    - CapSense_1_PROCESS_CALC_NOISE (0x08) Calculate Noise (only if FW Tuning is enabled)
 771:Generated_Source\PSoC4/CapSense_1_Processing.c **** *    - CapSense_1_PROCESS_THRESHOLDS (0x10) Update Thresholds (only if FW Tuning is enabled)
 772:Generated_Source\PSoC4/CapSense_1_Processing.c **** *    - CapSense_1_PROCESS_ALL               Execute all tasks
 773:Generated_Source\PSoC4/CapSense_1_Processing.c **** *
 774:Generated_Source\PSoC4/CapSense_1_Processing.c **** *******************************************************************************/
 775:Generated_Source\PSoC4/CapSense_1_Processing.c **** void CapSense_1_DpProcessCsdSensorRawCountsExt(
 776:Generated_Source\PSoC4/CapSense_1_Processing.c ****                 CapSense_1_FLASH_WD_STRUCT const *ptrFlashWdgt,
 777:Generated_Source\PSoC4/CapSense_1_Processing.c ****                 CapSense_1_RAM_SNS_STRUCT *ptrSns,
 778:Generated_Source\PSoC4/CapSense_1_Processing.c ****                 CapSense_1_PTR_FILTER_VARIANT fltrHistV,
 779:Generated_Source\PSoC4/CapSense_1_Processing.c ****                  uint32 mode)
 780:Generated_Source\PSoC4/CapSense_1_Processing.c **** {
 781:Generated_Source\PSoC4/CapSense_1_Processing.c ****     uint32  widgetType;
 782:Generated_Source\PSoC4/CapSense_1_Processing.c ****     CapSense_1_RAM_WD_BASE_STRUCT *ptrRamWdgt;
ARM GAS  C:\Users\Jannai\AppData\Local\Temp\ccRbizMh.s 			page 17


 783:Generated_Source\PSoC4/CapSense_1_Processing.c **** 
 784:Generated_Source\PSoC4/CapSense_1_Processing.c ****     #if (0u != (CapSense_1_CSD_AUTOTUNE & CapSense_1_CSD_SS_TH_EN))
 785:Generated_Source\PSoC4/CapSense_1_Processing.c ****         SMARTSENSE_CSD_NOISE_ENVELOPE_STRUCT *ptrNoiseEnvelope;
 786:Generated_Source\PSoC4/CapSense_1_Processing.c **** 
 787:Generated_Source\PSoC4/CapSense_1_Processing.c ****         /* Need to specify pointer to corresponding sensor's noise-envelope object.*/
 788:Generated_Source\PSoC4/CapSense_1_Processing.c ****         ptrNoiseEnvelope = ptrFlashWdgt->ptr2NoiseEnvlp;
 789:Generated_Source\PSoC4/CapSense_1_Processing.c ****         #if (CapSense_1_ENABLE == CapSense_1_PROXIMITY_WIDGET_EN)
 790:Generated_Source\PSoC4/CapSense_1_Processing.c ****             uint32  proximityThreshold;
 791:Generated_Source\PSoC4/CapSense_1_Processing.c ****         #endif /* (0 != CapSense_1_PROXIMITY_WIDGET_EN) */
 792:Generated_Source\PSoC4/CapSense_1_Processing.c ****     #endif /* (0u != (CapSense_1_CSD_AUTOTUNE & CapSense_1_CSD_SS_TH_EN)) */
 793:Generated_Source\PSoC4/CapSense_1_Processing.c **** 
 794:Generated_Source\PSoC4/CapSense_1_Processing.c ****     widgetType = ptrFlashWdgt->wdgtType;
 795:Generated_Source\PSoC4/CapSense_1_Processing.c ****     ptrRamWdgt = ptrFlashWdgt->ptr2WdgtRam;
 796:Generated_Source\PSoC4/CapSense_1_Processing.c **** 
 797:Generated_Source\PSoC4/CapSense_1_Processing.c ****     #if (0u != DP_FW_FILTER_EN)
 798:Generated_Source\PSoC4/CapSense_1_Processing.c ****         if (0u != (mode & CapSense_1_PROCESS_FILTER))
 799:Generated_Source\PSoC4/CapSense_1_Processing.c ****         {
 800:Generated_Source\PSoC4/CapSense_1_Processing.c ****             CapSense_1_FtRunEnabledFiltersInternal(fltrHistV, ptrSns, widgetType);
 801:Generated_Source\PSoC4/CapSense_1_Processing.c ****         }
 802:Generated_Source\PSoC4/CapSense_1_Processing.c ****     #else
 803:Generated_Source\PSoC4/CapSense_1_Processing.c ****         (void)fltrHistV; /* This parameter is unused in such configurations */
 804:Generated_Source\PSoC4/CapSense_1_Processing.c ****     #endif /* #if (0u != DP_FW_FILTER_EN) */
 805:Generated_Source\PSoC4/CapSense_1_Processing.c **** 
 806:Generated_Source\PSoC4/CapSense_1_Processing.c ****     #if (0u != (CapSense_1_CSD_AUTOTUNE & CapSense_1_CSD_SS_TH_EN))
 807:Generated_Source\PSoC4/CapSense_1_Processing.c ****         if (0u != (mode & CapSense_1_PROCESS_CALC_NOISE))
 808:Generated_Source\PSoC4/CapSense_1_Processing.c ****         {
 809:Generated_Source\PSoC4/CapSense_1_Processing.c ****             SmartSense_RunNoiseEnvelope(ptrSns->raw[0u], ptrRamWdgt->sigPFC, ptrNoiseEnvelope);
 810:Generated_Source\PSoC4/CapSense_1_Processing.c ****         }
 811:Generated_Source\PSoC4/CapSense_1_Processing.c **** 
 812:Generated_Source\PSoC4/CapSense_1_Processing.c ****         if (0u != (mode & CapSense_1_PROCESS_THRESHOLDS))
 813:Generated_Source\PSoC4/CapSense_1_Processing.c ****         {            
 814:Generated_Source\PSoC4/CapSense_1_Processing.c ****             CapSense_1_DpUpdateThresholds(ptrRamWdgt, ptrNoiseEnvelope, 0u);
 815:Generated_Source\PSoC4/CapSense_1_Processing.c ****             
 816:Generated_Source\PSoC4/CapSense_1_Processing.c ****             /* Calculate Proximity Touch Threshold in SmartSense mode based on Finger Threshold and
 817:Generated_Source\PSoC4/CapSense_1_Processing.c ****             #if (CapSense_1_ENABLE == CapSense_1_PROXIMITY_WIDGET_EN)
 818:Generated_Source\PSoC4/CapSense_1_Processing.c ****                 if (CapSense_1_WD_PROXIMITY_E == CapSense_1_GET_WIDGET_TYPE(ptrFlashWdgt))
 819:Generated_Source\PSoC4/CapSense_1_Processing.c ****                 {
 820:Generated_Source\PSoC4/CapSense_1_Processing.c ****                     proximityThreshold = (uint32)ptrRamWdgt->fingerTh * CapSense_1_PROX_TOUCH_COEFF
 821:Generated_Source\PSoC4/CapSense_1_Processing.c ****                     if ((((1Lu) << CapSense_1_THRESHOLD_SIZE) - 1u) < proximityThreshold)
 822:Generated_Source\PSoC4/CapSense_1_Processing.c ****                     {
 823:Generated_Source\PSoC4/CapSense_1_Processing.c ****                         proximityThreshold = ((1Lu) << CapSense_1_THRESHOLD_SIZE) - 1u;
 824:Generated_Source\PSoC4/CapSense_1_Processing.c ****                     }
 825:Generated_Source\PSoC4/CapSense_1_Processing.c ****                     ((CapSense_1_RAM_WD_PROXIMITY_STRUCT *)ptrFlashWdgt->ptr2WdgtRam)->proxTouchTh 
 826:Generated_Source\PSoC4/CapSense_1_Processing.c ****                         (CapSense_1_THRESHOLD_TYPE)proximityThreshold;
 827:Generated_Source\PSoC4/CapSense_1_Processing.c ****                 }
 828:Generated_Source\PSoC4/CapSense_1_Processing.c ****             #endif /* (0 != CapSense_1_PROXIMITY_WIDGET_EN) */
 829:Generated_Source\PSoC4/CapSense_1_Processing.c ****         }
 830:Generated_Source\PSoC4/CapSense_1_Processing.c ****     #endif /* #if (0u != (CapSense_1_CSD_AUTOTUNE & CapSense_1_CSD_SS_TH_EN)) */
 831:Generated_Source\PSoC4/CapSense_1_Processing.c **** 
 832:Generated_Source\PSoC4/CapSense_1_Processing.c ****     if (0u != (mode & CapSense_1_PROCESS_BASELINE))
 833:Generated_Source\PSoC4/CapSense_1_Processing.c ****     {
 834:Generated_Source\PSoC4/CapSense_1_Processing.c ****         (void)CapSense_1_FtUpdateBaseline(ptrRamWdgt, ptrSns, widgetType);
 835:Generated_Source\PSoC4/CapSense_1_Processing.c ****     }
 836:Generated_Source\PSoC4/CapSense_1_Processing.c **** 
 837:Generated_Source\PSoC4/CapSense_1_Processing.c ****     if (0u != (mode & CapSense_1_PROCESS_DIFFCOUNTS))
 838:Generated_Source\PSoC4/CapSense_1_Processing.c ****     {
 839:Generated_Source\PSoC4/CapSense_1_Processing.c ****         CapSense_1_DpUpdateDifferences(ptrRamWdgt, ptrSns);
ARM GAS  C:\Users\Jannai\AppData\Local\Temp\ccRbizMh.s 			page 18


 840:Generated_Source\PSoC4/CapSense_1_Processing.c ****     }
 841:Generated_Source\PSoC4/CapSense_1_Processing.c **** }
 842:Generated_Source\PSoC4/CapSense_1_Processing.c **** 
 843:Generated_Source\PSoC4/CapSense_1_Processing.c **** /*******************************************************************************
 844:Generated_Source\PSoC4/CapSense_1_Processing.c **** * Function Name: CapSense_1_DpProcessCsdWidgetStatus
 845:Generated_Source\PSoC4/CapSense_1_Processing.c **** ****************************************************************************//**
 846:Generated_Source\PSoC4/CapSense_1_Processing.c **** *
 847:Generated_Source\PSoC4/CapSense_1_Processing.c **** * \brief
 848:Generated_Source\PSoC4/CapSense_1_Processing.c **** *  Runs the status processing of the CSD widget and updates it in the Data Structure.
 849:Generated_Source\PSoC4/CapSense_1_Processing.c **** *
 850:Generated_Source\PSoC4/CapSense_1_Processing.c **** * \details
 851:Generated_Source\PSoC4/CapSense_1_Processing.c **** *  This API determines the widget type and calls the appropriate low-level processing
 852:Generated_Source\PSoC4/CapSense_1_Processing.c **** *  function. Based on the returned results it updates the widget and sensor
 853:Generated_Source\PSoC4/CapSense_1_Processing.c **** *  status in the data structure. Any widget specific registers like the centroid
 854:Generated_Source\PSoC4/CapSense_1_Processing.c **** *  position are updated directly in the low-level processing function.
 855:Generated_Source\PSoC4/CapSense_1_Processing.c **** *
 856:Generated_Source\PSoC4/CapSense_1_Processing.c **** *  When the widget-specific processing completes this API updates the snsStatus
 857:Generated_Source\PSoC4/CapSense_1_Processing.c **** *  and wdgtStatus registers in the data structure. The wdgtStatus register
 858:Generated_Source\PSoC4/CapSense_1_Processing.c **** *  is a bitmask were each bit corresponds to the specific widget identified by
 859:Generated_Source\PSoC4/CapSense_1_Processing.c **** *  the widget index. When the bit is set the widget is active (touched);
 860:Generated_Source\PSoC4/CapSense_1_Processing.c **** *
 861:Generated_Source\PSoC4/CapSense_1_Processing.c **** *  The snsStatus register for CSD widgets contains status of each widget sensor
 862:Generated_Source\PSoC4/CapSense_1_Processing.c **** *  (active/non-active). Each bit corresponds to one sensor. In case of the
 863:Generated_Source\PSoC4/CapSense_1_Processing.c **** *  Proximity widget two bits are used per sensor: one for proximity status and
 864:Generated_Source\PSoC4/CapSense_1_Processing.c **** *  second for the touch status.
 865:Generated_Source\PSoC4/CapSense_1_Processing.c **** *
 866:Generated_Source\PSoC4/CapSense_1_Processing.c **** * \param wdgtId        The widget index number.
 867:Generated_Source\PSoC4/CapSense_1_Processing.c **** * \param ptrFlashWdgt  The pointer to the Flash widget structure.
 868:Generated_Source\PSoC4/CapSense_1_Processing.c **** *
 869:Generated_Source\PSoC4/CapSense_1_Processing.c **** *******************************************************************************/
 870:Generated_Source\PSoC4/CapSense_1_Processing.c **** void CapSense_1_DpProcessCsdWidgetStatus(uint32 wdgtId, CapSense_1_FLASH_WD_STRUCT const *ptrFlashW
 871:Generated_Source\PSoC4/CapSense_1_Processing.c **** {
 872:Generated_Source\PSoC4/CapSense_1_Processing.c ****     uint32 sensorStatus;
 873:Generated_Source\PSoC4/CapSense_1_Processing.c ****     uint32 wdStatusIndex;
 874:Generated_Source\PSoC4/CapSense_1_Processing.c ****     uint32 wdStatusMask;
 875:Generated_Source\PSoC4/CapSense_1_Processing.c ****     CapSense_1_WD_TYPE_ENUM widgetType;
 876:Generated_Source\PSoC4/CapSense_1_Processing.c **** 
 877:Generated_Source\PSoC4/CapSense_1_Processing.c ****     widgetType = (CapSense_1_WD_TYPE_ENUM)ptrFlashWdgt->wdgtType;
 878:Generated_Source\PSoC4/CapSense_1_Processing.c ****     sensorStatus = CapSense_1_dsRam.snsStatus[wdgtId];
 879:Generated_Source\PSoC4/CapSense_1_Processing.c **** 
 880:Generated_Source\PSoC4/CapSense_1_Processing.c ****     switch (widgetType)
 881:Generated_Source\PSoC4/CapSense_1_Processing.c ****     {
 882:Generated_Source\PSoC4/CapSense_1_Processing.c ****     #if (0u != CapSense_1_BUTTON_WIDGET_EN)
 883:Generated_Source\PSoC4/CapSense_1_Processing.c ****         case CapSense_1_WD_BUTTON_E:
 884:Generated_Source\PSoC4/CapSense_1_Processing.c ****             sensorStatus = CapSense_1_DpProcessButton(sensorStatus, ptrFlashWdgt);
 885:Generated_Source\PSoC4/CapSense_1_Processing.c ****             break;
 886:Generated_Source\PSoC4/CapSense_1_Processing.c ****     #endif /* #if (0u != CapSense_1_BUTTON_WIDGET_EN) */
 887:Generated_Source\PSoC4/CapSense_1_Processing.c **** 
 888:Generated_Source\PSoC4/CapSense_1_Processing.c ****     #if (0u != CapSense_1_SLIDER_WIDGET_EN)
 889:Generated_Source\PSoC4/CapSense_1_Processing.c ****         case CapSense_1_WD_LINEAR_SLIDER_E:
 890:Generated_Source\PSoC4/CapSense_1_Processing.c ****         case CapSense_1_WD_RADIAL_SLIDER_E:
 891:Generated_Source\PSoC4/CapSense_1_Processing.c ****             sensorStatus = CapSense_1_DpProcessSlider(sensorStatus, ptrFlashWdgt);
 892:Generated_Source\PSoC4/CapSense_1_Processing.c ****             break;
 893:Generated_Source\PSoC4/CapSense_1_Processing.c ****     #endif /* #if (0u != CapSense_1_SLIDER_WIDGET_EN) */
 894:Generated_Source\PSoC4/CapSense_1_Processing.c **** 
 895:Generated_Source\PSoC4/CapSense_1_Processing.c ****     #if (0u != CapSense_1_CSD_MATRIX_WIDGET_EN)
 896:Generated_Source\PSoC4/CapSense_1_Processing.c ****         case CapSense_1_WD_MATRIX_BUTTON_E:
ARM GAS  C:\Users\Jannai\AppData\Local\Temp\ccRbizMh.s 			page 19


 897:Generated_Source\PSoC4/CapSense_1_Processing.c ****             sensorStatus = CapSense_1_DpProcessCsdMatrix(sensorStatus, ptrFlashWdgt);
 898:Generated_Source\PSoC4/CapSense_1_Processing.c ****             break;
 899:Generated_Source\PSoC4/CapSense_1_Processing.c ****     #endif /* #if (0u != CapSense_1_CSD_MATRIX_WIDGET_EN) */
 900:Generated_Source\PSoC4/CapSense_1_Processing.c **** 
 901:Generated_Source\PSoC4/CapSense_1_Processing.c ****     #if (0u != CapSense_1_CSD_TOUCHPAD_WIDGET_EN)
 902:Generated_Source\PSoC4/CapSense_1_Processing.c ****         case CapSense_1_WD_TOUCHPAD_E:
 903:Generated_Source\PSoC4/CapSense_1_Processing.c ****             sensorStatus = CapSense_1_DpProcessCsdTouchpad(sensorStatus, ptrFlashWdgt);
 904:Generated_Source\PSoC4/CapSense_1_Processing.c ****             break;
 905:Generated_Source\PSoC4/CapSense_1_Processing.c ****     #endif /* #if (0u != CapSense_1_CSD_TOUCHPAD_WIDGET_EN) */
 906:Generated_Source\PSoC4/CapSense_1_Processing.c **** 
 907:Generated_Source\PSoC4/CapSense_1_Processing.c ****     #if (0u != CapSense_1_PROXIMITY_WIDGET_EN)
 908:Generated_Source\PSoC4/CapSense_1_Processing.c ****         case CapSense_1_WD_PROXIMITY_E:
 909:Generated_Source\PSoC4/CapSense_1_Processing.c ****             sensorStatus = CapSense_1_DpProcessProximity(sensorStatus, ptrFlashWdgt);
 910:Generated_Source\PSoC4/CapSense_1_Processing.c ****             break;
 911:Generated_Source\PSoC4/CapSense_1_Processing.c ****     #endif /* #if (0u != CapSense_1_PROXIMITY_WIDGET_EN) */
 912:Generated_Source\PSoC4/CapSense_1_Processing.c **** 
 913:Generated_Source\PSoC4/CapSense_1_Processing.c ****     default:
 914:Generated_Source\PSoC4/CapSense_1_Processing.c ****         CYASSERT(0u);
 915:Generated_Source\PSoC4/CapSense_1_Processing.c ****         break;
 916:Generated_Source\PSoC4/CapSense_1_Processing.c ****     }
 917:Generated_Source\PSoC4/CapSense_1_Processing.c **** 
 918:Generated_Source\PSoC4/CapSense_1_Processing.c ****     CapSense_1_dsRam.snsStatus[wdgtId] = (CapSense_1_SNS_STS_TYPE)sensorStatus;
 919:Generated_Source\PSoC4/CapSense_1_Processing.c **** 
 920:Generated_Source\PSoC4/CapSense_1_Processing.c ****     /* The next two lines calculate index and bitmask of the widget status bit in the wdgtStatus ar
 921:Generated_Source\PSoC4/CapSense_1_Processing.c ****     wdStatusIndex = CapSense_1_GET_WDGT_STATUS_INDEX(wdgtId);
 922:Generated_Source\PSoC4/CapSense_1_Processing.c ****     wdStatusMask = CapSense_1_GET_WDGT_STATUS_MASK(wdgtId);
 923:Generated_Source\PSoC4/CapSense_1_Processing.c **** 
 924:Generated_Source\PSoC4/CapSense_1_Processing.c ****     /* Check if there are active sensors and update widget status accordingly */
 925:Generated_Source\PSoC4/CapSense_1_Processing.c ****     if (0u == sensorStatus)
 926:Generated_Source\PSoC4/CapSense_1_Processing.c ****     {
 927:Generated_Source\PSoC4/CapSense_1_Processing.c ****         CapSense_1_dsRam.wdgtStatus[wdStatusIndex] &= ~wdStatusMask;
 928:Generated_Source\PSoC4/CapSense_1_Processing.c ****     }
 929:Generated_Source\PSoC4/CapSense_1_Processing.c ****     else
 930:Generated_Source\PSoC4/CapSense_1_Processing.c ****     {
 931:Generated_Source\PSoC4/CapSense_1_Processing.c ****         CapSense_1_dsRam.wdgtStatus[wdStatusIndex] |= wdStatusMask;
 932:Generated_Source\PSoC4/CapSense_1_Processing.c ****     }
 933:Generated_Source\PSoC4/CapSense_1_Processing.c **** }
 934:Generated_Source\PSoC4/CapSense_1_Processing.c **** #endif /* #if (0u != CapSense_1_TOTAL_CSD_WIDGETS) */
 935:Generated_Source\PSoC4/CapSense_1_Processing.c **** 
 936:Generated_Source\PSoC4/CapSense_1_Processing.c **** 
 937:Generated_Source\PSoC4/CapSense_1_Processing.c **** #if (0 != (CapSense_1_CSD_AUTOTUNE & CapSense_1_CSD_SS_TH_EN))
 938:Generated_Source\PSoC4/CapSense_1_Processing.c **** /*******************************************************************************
 939:Generated_Source\PSoC4/CapSense_1_Processing.c **** * Function Name: CapSense_1_DpUpdateThresholds
 940:Generated_Source\PSoC4/CapSense_1_Processing.c **** ****************************************************************************//**
 941:Generated_Source\PSoC4/CapSense_1_Processing.c **** *
 942:Generated_Source\PSoC4/CapSense_1_Processing.c **** * \brief
 943:Generated_Source\PSoC4/CapSense_1_Processing.c **** *   Updates noise and finger thresholds for a specified widget.
 944:Generated_Source\PSoC4/CapSense_1_Processing.c **** *
 945:Generated_Source\PSoC4/CapSense_1_Processing.c **** * \details
 946:Generated_Source\PSoC4/CapSense_1_Processing.c **** *   Updates noise and finger thresholds for a specified widget.
 947:Generated_Source\PSoC4/CapSense_1_Processing.c **** *   This algorithm is a part of Auto-tuning feature.
 948:Generated_Source\PSoC4/CapSense_1_Processing.c **** *
 949:Generated_Source\PSoC4/CapSense_1_Processing.c **** * \param ptrRamWdgt       The pointer to the RAM widget object.
 950:Generated_Source\PSoC4/CapSense_1_Processing.c **** * \param ptrNoiseEnvelope The pointer to the noise-envelope object in RAM.
 951:Generated_Source\PSoC4/CapSense_1_Processing.c **** * \param startFlag        The flag indicates when new widget is processed.
 952:Generated_Source\PSoC4/CapSense_1_Processing.c **** *
 953:Generated_Source\PSoC4/CapSense_1_Processing.c **** *******************************************************************************/
ARM GAS  C:\Users\Jannai\AppData\Local\Temp\ccRbizMh.s 			page 20


 954:Generated_Source\PSoC4/CapSense_1_Processing.c **** void CapSense_1_DpUpdateThresholds(CapSense_1_RAM_WD_BASE_STRUCT *ptrRamWdgt,
 955:Generated_Source\PSoC4/CapSense_1_Processing.c ****                                          SMARTSENSE_CSD_NOISE_ENVELOPE_STRUCT *ptrNoiseEnvelope,
 956:Generated_Source\PSoC4/CapSense_1_Processing.c ****                                          uint32 startFlag)
 957:Generated_Source\PSoC4/CapSense_1_Processing.c **** {
 958:Generated_Source\PSoC4/CapSense_1_Processing.c ****     SMARTSENSE_UPDATE_THRESHOLDS_STRUCT thresholds;    
 959:Generated_Source\PSoC4/CapSense_1_Processing.c ****     SMARTSENSE_UPDATE_THRESHOLDS_STRUCT *ptrThresholds = &thresholds;
 960:Generated_Source\PSoC4/CapSense_1_Processing.c ****     ptrThresholds->fingerTh = ptrRamWdgt->fingerTh;
 961:Generated_Source\PSoC4/CapSense_1_Processing.c **** 
 962:Generated_Source\PSoC4/CapSense_1_Processing.c ****     SmartSense_UpdateThresholds(ptrNoiseEnvelope, ptrThresholds, ptrRamWdgt->sigPFC, startFlag);
 963:Generated_Source\PSoC4/CapSense_1_Processing.c **** 
 964:Generated_Source\PSoC4/CapSense_1_Processing.c ****     ptrRamWdgt->fingerTh = ptrThresholds->fingerTh;
 965:Generated_Source\PSoC4/CapSense_1_Processing.c ****     ptrRamWdgt->noiseTh = ptrThresholds->noiseTh;
 966:Generated_Source\PSoC4/CapSense_1_Processing.c ****     ptrRamWdgt->nNoiseTh = ptrThresholds->nNoiseTh;
 967:Generated_Source\PSoC4/CapSense_1_Processing.c ****     ptrRamWdgt->hysteresis = ptrThresholds->hysteresis;    
 968:Generated_Source\PSoC4/CapSense_1_Processing.c **** }
 969:Generated_Source\PSoC4/CapSense_1_Processing.c **** #endif /* #if (0u != (CapSense_1_CSD_AUTOTUNE & CapSense_1_CSD_SS_TH_EN)) */
 970:Generated_Source\PSoC4/CapSense_1_Processing.c **** 
 971:Generated_Source\PSoC4/CapSense_1_Processing.c **** 
 972:Generated_Source\PSoC4/CapSense_1_Processing.c **** /*******************************************************************************
 973:Generated_Source\PSoC4/CapSense_1_Processing.c **** * Function Name: CapSense_1_DpUpdateDifferences
 974:Generated_Source\PSoC4/CapSense_1_Processing.c **** ****************************************************************************//**
 975:Generated_Source\PSoC4/CapSense_1_Processing.c **** *
 976:Generated_Source\PSoC4/CapSense_1_Processing.c **** * \brief
 977:Generated_Source\PSoC4/CapSense_1_Processing.c **** *   Calculates new difference values.
 978:Generated_Source\PSoC4/CapSense_1_Processing.c **** *   Also, executes the frequency hopping algorithm if it is enabled.
 979:Generated_Source\PSoC4/CapSense_1_Processing.c **** *
 980:Generated_Source\PSoC4/CapSense_1_Processing.c **** * \details
 981:Generated_Source\PSoC4/CapSense_1_Processing.c **** *   This API calculates the difference between the baseline and raw counts.
 982:Generated_Source\PSoC4/CapSense_1_Processing.c **** *   If the difference is positive (raw > baseline), and higher than the widget
 983:Generated_Source\PSoC4/CapSense_1_Processing.c **** *   noise threshold, it is saved into the data structure for further processing.
 984:Generated_Source\PSoC4/CapSense_1_Processing.c **** *   Otherwise the difference is set to zero. The final difference value is saved
 985:Generated_Source\PSoC4/CapSense_1_Processing.c **** *   with the subtracted noise threshold value.
 986:Generated_Source\PSoC4/CapSense_1_Processing.c **** *
 987:Generated_Source\PSoC4/CapSense_1_Processing.c **** *   If the frequency hopping algorithm is enabled, the difference is calculated
 988:Generated_Source\PSoC4/CapSense_1_Processing.c **** *   for the three sets of data available for each sensor. Then
 989:Generated_Source\PSoC4/CapSense_1_Processing.c **** *   the median filter selects the final difference value.
 990:Generated_Source\PSoC4/CapSense_1_Processing.c **** *
 991:Generated_Source\PSoC4/CapSense_1_Processing.c **** * \param ptrRamWdgt The pointer to the RAR Widget Object.
 992:Generated_Source\PSoC4/CapSense_1_Processing.c **** * \param ptrSns     The pointer to the sensor object in RAM.
 993:Generated_Source\PSoC4/CapSense_1_Processing.c **** *
 994:Generated_Source\PSoC4/CapSense_1_Processing.c **** *******************************************************************************/
 995:Generated_Source\PSoC4/CapSense_1_Processing.c **** void CapSense_1_DpUpdateDifferences(
 996:Generated_Source\PSoC4/CapSense_1_Processing.c ****                         CapSense_1_RAM_WD_BASE_STRUCT *ptrRamWdgt,
 997:Generated_Source\PSoC4/CapSense_1_Processing.c ****                         CapSense_1_RAM_SNS_STRUCT *ptrSns)
 998:Generated_Source\PSoC4/CapSense_1_Processing.c **** {
 126              		.loc 1 998 0
 127              		.cfi_startproc
 128              	.LVL14:
 999:Generated_Source\PSoC4/CapSense_1_Processing.c ****     register int32 diffValue = 0;
1000:Generated_Source\PSoC4/CapSense_1_Processing.c **** 
1001:Generated_Source\PSoC4/CapSense_1_Processing.c ****     #if (0u != CapSense_1_MULTI_FREQ_SCAN_EN)
1002:Generated_Source\PSoC4/CapSense_1_Processing.c ****         register int32 diffValue_0 = 0;
1003:Generated_Source\PSoC4/CapSense_1_Processing.c ****         register int32 diffValue_2 = 0;
1004:Generated_Source\PSoC4/CapSense_1_Processing.c ****     #endif /* #if (0u != CapSense_1_MULTI_FREQ_SCAN_EN) */
1005:Generated_Source\PSoC4/CapSense_1_Processing.c **** 
1006:Generated_Source\PSoC4/CapSense_1_Processing.c ****     /* Calculate difference */
1007:Generated_Source\PSoC4/CapSense_1_Processing.c ****     diffValue = (int32)ptrSns->raw[0u] - (int32)ptrSns->bsln[0u];
ARM GAS  C:\Users\Jannai\AppData\Local\Temp\ccRbizMh.s 			page 21


 129              		.loc 1 1007 0
 130 0000 0B88     		ldrh	r3, [r1]
 131 0002 4A88     		ldrh	r2, [r1, #2]
 132 0004 9B1A     		sub	r3, r3, r2
 133              	.LVL15:
1008:Generated_Source\PSoC4/CapSense_1_Processing.c **** 
1009:Generated_Source\PSoC4/CapSense_1_Processing.c ****     #if (0u != CapSense_1_MULTI_FREQ_SCAN_EN)
1010:Generated_Source\PSoC4/CapSense_1_Processing.c ****         diffValue_0 = (int32)ptrSns->raw[1u] - (int32)ptrSns->bsln[1u];
1011:Generated_Source\PSoC4/CapSense_1_Processing.c ****         diffValue_2 = (int32)ptrSns->raw[2u] - (int32)ptrSns->bsln[2u];
1012:Generated_Source\PSoC4/CapSense_1_Processing.c **** 
1013:Generated_Source\PSoC4/CapSense_1_Processing.c ****         /* Find median and put it into [0u] element */
1014:Generated_Source\PSoC4/CapSense_1_Processing.c ****         if (diffValue_0 > diffValue)
1015:Generated_Source\PSoC4/CapSense_1_Processing.c ****         {
1016:Generated_Source\PSoC4/CapSense_1_Processing.c ****             register int32 swapv = diffValue_0;
1017:Generated_Source\PSoC4/CapSense_1_Processing.c ****             diffValue_0 = diffValue;
1018:Generated_Source\PSoC4/CapSense_1_Processing.c ****             diffValue = swapv;
1019:Generated_Source\PSoC4/CapSense_1_Processing.c ****         }
1020:Generated_Source\PSoC4/CapSense_1_Processing.c **** 
1021:Generated_Source\PSoC4/CapSense_1_Processing.c ****         if (diffValue > diffValue_2)
1022:Generated_Source\PSoC4/CapSense_1_Processing.c ****         {
1023:Generated_Source\PSoC4/CapSense_1_Processing.c ****             register int32 swapv = diffValue;
1024:Generated_Source\PSoC4/CapSense_1_Processing.c ****             diffValue = diffValue_2;
1025:Generated_Source\PSoC4/CapSense_1_Processing.c ****             diffValue_2 = swapv;
1026:Generated_Source\PSoC4/CapSense_1_Processing.c ****         }
1027:Generated_Source\PSoC4/CapSense_1_Processing.c **** 
1028:Generated_Source\PSoC4/CapSense_1_Processing.c ****         if (diffValue_0 > diffValue)
1029:Generated_Source\PSoC4/CapSense_1_Processing.c ****         {
1030:Generated_Source\PSoC4/CapSense_1_Processing.c ****             register int32 swapv = diffValue_0;
1031:Generated_Source\PSoC4/CapSense_1_Processing.c ****             diffValue_0 = diffValue;
1032:Generated_Source\PSoC4/CapSense_1_Processing.c ****             diffValue = swapv;
1033:Generated_Source\PSoC4/CapSense_1_Processing.c ****         }
1034:Generated_Source\PSoC4/CapSense_1_Processing.c ****     #endif /* #if (0u != CapSense_1_MULTI_FREQ_SCAN_EN) */
1035:Generated_Source\PSoC4/CapSense_1_Processing.c **** 
1036:Generated_Source\PSoC4/CapSense_1_Processing.c ****     ptrSns->diff = 0u;
 134              		.loc 1 1036 0
 135 0006 0022     		mov	r2, #0
 136 0008 CA80     		strh	r2, [r1, #6]
1037:Generated_Source\PSoC4/CapSense_1_Processing.c **** 
1038:Generated_Source\PSoC4/CapSense_1_Processing.c ****     if (diffValue > (int32)ptrRamWdgt->noiseTh)
 137              		.loc 1 1038 0
 138 000a 0279     		ldrb	r2, [r0, #4]
 139 000c 9A42     		cmp	r2, r3
 140 000e 00DA     		bge	.L10
1039:Generated_Source\PSoC4/CapSense_1_Processing.c ****     {
1040:Generated_Source\PSoC4/CapSense_1_Processing.c ****         ptrSns->diff = (CapSense_1_THRESHOLD_TYPE) diffValue;
 141              		.loc 1 1040 0
 142 0010 CB80     		strh	r3, [r1, #6]
 143              	.L10:
1041:Generated_Source\PSoC4/CapSense_1_Processing.c ****     }
1042:Generated_Source\PSoC4/CapSense_1_Processing.c **** }
 144              		.loc 1 1042 0
 145              		@ sp needed
 146 0012 7047     		bx	lr
 147              		.cfi_endproc
 148              	.LFE6:
 149              		.size	CapSense_1_DpUpdateDifferences, .-CapSense_1_DpUpdateDifferences
 150              		.section	.text.CapSense_1_DpProcessCsxWidgetRawCounts,"ax",%progbits
ARM GAS  C:\Users\Jannai\AppData\Local\Temp\ccRbizMh.s 			page 22


 151              		.align	2
 152              		.global	CapSense_1_DpProcessCsxWidgetRawCounts
 153              		.code	16
 154              		.thumb_func
 155              		.type	CapSense_1_DpProcessCsxWidgetRawCounts, %function
 156              	CapSense_1_DpProcessCsxWidgetRawCounts:
 157              	.LFB3:
 467:Generated_Source\PSoC4/CapSense_1_Processing.c ****     uint32  widgetType;
 158              		.loc 1 467 0
 159              		.cfi_startproc
 160              	.LVL16:
 161 0000 F8B5     		push	{r3, r4, r5, r6, r7, lr}
 162              		.cfi_def_cfa_offset 24
 163              		.cfi_offset 3, -24
 164              		.cfi_offset 4, -20
 165              		.cfi_offset 5, -16
 166              		.cfi_offset 6, -12
 167              		.cfi_offset 7, -8
 168              		.cfi_offset 14, -4
 479:Generated_Source\PSoC4/CapSense_1_Processing.c ****     snsCount = ptrFlashWdgt->totalNumSns;
 169              		.loc 1 479 0
 170 0002 8468     		ldr	r4, [r0, #8]
 171              	.LVL17:
 480:Generated_Source\PSoC4/CapSense_1_Processing.c ****     ptrRamWdgt = ptrFlashWdgt->ptr2WdgtRam;
 172              		.loc 1 480 0
 173 0004 C38A     		ldrh	r3, [r0, #22]
 174              	.LVL18:
 481:Generated_Source\PSoC4/CapSense_1_Processing.c ****     widgetType = ptrFlashWdgt->wdgtType;
 175              		.loc 1 481 0
 176 0006 4568     		ldr	r5, [r0, #4]
 177              	.LVL19:
 482:Generated_Source\PSoC4/CapSense_1_Processing.c **** 
 178              		.loc 1 482 0
 179 0008 067E     		ldrb	r6, [r0, #24]
 180              	.LVL20:
 492:Generated_Source\PSoC4/CapSense_1_Processing.c ****     {
 181              		.loc 1 492 0
 182 000a 0AE0     		b	.L13
 183              	.LVL21:
 184              	.L14:
 502:Generated_Source\PSoC4/CapSense_1_Processing.c ****                 CapSense_1_DpUpdateDifferences(ptrRamWdgt, ptrSns);
 185              		.loc 1 502 0
 186 000c 281C     		mov	r0, r5
 187 000e 211C     		mov	r1, r4
 188 0010 321C     		mov	r2, r6
 189 0012 FFF7FEFF 		bl	CapSense_1_FtUpdateBaseline
 190              	.LVL22:
 503:Generated_Source\PSoC4/CapSense_1_Processing.c ****             }
 191              		.loc 1 503 0
 192 0016 281C     		mov	r0, r5
 193 0018 211C     		mov	r1, r4
 194 001a FFF7FEFF 		bl	CapSense_1_DpUpdateDifferences
 195              	.LVL23:
 507:Generated_Source\PSoC4/CapSense_1_Processing.c ****             
 196              		.loc 1 507 0
 197 001e 0A34     		add	r4, r4, #10
 198              	.LVL24:
ARM GAS  C:\Users\Jannai\AppData\Local\Temp\ccRbizMh.s 			page 23


 492:Generated_Source\PSoC4/CapSense_1_Processing.c ****     {
 199              		.loc 1 492 0
 200 0020 3B1C     		mov	r3, r7
 201              	.LVL25:
 202              	.L13:
 203 0022 5F1E     		sub	r7, r3, #1
 204              	.LVL26:
 205 0024 002B     		cmp	r3, #0
 206 0026 F1D1     		bne	.L14
 513:Generated_Source\PSoC4/CapSense_1_Processing.c **** 
 207              		.loc 1 513 0
 208              		@ sp needed
 209              	.LVL27:
 210              	.LVL28:
 211              	.LVL29:
 212              	.LVL30:
 213 0028 F8BD     		pop	{r3, r4, r5, r6, r7, pc}
 214              		.cfi_endproc
 215              	.LFE3:
 216              		.size	CapSense_1_DpProcessCsxWidgetRawCounts, .-CapSense_1_DpProcessCsxWidgetRawCounts
 217 002a C046     		.section	.text.CapSense_1_DpProcessCsxSensorRawCountsExt,"ax",%progbits
 218              		.align	2
 219              		.global	CapSense_1_DpProcessCsxSensorRawCountsExt
 220              		.code	16
 221              		.thumb_func
 222              		.type	CapSense_1_DpProcessCsxSensorRawCountsExt, %function
 223              	CapSense_1_DpProcessCsxSensorRawCountsExt:
 224              	.LFB4:
 544:Generated_Source\PSoC4/CapSense_1_Processing.c ****     uint32  widgetType;
 225              		.loc 1 544 0
 226              		.cfi_startproc
 227              	.LVL31:
 228 0000 70B5     		push	{r4, r5, r6, lr}
 229              		.cfi_def_cfa_offset 16
 230              		.cfi_offset 4, -16
 231              		.cfi_offset 5, -12
 232              		.cfi_offset 6, -8
 233              		.cfi_offset 14, -4
 234 0002 0D1C     		mov	r5, r1
 235 0004 1C1C     		mov	r4, r3
 548:Generated_Source\PSoC4/CapSense_1_Processing.c ****     ptrRamWdgt = ptrFlashWdgt->ptr2WdgtRam;
 236              		.loc 1 548 0
 237 0006 027E     		ldrb	r2, [r0, #24]
 238              	.LVL32:
 549:Generated_Source\PSoC4/CapSense_1_Processing.c ****     
 239              		.loc 1 549 0
 240 0008 4668     		ldr	r6, [r0, #4]
 241              	.LVL33:
 560:Generated_Source\PSoC4/CapSense_1_Processing.c ****     {
 242              		.loc 1 560 0
 243 000a A307     		lsl	r3, r4, #30
 244 000c 02D5     		bpl	.L16
 245              	.LVL34:
 562:Generated_Source\PSoC4/CapSense_1_Processing.c ****     }
 246              		.loc 1 562 0
 247 000e 301C     		mov	r0, r6
 248              	.LVL35:
ARM GAS  C:\Users\Jannai\AppData\Local\Temp\ccRbizMh.s 			page 24


 249 0010 FFF7FEFF 		bl	CapSense_1_FtUpdateBaseline
 250              	.LVL36:
 251              	.L16:
 565:Generated_Source\PSoC4/CapSense_1_Processing.c ****     {
 252              		.loc 1 565 0
 253 0014 6307     		lsl	r3, r4, #29
 254 0016 03D5     		bpl	.L15
 567:Generated_Source\PSoC4/CapSense_1_Processing.c ****     }
 255              		.loc 1 567 0
 256 0018 301C     		mov	r0, r6
 257 001a 291C     		mov	r1, r5
 258 001c FFF7FEFF 		bl	CapSense_1_DpUpdateDifferences
 259              	.LVL37:
 260              	.L15:
 569:Generated_Source\PSoC4/CapSense_1_Processing.c **** 
 261              		.loc 1 569 0
 262              		@ sp needed
 263              	.LVL38:
 264              	.LVL39:
 265              	.LVL40:
 266 0020 70BD     		pop	{r4, r5, r6, pc}
 267              		.cfi_endproc
 268              	.LFE4:
 269              		.size	CapSense_1_DpProcessCsxSensorRawCountsExt, .-CapSense_1_DpProcessCsxSensorRawCountsExt
 270 0022 C046     		.section	.text.CapSense_1_DpProcessButton,"ax",%progbits
 271              		.align	2
 272              		.global	CapSense_1_DpProcessButton
 273              		.code	16
 274              		.thumb_func
 275              		.type	CapSense_1_DpProcessButton, %function
 276              	CapSense_1_DpProcessButton:
 277              	.LFB7:
1043:Generated_Source\PSoC4/CapSense_1_Processing.c **** 
1044:Generated_Source\PSoC4/CapSense_1_Processing.c **** 
1045:Generated_Source\PSoC4/CapSense_1_Processing.c **** #if ((0u != CapSense_1_BUTTON_WIDGET_EN) || (0u != CapSense_1_CSX_MATRIX_WIDGET_EN))
1046:Generated_Source\PSoC4/CapSense_1_Processing.c **** /*******************************************************************************
1047:Generated_Source\PSoC4/CapSense_1_Processing.c **** * Function Name: CapSense_1_DpProcessButton
1048:Generated_Source\PSoC4/CapSense_1_Processing.c **** ****************************************************************************//**
1049:Generated_Source\PSoC4/CapSense_1_Processing.c **** *
1050:Generated_Source\PSoC4/CapSense_1_Processing.c **** * \brief
1051:Generated_Source\PSoC4/CapSense_1_Processing.c **** *   Processes the status of the Button widget.
1052:Generated_Source\PSoC4/CapSense_1_Processing.c **** *
1053:Generated_Source\PSoC4/CapSense_1_Processing.c **** * \details
1054:Generated_Source\PSoC4/CapSense_1_Processing.c **** *   This API processes the status of the CSD/CSX Button widget and
1055:Generated_Source\PSoC4/CapSense_1_Processing.c **** *   CSX Matrix Button widget. It applies the hysteresis and de-bounce algorithm
1056:Generated_Source\PSoC4/CapSense_1_Processing.c **** *   to each sensor difference value. This API is expected to be called
1057:Generated_Source\PSoC4/CapSense_1_Processing.c **** *   after each new widget scan. If it is called multiple times for the same
1058:Generated_Source\PSoC4/CapSense_1_Processing.c **** *   scan data, the de-bounce algorithm will not work properly.
1059:Generated_Source\PSoC4/CapSense_1_Processing.c **** *
1060:Generated_Source\PSoC4/CapSense_1_Processing.c **** *   This API does not update any Data Structure registers
1061:Generated_Source\PSoC4/CapSense_1_Processing.c **** *   except the de-bounce counters.
1062:Generated_Source\PSoC4/CapSense_1_Processing.c **** *
1063:Generated_Source\PSoC4/CapSense_1_Processing.c **** * \param currStatus   The current status of the widget sensors.
1064:Generated_Source\PSoC4/CapSense_1_Processing.c **** * \param ptrFlashWdgt The pointer to the Flash Widget Object.
1065:Generated_Source\PSoC4/CapSense_1_Processing.c **** *
1066:Generated_Source\PSoC4/CapSense_1_Processing.c **** * \return Returns the status of the widget's sensors. Bit #0 - corresponds to Sensor #0.
1067:Generated_Source\PSoC4/CapSense_1_Processing.c **** *
ARM GAS  C:\Users\Jannai\AppData\Local\Temp\ccRbizMh.s 			page 25


1068:Generated_Source\PSoC4/CapSense_1_Processing.c **** *******************************************************************************/
1069:Generated_Source\PSoC4/CapSense_1_Processing.c **** uint32 CapSense_1_DpProcessButton(uint32 currStatus, CapSense_1_FLASH_WD_STRUCT const *ptrFlashWdgt
1070:Generated_Source\PSoC4/CapSense_1_Processing.c **** {
 278              		.loc 1 1070 0
 279              		.cfi_startproc
 280              	.LVL41:
 281 0000 F0B5     		push	{r4, r5, r6, r7, lr}
 282              		.cfi_def_cfa_offset 20
 283              		.cfi_offset 4, -20
 284              		.cfi_offset 5, -16
 285              		.cfi_offset 6, -12
 286              		.cfi_offset 7, -8
 287              		.cfi_offset 14, -4
1071:Generated_Source\PSoC4/CapSense_1_Processing.c ****     uint32 snsCnt;
1072:Generated_Source\PSoC4/CapSense_1_Processing.c ****     uint32 snsMask;
1073:Generated_Source\PSoC4/CapSense_1_Processing.c ****     uint32 newStatus;
1074:Generated_Source\PSoC4/CapSense_1_Processing.c ****     uint32 touchTh;
1075:Generated_Source\PSoC4/CapSense_1_Processing.c ****     CapSense_1_RAM_SNS_STRUCT *ptrSns;
1076:Generated_Source\PSoC4/CapSense_1_Processing.c ****     CapSense_1_RAM_WD_BASE_STRUCT *ptrRamWdgt;
1077:Generated_Source\PSoC4/CapSense_1_Processing.c ****     uint8 * ptrDebounceCnt;
1078:Generated_Source\PSoC4/CapSense_1_Processing.c **** 
1079:Generated_Source\PSoC4/CapSense_1_Processing.c ****     snsCnt = ptrFlashWdgt->totalNumSns;
 288              		.loc 1 1079 0
 289 0002 CA8A     		ldrh	r2, [r1, #22]
 290              	.LVL42:
1080:Generated_Source\PSoC4/CapSense_1_Processing.c ****     ptrSns = ptrFlashWdgt->ptr2SnsRam;
 291              		.loc 1 1080 0
 292 0004 8D68     		ldr	r5, [r1, #8]
 293              	.LVL43:
1081:Generated_Source\PSoC4/CapSense_1_Processing.c ****     ptrRamWdgt = ptrFlashWdgt->ptr2WdgtRam;
 294              		.loc 1 1081 0
 295 0006 4F68     		ldr	r7, [r1, #4]
 296              	.LVL44:
1082:Generated_Source\PSoC4/CapSense_1_Processing.c ****     ptrDebounceCnt = ptrFlashWdgt->ptr2DebounceArr;
 297              		.loc 1 1082 0
 298 0008 0B69     		ldr	r3, [r1, #16]
 299              	.LVL45:
1083:Generated_Source\PSoC4/CapSense_1_Processing.c **** 
1084:Generated_Source\PSoC4/CapSense_1_Processing.c ****     /* Go through all widget's sensors */
1085:Generated_Source\PSoC4/CapSense_1_Processing.c ****     snsMask = 1Lu;
 300              		.loc 1 1085 0
 301 000a 0121     		mov	r1, #1
 302              	.LVL46:
1086:Generated_Source\PSoC4/CapSense_1_Processing.c ****     for (; snsCnt-- > 0u; )
 303              		.loc 1 1086 0
 304 000c 25E0     		b	.L19
 305              	.LVL47:
 306              	.L27:
1087:Generated_Source\PSoC4/CapSense_1_Processing.c ****     {
1088:Generated_Source\PSoC4/CapSense_1_Processing.c ****         /* Calculate touch threshold taking into account hysteresis
1089:Generated_Source\PSoC4/CapSense_1_Processing.c ****            and current sensor state. */
1090:Generated_Source\PSoC4/CapSense_1_Processing.c ****         touchTh = (0u == (currStatus & snsMask)) ?
 307              		.loc 1 1090 0
 308 000e 0C1C     		mov	r4, r1
 309              	.LVL48:
 310 0010 0440     		and	r4, r0
1091:Generated_Source\PSoC4/CapSense_1_Processing.c ****                   ((uint32)ptrRamWdgt->fingerTh + ptrRamWdgt->hysteresis) :
ARM GAS  C:\Users\Jannai\AppData\Local\Temp\ccRbizMh.s 			page 26


 311              		.loc 1 1091 0
 312 0012 03D1     		bne	.L20
 313              		.loc 1 1091 0 is_stmt 0 discriminator 1
 314 0014 7E88     		ldrh	r6, [r7, #2]
 315 0016 BA79     		ldrb	r2, [r7, #6]
 316 0018 B218     		add	r2, r6, r2
 317 001a 02E0     		b	.L21
 318              	.L20:
1092:Generated_Source\PSoC4/CapSense_1_Processing.c ****                   ((uint32)ptrRamWdgt->fingerTh - ptrRamWdgt->hysteresis);
 319              		.loc 1 1092 0 is_stmt 1 discriminator 2
 320 001c 7A88     		ldrh	r2, [r7, #2]
 321 001e BE79     		ldrb	r6, [r7, #6]
1091:Generated_Source\PSoC4/CapSense_1_Processing.c ****                   ((uint32)ptrRamWdgt->fingerTh + ptrRamWdgt->hysteresis) :
 322              		.loc 1 1091 0 discriminator 2
 323 0020 921B     		sub	r2, r2, r6
 324              	.L21:
 325              	.LVL49:
1093:Generated_Source\PSoC4/CapSense_1_Processing.c **** 
1094:Generated_Source\PSoC4/CapSense_1_Processing.c ****         /* Determine new potential sensor state */
1095:Generated_Source\PSoC4/CapSense_1_Processing.c ****         newStatus = (ptrSns->diff > touchTh) ? snsMask : 0u;
 326              		.loc 1 1095 0
 327 0022 EE88     		ldrh	r6, [r5, #6]
 328 0024 B242     		cmp	r2, r6
 329 0026 01D3     		bcc	.L28
 330 0028 0022     		mov	r2, #0
 331              	.LVL50:
 332 002a 00E0     		b	.L22
 333              	.LVL51:
 334              	.L28:
 335 002c 0A1C     		mov	r2, r1
 336              	.LVL52:
 337              	.L22:
1096:Generated_Source\PSoC4/CapSense_1_Processing.c **** 
1097:Generated_Source\PSoC4/CapSense_1_Processing.c ****         /* Sensor state changed ? */
1098:Generated_Source\PSoC4/CapSense_1_Processing.c ****         if (newStatus != (currStatus & snsMask))
 338              		.loc 1 1098 0 discriminator 4
 339 002e A242     		cmp	r2, r4
 340 0030 02D0     		beq	.L23
1099:Generated_Source\PSoC4/CapSense_1_Processing.c ****         {
1100:Generated_Source\PSoC4/CapSense_1_Processing.c ****             /* Decrement de-bounce counter */
1101:Generated_Source\PSoC4/CapSense_1_Processing.c ****             (*ptrDebounceCnt)--;
 341              		.loc 1 1101 0
 342 0032 1E78     		ldrb	r6, [r3]
 343 0034 013E     		sub	r6, r6, #1
 344 0036 1E70     		strb	r6, [r3]
 345              	.L23:
1102:Generated_Source\PSoC4/CapSense_1_Processing.c ****         }
1103:Generated_Source\PSoC4/CapSense_1_Processing.c **** 
1104:Generated_Source\PSoC4/CapSense_1_Processing.c ****         /* This piece of code has two objectives:
1105:Generated_Source\PSoC4/CapSense_1_Processing.c ****            1. Reset de-bounce counter if the sensor state did not change.
1106:Generated_Source\PSoC4/CapSense_1_Processing.c ****               (It is possible that during previous processing cycles sensor
1107:Generated_Source\PSoC4/CapSense_1_Processing.c ****                was active and de-bounce counter was decremented.)
1108:Generated_Source\PSoC4/CapSense_1_Processing.c ****            2. Set new sensor state after successful de-bounce.
1109:Generated_Source\PSoC4/CapSense_1_Processing.c ****          */
1110:Generated_Source\PSoC4/CapSense_1_Processing.c ****         if ((newStatus == (currStatus & snsMask)) || (0u == (*ptrDebounceCnt)))
 346              		.loc 1 1110 0
 347 0038 A242     		cmp	r2, r4
ARM GAS  C:\Users\Jannai\AppData\Local\Temp\ccRbizMh.s 			page 27


 348 003a 02D0     		beq	.L24
 349              		.loc 1 1110 0 is_stmt 0 discriminator 1
 350 003c 1C78     		ldrb	r4, [r3]
 351 003e 002C     		cmp	r4, #0
 352 0040 07D1     		bne	.L25
 353              	.L24:
1111:Generated_Source\PSoC4/CapSense_1_Processing.c ****         {
1112:Generated_Source\PSoC4/CapSense_1_Processing.c ****             /* Set new sensor status */
1113:Generated_Source\PSoC4/CapSense_1_Processing.c ****             currStatus &= ~snsMask;
 354              		.loc 1 1113 0 is_stmt 1
 355 0042 8843     		bic	r0, r1
 356              	.LVL53:
1114:Generated_Source\PSoC4/CapSense_1_Processing.c ****             currStatus |= newStatus;
 357              		.loc 1 1114 0
 358 0044 1043     		orr	r0, r2
 359              	.LVL54:
1115:Generated_Source\PSoC4/CapSense_1_Processing.c **** 
1116:Generated_Source\PSoC4/CapSense_1_Processing.c ****             /* Reset de-bounce counter */
1117:Generated_Source\PSoC4/CapSense_1_Processing.c ****             #if (0u != CapSense_1_OFF_DEBOUNCE_EN)
1118:Generated_Source\PSoC4/CapSense_1_Processing.c ****                 *ptrDebounceCnt = (0Lu == newStatus) ? ptrRamWdgt->onDebounce : ptrRamWdgt->offDebo
1119:Generated_Source\PSoC4/CapSense_1_Processing.c ****             #else
1120:Generated_Source\PSoC4/CapSense_1_Processing.c ****                 *ptrDebounceCnt = (0Lu == newStatus) ? ptrRamWdgt->onDebounce : DEFAULT_OFF_DEBOUNC
 360              		.loc 1 1120 0
 361 0046 002A     		cmp	r2, #0
 362 0048 01D1     		bne	.L29
 363              		.loc 1 1120 0 is_stmt 0 discriminator 1
 364 004a FA79     		ldrb	r2, [r7, #7]
 365              	.LVL55:
 366 004c 00E0     		b	.L26
 367              	.LVL56:
 368              	.L29:
 369              		.loc 1 1120 0
 370 004e 0122     		mov	r2, #1
 371              	.LVL57:
 372              	.L26:
 373              		.loc 1 1120 0 discriminator 4
 374 0050 1A70     		strb	r2, [r3]
 375              	.L25:
1121:Generated_Source\PSoC4/CapSense_1_Processing.c ****             #endif /* #if (0u != CapSense_1_OFF_DEBOUNCE_EN) */
1122:Generated_Source\PSoC4/CapSense_1_Processing.c ****         }
1123:Generated_Source\PSoC4/CapSense_1_Processing.c ****         
1124:Generated_Source\PSoC4/CapSense_1_Processing.c ****         /* Move mask to the next sensor */
1125:Generated_Source\PSoC4/CapSense_1_Processing.c ****         snsMask <<= 1u;
 376              		.loc 1 1125 0 is_stmt 1
 377 0052 4900     		lsl	r1, r1, #1
 378              	.LVL58:
1126:Generated_Source\PSoC4/CapSense_1_Processing.c ****         
1127:Generated_Source\PSoC4/CapSense_1_Processing.c ****         ptrSns++;
 379              		.loc 1 1127 0
 380 0054 0A35     		add	r5, r5, #10
 381              	.LVL59:
1128:Generated_Source\PSoC4/CapSense_1_Processing.c ****         ptrDebounceCnt++;
 382              		.loc 1 1128 0
 383 0056 0133     		add	r3, r3, #1
 384              	.LVL60:
1086:Generated_Source\PSoC4/CapSense_1_Processing.c ****     {
 385              		.loc 1 1086 0
ARM GAS  C:\Users\Jannai\AppData\Local\Temp\ccRbizMh.s 			page 28


 386 0058 6246     		mov	r2, ip
 387              	.LVL61:
 388              	.L19:
 389 005a 541E     		sub	r4, r2, #1
 390 005c A446     		mov	ip, r4
 391              	.LVL62:
 392 005e 002A     		cmp	r2, #0
 393 0060 D5D1     		bne	.L27
1129:Generated_Source\PSoC4/CapSense_1_Processing.c ****     }
1130:Generated_Source\PSoC4/CapSense_1_Processing.c **** 
1131:Generated_Source\PSoC4/CapSense_1_Processing.c ****     return currStatus;
1132:Generated_Source\PSoC4/CapSense_1_Processing.c **** }
 394              		.loc 1 1132 0
 395              		@ sp needed
 396              	.LVL63:
 397              	.LVL64:
 398              	.LVL65:
 399 0062 F0BD     		pop	{r4, r5, r6, r7, pc}
 400              		.cfi_endproc
 401              	.LFE7:
 402              		.size	CapSense_1_DpProcessButton, .-CapSense_1_DpProcessButton
 403              		.section	.text.CapSense_1_DpProcessCsxWidgetStatus,"ax",%progbits
 404              		.align	2
 405              		.global	CapSense_1_DpProcessCsxWidgetStatus
 406              		.code	16
 407              		.thumb_func
 408              		.type	CapSense_1_DpProcessCsxWidgetStatus, %function
 409              	CapSense_1_DpProcessCsxWidgetStatus:
 410              	.LFB5:
 598:Generated_Source\PSoC4/CapSense_1_Processing.c ****     uint32 sensorStatus;
 411              		.loc 1 598 0
 412              		.cfi_startproc
 413              	.LVL66:
 414 0000 38B5     		push	{r3, r4, r5, lr}
 415              		.cfi_def_cfa_offset 16
 416              		.cfi_offset 3, -16
 417              		.cfi_offset 4, -12
 418              		.cfi_offset 5, -8
 419              		.cfi_offset 14, -4
 420 0002 041C     		mov	r4, r0
 604:Generated_Source\PSoC4/CapSense_1_Processing.c ****     sensorStatus = CapSense_1_dsRam.snsStatus[wdgtId];
 421              		.loc 1 604 0
 422 0004 0A7E     		ldrb	r2, [r1, #24]
 423              	.LVL67:
 605:Generated_Source\PSoC4/CapSense_1_Processing.c **** 
 424              		.loc 1 605 0
 425 0006 134B     		ldr	r3, .L37
 426 0008 1B18     		add	r3, r3, r0
 427 000a 1D7D     		ldrb	r5, [r3, #20]
 428              	.LVL68:
 607:Generated_Source\PSoC4/CapSense_1_Processing.c ****     {
 429              		.loc 1 607 0
 430 000c 012A     		cmp	r2, #1
 431 000e 04D1     		bne	.L36
 611:Generated_Source\PSoC4/CapSense_1_Processing.c ****             break;
 432              		.loc 1 611 0
 433 0010 281C     		mov	r0, r5
ARM GAS  C:\Users\Jannai\AppData\Local\Temp\ccRbizMh.s 			page 29


 434              	.LVL69:
 435 0012 FFF7FEFF 		bl	CapSense_1_DpProcessButton
 436              	.LVL70:
 437 0016 051C     		mov	r5, r0
 438              	.LVL71:
 612:Generated_Source\PSoC4/CapSense_1_Processing.c ****     #endif /* #if (0u != CapSense_1_BUTTON_WIDGET_EN) */
 439              		.loc 1 612 0
 440 0018 02E0     		b	.L33
 441              	.LVL72:
 442              	.L36:
 628:Generated_Source\PSoC4/CapSense_1_Processing.c ****         break;
 443              		.loc 1 628 0 discriminator 1
 444 001a 0020     		mov	r0, #0
 445              	.LVL73:
 446 001c FFF7FEFF 		bl	CyHalt
 447              	.LVL74:
 448              	.L33:
 633:Generated_Source\PSoC4/CapSense_1_Processing.c **** 
 449              		.loc 1 633 0
 450 0020 0C4B     		ldr	r3, .L37
 451 0022 1B19     		add	r3, r3, r4
 452 0024 1D75     		strb	r5, [r3, #20]
 636:Generated_Source\PSoC4/CapSense_1_Processing.c ****     wdStatusMask = CapSense_1_GET_WDGT_STATUS_MASK(wdgtId);
 453              		.loc 1 636 0
 454 0026 6309     		lsr	r3, r4, #5
 455              	.LVL75:
 637:Generated_Source\PSoC4/CapSense_1_Processing.c **** 
 456              		.loc 1 637 0
 457 0028 1F22     		mov	r2, #31
 458 002a 1440     		and	r4, r2
 459              	.LVL76:
 460 002c 1E3A     		sub	r2, r2, #30
 461 002e A240     		lsl	r2, r2, r4
 462 0030 141C     		mov	r4, r2
 463              	.LVL77:
 640:Generated_Source\PSoC4/CapSense_1_Processing.c ****     {
 464              		.loc 1 640 0
 465 0032 002D     		cmp	r5, #0
 466 0034 06D1     		bne	.L34
 642:Generated_Source\PSoC4/CapSense_1_Processing.c ****     }
 467              		.loc 1 642 0
 468 0036 0749     		ldr	r1, .L37
 469 0038 0433     		add	r3, r3, #4
 470              	.LVL78:
 471 003a 9B00     		lsl	r3, r3, #2
 472              	.LVL79:
 473 003c 5A58     		ldr	r2, [r3, r1]
 474              	.LVL80:
 475 003e A243     		bic	r2, r4
 476 0040 5A50     		str	r2, [r3, r1]
 477 0042 05E0     		b	.L30
 478              	.LVL81:
 479              	.L34:
 646:Generated_Source\PSoC4/CapSense_1_Processing.c ****     }
 480              		.loc 1 646 0
 481 0044 034A     		ldr	r2, .L37
 482              	.LVL82:
ARM GAS  C:\Users\Jannai\AppData\Local\Temp\ccRbizMh.s 			page 30


 483 0046 0433     		add	r3, r3, #4
 484              	.LVL83:
 485 0048 9B00     		lsl	r3, r3, #2
 486              	.LVL84:
 487 004a 9958     		ldr	r1, [r3, r2]
 488 004c 0C43     		orr	r4, r1
 489              	.LVL85:
 490 004e 9C50     		str	r4, [r3, r2]
 491              	.L30:
 648:Generated_Source\PSoC4/CapSense_1_Processing.c **** #endif /* #if CapSense_1_TOTAL_CSX_WIDGETS */
 492              		.loc 1 648 0
 493              		@ sp needed
 494              	.LVL86:
 495 0050 38BD     		pop	{r3, r4, r5, pc}
 496              	.L38:
 497 0052 C046     		.align	2
 498              	.L37:
 499 0054 00000000 		.word	CapSense_1_dsRam
 500              		.cfi_endproc
 501              	.LFE5:
 502              		.size	CapSense_1_DpProcessCsxWidgetStatus, .-CapSense_1_DpProcessCsxWidgetStatus
 503              		.text
 504              	.Letext0:
 505              		.file 2 "Generated_Source\\PSoC4\\cytypes.h"
 506              		.file 3 "Generated_Source\\PSoC4\\CapSense_1_Configuration.h"
 507              		.file 4 "Generated_Source\\PSoC4\\CapSense_1_Structure.h"
 508              		.file 5 "c:\\program files (x86)\\cypress\\psoc creator\\4.0\\psoc creator\\import\\gnu\\arm\\4.9.
 509              		.file 6 "c:\\program files (x86)\\cypress\\psoc creator\\4.0\\psoc creator\\import\\gnu\\arm\\4.9.
 510              		.file 7 "Generated_Source\\PSoC4\\CapSense_1_Filter.h"
 511              		.file 8 "Generated_Source\\PSoC4\\CyLib.h"