ARM GAS  C:\Users\Jannai\AppData\Local\Temp\ccMGc53i.s 			page 1


   1              		.cpu cortex-m0
   2              		.fpu softvfp
   3              		.eabi_attribute 20, 1
   4              		.eabi_attribute 21, 1
   5              		.eabi_attribute 23, 3
   6              		.eabi_attribute 24, 1
   7              		.eabi_attribute 25, 1
   8              		.eabi_attribute 26, 1
   9              		.eabi_attribute 30, 1
  10              		.eabi_attribute 34, 0
  11              		.eabi_attribute 18, 4
  12              		.code	16
  13              		.file	"cyfitter_cfg.c"
  14              		.text
  15              	.Ltext0:
  16              		.cfi_sections	.debug_frame
  17              		.section	.text.cfg_write_bytes32,"ax",%progbits
  18              		.align	2
  19              		.code	16
  20              		.thumb_func
  21              		.type	cfg_write_bytes32, %function
  22              	cfg_write_bytes32:
  23              	.LFB5:
  24              		.file 1 "Generated_Source\\PSoC4\\cyfitter_cfg.c"
   1:Generated_Source\PSoC4/cyfitter_cfg.c **** /*******************************************************************************
   2:Generated_Source\PSoC4/cyfitter_cfg.c **** * File Name: cyfitter_cfg.c
   3:Generated_Source\PSoC4/cyfitter_cfg.c **** * 
   4:Generated_Source\PSoC4/cyfitter_cfg.c **** * PSoC Creator  4.0 Update 1
   5:Generated_Source\PSoC4/cyfitter_cfg.c **** *
   6:Generated_Source\PSoC4/cyfitter_cfg.c **** * Description:
   7:Generated_Source\PSoC4/cyfitter_cfg.c **** * This file contains device initialization code.
   8:Generated_Source\PSoC4/cyfitter_cfg.c **** * Except for the user defined sections in CyClockStartupError(), this file should not be modified.
   9:Generated_Source\PSoC4/cyfitter_cfg.c **** * This file is automatically generated by PSoC Creator.
  10:Generated_Source\PSoC4/cyfitter_cfg.c **** *
  11:Generated_Source\PSoC4/cyfitter_cfg.c **** ********************************************************************************
  12:Generated_Source\PSoC4/cyfitter_cfg.c **** * Copyright (c) 2007-2016 Cypress Semiconductor.  All rights reserved.
  13:Generated_Source\PSoC4/cyfitter_cfg.c **** * You may use this file only in accordance with the license, terms, conditions, 
  14:Generated_Source\PSoC4/cyfitter_cfg.c **** * disclaimers, and limitations in the end user license agreement accompanying 
  15:Generated_Source\PSoC4/cyfitter_cfg.c **** * the software package with which this file was provided.
  16:Generated_Source\PSoC4/cyfitter_cfg.c **** ********************************************************************************/
  17:Generated_Source\PSoC4/cyfitter_cfg.c **** 
  18:Generated_Source\PSoC4/cyfitter_cfg.c **** #include <string.h>
  19:Generated_Source\PSoC4/cyfitter_cfg.c **** #include "cytypes.h"
  20:Generated_Source\PSoC4/cyfitter_cfg.c **** #include "cydevice_trm.h"
  21:Generated_Source\PSoC4/cyfitter_cfg.c **** #include "cyfitter.h"
  22:Generated_Source\PSoC4/cyfitter_cfg.c **** #include "CyLib.h"
  23:Generated_Source\PSoC4/cyfitter_cfg.c **** #include "CyLFClk.h"
  24:Generated_Source\PSoC4/cyfitter_cfg.c **** #include "cyfitter_cfg.h"
  25:Generated_Source\PSoC4/cyfitter_cfg.c **** #include "cyapicallbacks.h"
  26:Generated_Source\PSoC4/cyfitter_cfg.c **** 
  27:Generated_Source\PSoC4/cyfitter_cfg.c **** 
  28:Generated_Source\PSoC4/cyfitter_cfg.c **** #if defined(__GNUC__) || defined(__ARMCC_VERSION)
  29:Generated_Source\PSoC4/cyfitter_cfg.c ****     #define CYPACKED 
  30:Generated_Source\PSoC4/cyfitter_cfg.c ****     #define CYPACKED_ATTR __attribute__ ((packed))
  31:Generated_Source\PSoC4/cyfitter_cfg.c ****     #define CYALIGNED __attribute__ ((aligned))
  32:Generated_Source\PSoC4/cyfitter_cfg.c ****     #define CY_CFG_UNUSED __attribute__ ((unused))
  33:Generated_Source\PSoC4/cyfitter_cfg.c ****     #ifndef CY_CFG_SECTION
ARM GAS  C:\Users\Jannai\AppData\Local\Temp\ccMGc53i.s 			page 2


  34:Generated_Source\PSoC4/cyfitter_cfg.c ****         #define CY_CFG_SECTION __attribute__ ((section(".psocinit")))
  35:Generated_Source\PSoC4/cyfitter_cfg.c ****     #endif
  36:Generated_Source\PSoC4/cyfitter_cfg.c ****     
  37:Generated_Source\PSoC4/cyfitter_cfg.c ****     #if defined(__ARMCC_VERSION)
  38:Generated_Source\PSoC4/cyfitter_cfg.c ****         #define CY_CFG_MEMORY_BARRIER() __memory_changed()
  39:Generated_Source\PSoC4/cyfitter_cfg.c ****     #else
  40:Generated_Source\PSoC4/cyfitter_cfg.c ****         #define CY_CFG_MEMORY_BARRIER() __sync_synchronize()
  41:Generated_Source\PSoC4/cyfitter_cfg.c ****     #endif
  42:Generated_Source\PSoC4/cyfitter_cfg.c ****     
  43:Generated_Source\PSoC4/cyfitter_cfg.c **** #elif defined(__ICCARM__)
  44:Generated_Source\PSoC4/cyfitter_cfg.c ****     #include <intrinsics.h>
  45:Generated_Source\PSoC4/cyfitter_cfg.c **** 
  46:Generated_Source\PSoC4/cyfitter_cfg.c ****     #define CYPACKED __packed
  47:Generated_Source\PSoC4/cyfitter_cfg.c ****     #define CYPACKED_ATTR 
  48:Generated_Source\PSoC4/cyfitter_cfg.c ****     #define CYALIGNED _Pragma("data_alignment=4")
  49:Generated_Source\PSoC4/cyfitter_cfg.c ****     #define CY_CFG_UNUSED _Pragma("diag_suppress=Pe177")
  50:Generated_Source\PSoC4/cyfitter_cfg.c ****     #define CY_CFG_SECTION _Pragma("location=\".psocinit\"")
  51:Generated_Source\PSoC4/cyfitter_cfg.c ****     
  52:Generated_Source\PSoC4/cyfitter_cfg.c ****     #define CY_CFG_MEMORY_BARRIER() __DMB()
  53:Generated_Source\PSoC4/cyfitter_cfg.c ****     
  54:Generated_Source\PSoC4/cyfitter_cfg.c **** #else
  55:Generated_Source\PSoC4/cyfitter_cfg.c ****     #error Unsupported toolchain
  56:Generated_Source\PSoC4/cyfitter_cfg.c **** #endif
  57:Generated_Source\PSoC4/cyfitter_cfg.c **** 
  58:Generated_Source\PSoC4/cyfitter_cfg.c **** 
  59:Generated_Source\PSoC4/cyfitter_cfg.c **** CY_CFG_UNUSED
  60:Generated_Source\PSoC4/cyfitter_cfg.c **** static void CYMEMZERO(void *s, size_t n);
  61:Generated_Source\PSoC4/cyfitter_cfg.c **** CY_CFG_UNUSED
  62:Generated_Source\PSoC4/cyfitter_cfg.c **** static void CYMEMZERO(void *s, size_t n)
  63:Generated_Source\PSoC4/cyfitter_cfg.c **** {
  64:Generated_Source\PSoC4/cyfitter_cfg.c **** 	(void)memset(s, 0, n);
  65:Generated_Source\PSoC4/cyfitter_cfg.c **** }
  66:Generated_Source\PSoC4/cyfitter_cfg.c **** CY_CFG_UNUSED
  67:Generated_Source\PSoC4/cyfitter_cfg.c **** static void CYCONFIGCPY(void *dest, const void *src, size_t n);
  68:Generated_Source\PSoC4/cyfitter_cfg.c **** CY_CFG_UNUSED
  69:Generated_Source\PSoC4/cyfitter_cfg.c **** static void CYCONFIGCPY(void *dest, const void *src, size_t n)
  70:Generated_Source\PSoC4/cyfitter_cfg.c **** {
  71:Generated_Source\PSoC4/cyfitter_cfg.c **** 	(void)memcpy(dest, src, n);
  72:Generated_Source\PSoC4/cyfitter_cfg.c **** }
  73:Generated_Source\PSoC4/cyfitter_cfg.c **** CY_CFG_UNUSED
  74:Generated_Source\PSoC4/cyfitter_cfg.c **** static void CYCONFIGCPYCODE(void *dest, const void *src, size_t n);
  75:Generated_Source\PSoC4/cyfitter_cfg.c **** CY_CFG_UNUSED
  76:Generated_Source\PSoC4/cyfitter_cfg.c **** static void CYCONFIGCPYCODE(void *dest, const void *src, size_t n)
  77:Generated_Source\PSoC4/cyfitter_cfg.c **** {
  78:Generated_Source\PSoC4/cyfitter_cfg.c **** 	(void)memcpy(dest, src, n);
  79:Generated_Source\PSoC4/cyfitter_cfg.c **** }
  80:Generated_Source\PSoC4/cyfitter_cfg.c **** 
  81:Generated_Source\PSoC4/cyfitter_cfg.c **** 
  82:Generated_Source\PSoC4/cyfitter_cfg.c **** 
  83:Generated_Source\PSoC4/cyfitter_cfg.c **** 
  84:Generated_Source\PSoC4/cyfitter_cfg.c **** /* Clock startup error codes                                                   */
  85:Generated_Source\PSoC4/cyfitter_cfg.c **** #define CYCLOCKSTART_NO_ERROR    0u
  86:Generated_Source\PSoC4/cyfitter_cfg.c **** #define CYCLOCKSTART_XTAL_ERROR  1u
  87:Generated_Source\PSoC4/cyfitter_cfg.c **** #define CYCLOCKSTART_32KHZ_ERROR 2u
  88:Generated_Source\PSoC4/cyfitter_cfg.c **** #define CYCLOCKSTART_PLL_ERROR   3u
  89:Generated_Source\PSoC4/cyfitter_cfg.c **** 
  90:Generated_Source\PSoC4/cyfitter_cfg.c **** 
ARM GAS  C:\Users\Jannai\AppData\Local\Temp\ccMGc53i.s 			page 3


  91:Generated_Source\PSoC4/cyfitter_cfg.c **** #ifdef CY_NEED_CYCLOCKSTARTUPERROR
  92:Generated_Source\PSoC4/cyfitter_cfg.c **** /*******************************************************************************
  93:Generated_Source\PSoC4/cyfitter_cfg.c **** * Function Name: CyClockStartupError
  94:Generated_Source\PSoC4/cyfitter_cfg.c **** ********************************************************************************
  95:Generated_Source\PSoC4/cyfitter_cfg.c **** * Summary:
  96:Generated_Source\PSoC4/cyfitter_cfg.c **** *  If an error is encountered during clock configuration (crystal startup error,
  97:Generated_Source\PSoC4/cyfitter_cfg.c **** *  PLL lock error, etc.), the system will end up here.  Unless reimplemented by
  98:Generated_Source\PSoC4/cyfitter_cfg.c **** *  the customer, this function will stop in an infinite loop.
  99:Generated_Source\PSoC4/cyfitter_cfg.c **** *
 100:Generated_Source\PSoC4/cyfitter_cfg.c **** * Parameters:
 101:Generated_Source\PSoC4/cyfitter_cfg.c **** *   void
 102:Generated_Source\PSoC4/cyfitter_cfg.c **** *
 103:Generated_Source\PSoC4/cyfitter_cfg.c **** * Return:
 104:Generated_Source\PSoC4/cyfitter_cfg.c **** *   void
 105:Generated_Source\PSoC4/cyfitter_cfg.c **** *
 106:Generated_Source\PSoC4/cyfitter_cfg.c **** *******************************************************************************/
 107:Generated_Source\PSoC4/cyfitter_cfg.c **** CY_CFG_UNUSED
 108:Generated_Source\PSoC4/cyfitter_cfg.c **** static void CyClockStartupError(uint8 errorCode);
 109:Generated_Source\PSoC4/cyfitter_cfg.c **** CY_CFG_UNUSED
 110:Generated_Source\PSoC4/cyfitter_cfg.c **** static void CyClockStartupError(uint8 errorCode)
 111:Generated_Source\PSoC4/cyfitter_cfg.c **** {
 112:Generated_Source\PSoC4/cyfitter_cfg.c ****     /* To remove the compiler warning if errorCode not used.                */
 113:Generated_Source\PSoC4/cyfitter_cfg.c ****     errorCode = errorCode;
 114:Generated_Source\PSoC4/cyfitter_cfg.c **** 
 115:Generated_Source\PSoC4/cyfitter_cfg.c ****     /* If we have a clock startup error (bad MHz crystal, PLL lock, etc.),  */
 116:Generated_Source\PSoC4/cyfitter_cfg.c ****     /* we will end up here to allow the customer to implement something to  */
 117:Generated_Source\PSoC4/cyfitter_cfg.c ****     /* deal with the clock condition.                                       */
 118:Generated_Source\PSoC4/cyfitter_cfg.c **** 
 119:Generated_Source\PSoC4/cyfitter_cfg.c **** #ifdef CY_CFG_CLOCK_STARTUP_ERROR_CALLBACK
 120:Generated_Source\PSoC4/cyfitter_cfg.c **** 	CY_CFG_Clock_Startup_ErrorCallback();
 121:Generated_Source\PSoC4/cyfitter_cfg.c **** #else
 122:Generated_Source\PSoC4/cyfitter_cfg.c **** 	/*  If not using CY_CFG_CLOCK_STARTUP_ERROR_CALLBACK, place your clock startup code here. */
 123:Generated_Source\PSoC4/cyfitter_cfg.c ****     /* `#START CyClockStartupError` */
 124:Generated_Source\PSoC4/cyfitter_cfg.c **** 
 125:Generated_Source\PSoC4/cyfitter_cfg.c ****     /* If we have a clock startup error (bad MHz crystal, PLL lock, etc.),  */
 126:Generated_Source\PSoC4/cyfitter_cfg.c ****     /* we will end up here to allow the customer to implement something to  */
 127:Generated_Source\PSoC4/cyfitter_cfg.c ****     /* deal with the clock condition.                                       */
 128:Generated_Source\PSoC4/cyfitter_cfg.c **** 
 129:Generated_Source\PSoC4/cyfitter_cfg.c ****     /* `#END` */
 130:Generated_Source\PSoC4/cyfitter_cfg.c **** 
 131:Generated_Source\PSoC4/cyfitter_cfg.c ****     /* If nothing else, stop here since the clocks have not started         */
 132:Generated_Source\PSoC4/cyfitter_cfg.c ****     /* correctly.                                                           */
 133:Generated_Source\PSoC4/cyfitter_cfg.c ****     while(1) {}
 134:Generated_Source\PSoC4/cyfitter_cfg.c **** #endif /* CY_CFG_CLOCK_STARTUP_ERROR_CALLBACK */ 
 135:Generated_Source\PSoC4/cyfitter_cfg.c **** }
 136:Generated_Source\PSoC4/cyfitter_cfg.c **** #endif
 137:Generated_Source\PSoC4/cyfitter_cfg.c **** 
 138:Generated_Source\PSoC4/cyfitter_cfg.c **** #define CY_CFG_BASE_ADDR_COUNT 9u
 139:Generated_Source\PSoC4/cyfitter_cfg.c **** CYPACKED typedef struct
 140:Generated_Source\PSoC4/cyfitter_cfg.c **** {
 141:Generated_Source\PSoC4/cyfitter_cfg.c **** 	uint8 offset;
 142:Generated_Source\PSoC4/cyfitter_cfg.c **** 	uint8 value;
 143:Generated_Source\PSoC4/cyfitter_cfg.c **** } CYPACKED_ATTR cy_cfg_addrvalue_t;
 144:Generated_Source\PSoC4/cyfitter_cfg.c **** 
 145:Generated_Source\PSoC4/cyfitter_cfg.c **** 
 146:Generated_Source\PSoC4/cyfitter_cfg.c **** 
 147:Generated_Source\PSoC4/cyfitter_cfg.c **** /*******************************************************************************
ARM GAS  C:\Users\Jannai\AppData\Local\Temp\ccMGc53i.s 			page 4


 148:Generated_Source\PSoC4/cyfitter_cfg.c **** * Function Name: cfg_write_bytes32
 149:Generated_Source\PSoC4/cyfitter_cfg.c **** ********************************************************************************
 150:Generated_Source\PSoC4/cyfitter_cfg.c **** * Summary:
 151:Generated_Source\PSoC4/cyfitter_cfg.c **** *  This function is used for setting up the chip configuration areas that
 152:Generated_Source\PSoC4/cyfitter_cfg.c **** *  contain relatively sparse data.
 153:Generated_Source\PSoC4/cyfitter_cfg.c **** *
 154:Generated_Source\PSoC4/cyfitter_cfg.c **** * Parameters:
 155:Generated_Source\PSoC4/cyfitter_cfg.c **** *   void
 156:Generated_Source\PSoC4/cyfitter_cfg.c **** *
 157:Generated_Source\PSoC4/cyfitter_cfg.c **** * Return:
 158:Generated_Source\PSoC4/cyfitter_cfg.c **** *   void
 159:Generated_Source\PSoC4/cyfitter_cfg.c **** *
 160:Generated_Source\PSoC4/cyfitter_cfg.c **** *******************************************************************************/
 161:Generated_Source\PSoC4/cyfitter_cfg.c **** static void cfg_write_bytes32(const uint32 addr_table[], const cy_cfg_addrvalue_t data_table[]);
 162:Generated_Source\PSoC4/cyfitter_cfg.c **** static void cfg_write_bytes32(const uint32 addr_table[], const cy_cfg_addrvalue_t data_table[])
 163:Generated_Source\PSoC4/cyfitter_cfg.c **** {
  25              		.loc 1 163 0
  26              		.cfi_startproc
  27              	.LVL0:
  28 0000 F0B5     		push	{r4, r5, r6, r7, lr}
  29              		.cfi_def_cfa_offset 20
  30              		.cfi_offset 4, -20
  31              		.cfi_offset 5, -16
  32              		.cfi_offset 6, -12
  33              		.cfi_offset 7, -8
  34              		.cfi_offset 14, -4
  35              	.LVL1:
 164:Generated_Source\PSoC4/cyfitter_cfg.c **** 	/* For 32-bit little-endian architectures */
 165:Generated_Source\PSoC4/cyfitter_cfg.c **** 	uint32 i, j = 0u;
  36              		.loc 1 165 0
  37 0002 0025     		mov	r5, #0
 166:Generated_Source\PSoC4/cyfitter_cfg.c **** 	for (i = 0u; i < CY_CFG_BASE_ADDR_COUNT; i++)
  38              		.loc 1 166 0
  39 0004 0027     		mov	r7, #0
  40 0006 11E0     		b	.L2
  41              	.LVL2:
  42              	.L5:
  43              	.LBB2:
 167:Generated_Source\PSoC4/cyfitter_cfg.c **** 	{
 168:Generated_Source\PSoC4/cyfitter_cfg.c **** 		uint32 baseAddr = addr_table[i];
  44              		.loc 1 168 0
  45 0008 BB00     		lsl	r3, r7, #2
  46 000a C658     		ldr	r6, [r0, r3]
  47              	.LVL3:
 169:Generated_Source\PSoC4/cyfitter_cfg.c **** 		uint8 count = (uint8)baseAddr;
  48              		.loc 1 169 0
  49 000c F3B2     		uxtb	r3, r6
  50              	.LVL4:
 170:Generated_Source\PSoC4/cyfitter_cfg.c **** 		baseAddr &= 0xFFFFFF00u;
  51              		.loc 1 170 0
  52 000e FF22     		mov	r2, #255
  53 0010 9643     		bic	r6, r2
  54              	.LVL5:
 171:Generated_Source\PSoC4/cyfitter_cfg.c **** 		while (count != 0u)
  55              		.loc 1 171 0
  56 0012 08E0     		b	.L3
  57              	.L4:
ARM GAS  C:\Users\Jannai\AppData\Local\Temp\ccMGc53i.s 			page 5


 172:Generated_Source\PSoC4/cyfitter_cfg.c **** 		{
 173:Generated_Source\PSoC4/cyfitter_cfg.c **** 			CY_SET_XTND_REG8((void CYFAR *)(baseAddr + data_table[j].offset), data_table[j].value);
  58              		.loc 1 173 0
  59 0014 6A00     		lsl	r2, r5, #1
  60 0016 8A18     		add	r2, r1, r2
  61 0018 1478     		ldrb	r4, [r2]
  62 001a A419     		add	r4, r4, r6
  63 001c 5278     		ldrb	r2, [r2, #1]
  64 001e 2270     		strb	r2, [r4]
 174:Generated_Source\PSoC4/cyfitter_cfg.c **** 			j++;
  65              		.loc 1 174 0
  66 0020 0135     		add	r5, r5, #1
  67              	.LVL6:
 175:Generated_Source\PSoC4/cyfitter_cfg.c **** 			count--;
  68              		.loc 1 175 0
  69 0022 013B     		sub	r3, r3, #1
  70              	.LVL7:
  71 0024 DBB2     		uxtb	r3, r3
  72              	.LVL8:
  73              	.L3:
 171:Generated_Source\PSoC4/cyfitter_cfg.c **** 		{
  74              		.loc 1 171 0
  75 0026 002B     		cmp	r3, #0
  76 0028 F4D1     		bne	.L4
  77              	.LBE2:
 166:Generated_Source\PSoC4/cyfitter_cfg.c **** 	{
  78              		.loc 1 166 0 discriminator 2
  79 002a 0137     		add	r7, r7, #1
  80              	.LVL9:
  81              	.L2:
 166:Generated_Source\PSoC4/cyfitter_cfg.c **** 	{
  82              		.loc 1 166 0 is_stmt 0 discriminator 1
  83 002c 082F     		cmp	r7, #8
  84 002e EBD9     		bls	.L5
 176:Generated_Source\PSoC4/cyfitter_cfg.c **** 		}
 177:Generated_Source\PSoC4/cyfitter_cfg.c **** 	}
 178:Generated_Source\PSoC4/cyfitter_cfg.c **** }
  85              		.loc 1 178 0 is_stmt 1
  86              		@ sp needed
  87              	.LVL10:
  88              	.LVL11:
  89 0030 F0BD     		pop	{r4, r5, r6, r7, pc}
  90              		.cfi_endproc
  91              	.LFE5:
  92              		.size	cfg_write_bytes32, .-cfg_write_bytes32
  93 0032 C046     		.section	.text.CYMEMZERO,"ax",%progbits
  94              		.align	2
  95              		.code	16
  96              		.thumb_func
  97              		.type	CYMEMZERO, %function
  98              	CYMEMZERO:
  99              	.LFB2:
  63:Generated_Source\PSoC4/cyfitter_cfg.c **** 	(void)memset(s, 0, n);
 100              		.loc 1 63 0
 101              		.cfi_startproc
 102              	.LVL12:
 103 0000 08B5     		push	{r3, lr}
ARM GAS  C:\Users\Jannai\AppData\Local\Temp\ccMGc53i.s 			page 6


 104              		.cfi_def_cfa_offset 8
 105              		.cfi_offset 3, -8
 106              		.cfi_offset 14, -4
 107 0002 0A1C     		mov	r2, r1
  64:Generated_Source\PSoC4/cyfitter_cfg.c **** }
 108              		.loc 1 64 0
 109 0004 0021     		mov	r1, #0
 110              	.LVL13:
 111 0006 FFF7FEFF 		bl	memset
 112              	.LVL14:
  65:Generated_Source\PSoC4/cyfitter_cfg.c **** CY_CFG_UNUSED
 113              		.loc 1 65 0
 114              		@ sp needed
 115 000a 08BD     		pop	{r3, pc}
 116              		.cfi_endproc
 117              	.LFE2:
 118              		.size	CYMEMZERO, .-CYMEMZERO
 119              		.section	.psocinit,"ax",%progbits
 120              		.align	2
 121              		.code	16
 122              		.thumb_func
 123              		.type	ClockSetup, %function
 124              	ClockSetup:
 125              	.LFB6:
 179:Generated_Source\PSoC4/cyfitter_cfg.c **** 
 180:Generated_Source\PSoC4/cyfitter_cfg.c **** 
 181:Generated_Source\PSoC4/cyfitter_cfg.c **** /*******************************************************************************
 182:Generated_Source\PSoC4/cyfitter_cfg.c **** * Function Name: ClockSetup
 183:Generated_Source\PSoC4/cyfitter_cfg.c **** ********************************************************************************
 184:Generated_Source\PSoC4/cyfitter_cfg.c **** *
 185:Generated_Source\PSoC4/cyfitter_cfg.c **** * Summary:
 186:Generated_Source\PSoC4/cyfitter_cfg.c **** *   Performs the initialization of all of the clocks in the device based on the
 187:Generated_Source\PSoC4/cyfitter_cfg.c **** *   settings in the Clock tab of the DWR.  This includes enabling the requested
 188:Generated_Source\PSoC4/cyfitter_cfg.c **** *   clocks and setting the necessary dividers to produce the desired frequency. 
 189:Generated_Source\PSoC4/cyfitter_cfg.c **** *
 190:Generated_Source\PSoC4/cyfitter_cfg.c **** * Parameters:
 191:Generated_Source\PSoC4/cyfitter_cfg.c **** *   void
 192:Generated_Source\PSoC4/cyfitter_cfg.c **** *
 193:Generated_Source\PSoC4/cyfitter_cfg.c **** * Return:
 194:Generated_Source\PSoC4/cyfitter_cfg.c **** *   void
 195:Generated_Source\PSoC4/cyfitter_cfg.c **** *
 196:Generated_Source\PSoC4/cyfitter_cfg.c **** *******************************************************************************/
 197:Generated_Source\PSoC4/cyfitter_cfg.c **** static void ClockSetup(void);
 198:Generated_Source\PSoC4/cyfitter_cfg.c **** CY_CFG_SECTION
 199:Generated_Source\PSoC4/cyfitter_cfg.c **** static void ClockSetup(void)
 200:Generated_Source\PSoC4/cyfitter_cfg.c **** {
 126              		.loc 1 200 0
 127              		.cfi_startproc
 128 0000 F8B5     		push	{r3, r4, r5, r6, r7, lr}
 129              		.cfi_def_cfa_offset 24
 130              		.cfi_offset 3, -24
 131              		.cfi_offset 4, -20
 132              		.cfi_offset 5, -16
 133              		.cfi_offset 6, -12
 134              		.cfi_offset 7, -8
 135              		.cfi_offset 14, -4
 201:Generated_Source\PSoC4/cyfitter_cfg.c **** 
ARM GAS  C:\Users\Jannai\AppData\Local\Temp\ccMGc53i.s 			page 7


 202:Generated_Source\PSoC4/cyfitter_cfg.c **** 	/* Set Flash Cycles based on max possible frequency in case a glitch occurs during ClockSetup(). *
 203:Generated_Source\PSoC4/cyfitter_cfg.c **** 	CY_SET_REG32((void CYXDATA *)(CYREG_CPUSS_FLASH_CTL), (0x0012u));
 136              		.loc 1 203 0
 137 0002 274D     		ldr	r5, .L8
 138 0004 1223     		mov	r3, #18
 139 0006 2B60     		str	r3, [r5]
 204:Generated_Source\PSoC4/cyfitter_cfg.c **** 
 205:Generated_Source\PSoC4/cyfitter_cfg.c **** 	/* Start the WCO */
 206:Generated_Source\PSoC4/cyfitter_cfg.c **** 	CySysClkWcoStart();
 140              		.loc 1 206 0
 141 0008 FFF7FEFF 		bl	CySysClkWcoStart
 142              	.LVL15:
 207:Generated_Source\PSoC4/cyfitter_cfg.c **** 	CyDelayCycles(12000000u); /* WCO may take up to 500ms to start */
 143              		.loc 1 207 0
 144 000c 2548     		ldr	r0, .L8+4
 145 000e FFF7FEFF 		bl	CyDelayCycles
 146              	.LVL16:
 208:Generated_Source\PSoC4/cyfitter_cfg.c **** 	(void)CySysClkWcoSetPowerMode(CY_SYS_CLK_WCO_LPM);    /* Switch to the low power mode */
 147              		.loc 1 208 0
 148 0012 0120     		mov	r0, #1
 149 0014 FFF7FEFF 		bl	CySysClkWcoSetPowerMode
 150              	.LVL17:
 209:Generated_Source\PSoC4/cyfitter_cfg.c **** 
 210:Generated_Source\PSoC4/cyfitter_cfg.c **** 	/* Setup and trim IMO based on desired frequency. */
 211:Generated_Source\PSoC4/cyfitter_cfg.c **** 	CySysClkWriteImoFreq(12u);
 151              		.loc 1 211 0
 152 0018 0C20     		mov	r0, #12
 153 001a FFF7FEFF 		bl	CySysClkWriteImoFreq
 154              	.LVL18:
 212:Generated_Source\PSoC4/cyfitter_cfg.c **** 	/* CYDEV_CLK_ILO_CONFIG Starting address: CYDEV_CLK_ILO_CONFIG */
 213:Generated_Source\PSoC4/cyfitter_cfg.c **** 	CY_SET_XTND_REG32((void CYFAR *)(CYREG_CLK_ILO_CONFIG), 0x80000006u);
 155              		.loc 1 213 0
 156 001e 224A     		ldr	r2, .L8+8
 157 0020 224B     		ldr	r3, .L8+12
 158 0022 1A60     		str	r2, [r3]
 214:Generated_Source\PSoC4/cyfitter_cfg.c **** 
 215:Generated_Source\PSoC4/cyfitter_cfg.c **** 	/* CYDEV_WDT_CONFIG Starting address: CYDEV_WDT_CONFIG */
 216:Generated_Source\PSoC4/cyfitter_cfg.c **** 	CY_SET_XTND_REG32((void CYFAR *)(CYREG_WDT_CONFIG), 0x40000000u);
 159              		.loc 1 216 0
 160 0024 224E     		ldr	r6, .L8+16
 161 0026 8027     		mov	r7, #128
 162 0028 FF05     		lsl	r7, r7, #23
 163 002a 3760     		str	r7, [r6]
 217:Generated_Source\PSoC4/cyfitter_cfg.c **** 
 218:Generated_Source\PSoC4/cyfitter_cfg.c **** 
 219:Generated_Source\PSoC4/cyfitter_cfg.c **** 	/* Enable fast start mode for XO */
 220:Generated_Source\PSoC4/cyfitter_cfg.c **** 	CY_SET_REG32((void*)CYREG_BLE_BLERD_BB_XO, CY_GET_REG32((void*)CYREG_BLE_BLERD_BB_XO) | (uint32)0x
 164              		.loc 1 220 0
 165 002c 214A     		ldr	r2, .L8+20
 166 002e 1168     		ldr	r1, [r2]
 167 0030 0223     		mov	r3, #2
 168 0032 0B43     		orr	r3, r1
 169 0034 1360     		str	r3, [r2]
 221:Generated_Source\PSoC4/cyfitter_cfg.c **** 	CY_SET_XTND_REG32((void CYFAR *)(CYREG_BLE_BLERD_BB_XO_CAPTRIM), 0x00003E2Du);
 170              		.loc 1 221 0
 171 0036 204A     		ldr	r2, .L8+24
 172 0038 204B     		ldr	r3, .L8+28
ARM GAS  C:\Users\Jannai\AppData\Local\Temp\ccMGc53i.s 			page 8


 173 003a 1A60     		str	r2, [r3]
 222:Generated_Source\PSoC4/cyfitter_cfg.c **** 	/*Set XTAL(ECO) divider*/
 223:Generated_Source\PSoC4/cyfitter_cfg.c **** 	CY_SET_XTND_REG32((void CYFAR *)(CYREG_BLE_BLESS_XTAL_CLK_DIV_CONFIG), 0x00000000u);
 174              		.loc 1 223 0
 175 003c 0024     		mov	r4, #0
 176 003e 204B     		ldr	r3, .L8+32
 177 0040 1C60     		str	r4, [r3]
 224:Generated_Source\PSoC4/cyfitter_cfg.c **** 	/* Disable Crystal Stable Interrupt before enabling ECO */
 225:Generated_Source\PSoC4/cyfitter_cfg.c **** 	CY_SET_REG32((void*)CYREG_BLE_BLESS_LL_DSM_CTRL, CY_GET_REG32((void*)CYREG_BLE_BLESS_LL_DSM_CTRL) 
 178              		.loc 1 225 0
 179 0042 204A     		ldr	r2, .L8+36
 180 0044 1368     		ldr	r3, [r2]
 181 0046 0821     		mov	r1, #8
 182 0048 8B43     		bic	r3, r1
 183 004a 1360     		str	r3, [r2]
 226:Generated_Source\PSoC4/cyfitter_cfg.c **** 	/* Start the ECO and do not check status since it is not needed for HFCLK */
 227:Generated_Source\PSoC4/cyfitter_cfg.c **** 	(void)CySysClkEcoStart(2000u);
 184              		.loc 1 227 0
 185 004c FA20     		mov	r0, #250
 186 004e C000     		lsl	r0, r0, #3
 187 0050 FFF7FEFF 		bl	CySysClkEcoStart
 188              	.LVL19:
 228:Generated_Source\PSoC4/cyfitter_cfg.c **** 	CyDelayUs(1500u); /* Wait to stabalize */
 189              		.loc 1 228 0
 190 0054 1C48     		ldr	r0, .L8+40
 191 0056 FFF7FEFF 		bl	CyDelayUs
 192              	.LVL20:
 229:Generated_Source\PSoC4/cyfitter_cfg.c **** 
 230:Generated_Source\PSoC4/cyfitter_cfg.c **** 	/* Setup phase aligned clocks */
 231:Generated_Source\PSoC4/cyfitter_cfg.c **** 	CY_SET_REG32((void *)CYREG_PERI_DIV_16_CTL0, 0x00000700u);
 193              		.loc 1 231 0
 194 005a E022     		mov	r2, #224
 195 005c D200     		lsl	r2, r2, #3
 196 005e 1B4B     		ldr	r3, .L8+44
 197 0060 1A60     		str	r2, [r3]
 232:Generated_Source\PSoC4/cyfitter_cfg.c **** 	CY_SET_REG32((void *)CYREG_PERI_DIV_CMD, 0x8000FF40u);
 198              		.loc 1 232 0
 199 0062 1B4B     		ldr	r3, .L8+48
 200 0064 1B4A     		ldr	r2, .L8+52
 201 0066 1A60     		str	r2, [r3]
 233:Generated_Source\PSoC4/cyfitter_cfg.c **** 	CY_SET_REG32((void *)CYREG_PERI_DIV_16_CTL1, 0x00000600u);
 202              		.loc 1 233 0
 203 0068 C021     		mov	r1, #192
 204 006a C900     		lsl	r1, r1, #3
 205 006c 1A4A     		ldr	r2, .L8+56
 206 006e 1160     		str	r1, [r2]
 234:Generated_Source\PSoC4/cyfitter_cfg.c **** 	CY_SET_REG32((void *)CYREG_PERI_DIV_CMD, 0x8000FF41u);
 207              		.loc 1 234 0
 208 0070 1A4A     		ldr	r2, .L8+60
 209 0072 1A60     		str	r2, [r3]
 235:Generated_Source\PSoC4/cyfitter_cfg.c **** 
 236:Generated_Source\PSoC4/cyfitter_cfg.c **** 	/* CYDEV_CLK_IMO_CONFIG Starting address: CYDEV_CLK_IMO_CONFIG */
 237:Generated_Source\PSoC4/cyfitter_cfg.c **** 	CY_SET_XTND_REG32((void CYFAR *)(CYREG_CLK_IMO_CONFIG), 0xA6000000u);
 210              		.loc 1 237 0
 211 0074 A622     		mov	r2, #166
 212 0076 1206     		lsl	r2, r2, #24
 213 0078 194B     		ldr	r3, .L8+64
ARM GAS  C:\Users\Jannai\AppData\Local\Temp\ccMGc53i.s 			page 9


 214 007a 1A60     		str	r2, [r3]
 238:Generated_Source\PSoC4/cyfitter_cfg.c **** 
 239:Generated_Source\PSoC4/cyfitter_cfg.c **** 	/* CYDEV_CLK_SELECT Starting address: CYDEV_CLK_SELECT */
 240:Generated_Source\PSoC4/cyfitter_cfg.c **** 	CY_SET_XTND_REG32((void CYFAR *)(CYREG_CLK_SELECT), 0x00000000u);
 215              		.loc 1 240 0
 216 007c 194B     		ldr	r3, .L8+68
 217 007e 1C60     		str	r4, [r3]
 241:Generated_Source\PSoC4/cyfitter_cfg.c **** 
 242:Generated_Source\PSoC4/cyfitter_cfg.c **** 	/* CYDEV_PERI_PCLK_CTL6 Starting address: CYDEV_PERI_PCLK_CTL6 */
 243:Generated_Source\PSoC4/cyfitter_cfg.c **** 	CY_SET_XTND_REG32((void CYFAR *)(CYREG_PERI_PCLK_CTL6), 0x00000040u);
 218              		.loc 1 243 0
 219 0080 4022     		mov	r2, #64
 220 0082 194B     		ldr	r3, .L8+72
 221 0084 1A60     		str	r2, [r3]
 244:Generated_Source\PSoC4/cyfitter_cfg.c **** 
 245:Generated_Source\PSoC4/cyfitter_cfg.c **** 	/* CYDEV_PERI_PCLK_CTL2 Starting address: CYDEV_PERI_PCLK_CTL2 */
 246:Generated_Source\PSoC4/cyfitter_cfg.c **** 	CY_SET_XTND_REG32((void CYFAR *)(CYREG_PERI_PCLK_CTL2), 0x00000041u);
 222              		.loc 1 246 0
 223 0086 0132     		add	r2, r2, #1
 224 0088 184B     		ldr	r3, .L8+76
 225 008a 1A60     		str	r2, [r3]
 247:Generated_Source\PSoC4/cyfitter_cfg.c **** 
 248:Generated_Source\PSoC4/cyfitter_cfg.c **** 	(void)CyIntSetVector(8u, &CySysWdtIsr);
 226              		.loc 1 248 0
 227 008c 0820     		mov	r0, #8
 228 008e 1849     		ldr	r1, .L8+80
 229 0090 FFF7FEFF 		bl	CyIntSetVector
 230              	.LVL21:
 249:Generated_Source\PSoC4/cyfitter_cfg.c **** 	CyIntEnable(8u);
 231              		.loc 1 249 0
 232 0094 0820     		mov	r0, #8
 233 0096 FFF7FEFF 		bl	CyIntEnable
 234              	.LVL22:
 250:Generated_Source\PSoC4/cyfitter_cfg.c **** 	CY_SET_XTND_REG32((void CYFAR *)(CYREG_WDT_CONFIG), 0x40000000u);
 235              		.loc 1 250 0
 236 009a 3760     		str	r7, [r6]
 251:Generated_Source\PSoC4/cyfitter_cfg.c **** 	/* Set Flash Cycles based on newly configured 12.00MHz HFCLK. */
 252:Generated_Source\PSoC4/cyfitter_cfg.c **** 	CY_SET_REG32((void CYXDATA *)(CYREG_CPUSS_FLASH_CTL), (0x0000u));
 237              		.loc 1 252 0
 238 009c 2C60     		str	r4, [r5]
 253:Generated_Source\PSoC4/cyfitter_cfg.c **** }
 239              		.loc 1 253 0
 240              		@ sp needed
 241 009e F8BD     		pop	{r3, r4, r5, r6, r7, pc}
 242              	.L9:
 243              		.align	2
 244              	.L8:
 245 00a0 30001040 		.word	1074790448
 246 00a4 001BB700 		.word	12000000
 247 00a8 06000080 		.word	-2147483642
 248 00ac 04010B40 		.word	1074462980
 249 00b0 0C020B40 		.word	1074463244
 250 00b4 78002E40 		.word	1076756600
 251 00b8 2D3E0000 		.word	15917
 252 00bc 7C002E40 		.word	1076756604
 253 00c0 64F02E40 		.word	1076818020
 254 00c4 6CF02E40 		.word	1076818028
ARM GAS  C:\Users\Jannai\AppData\Local\Temp\ccMGc53i.s 			page 10


 255 00c8 DC050000 		.word	1500
 256 00cc 00030140 		.word	1073808128
 257 00d0 00000140 		.word	1073807360
 258 00d4 40FF0080 		.word	-2147418304
 259 00d8 04030140 		.word	1073808132
 260 00dc 41FF0080 		.word	-2147418303
 261 00e0 08010B40 		.word	1074462984
 262 00e4 00010B40 		.word	1074462976
 263 00e8 18010140 		.word	1073807640
 264 00ec 08010140 		.word	1073807624
 265 00f0 00000000 		.word	CySysWdtIsr
 266              		.cfi_endproc
 267              	.LFE6:
 268              		.size	ClockSetup, .-ClockSetup
 269              		.section	.text.SetAnalogRoutingPumps,"ax",%progbits
 270              		.align	2
 271              		.global	SetAnalogRoutingPumps
 272              		.code	16
 273              		.thumb_func
 274              		.type	SetAnalogRoutingPumps, %function
 275              	SetAnalogRoutingPumps:
 276              	.LFB8:
 254:Generated_Source\PSoC4/cyfitter_cfg.c **** 
 255:Generated_Source\PSoC4/cyfitter_cfg.c **** 
 256:Generated_Source\PSoC4/cyfitter_cfg.c **** /* Analog API Functions */
 257:Generated_Source\PSoC4/cyfitter_cfg.c **** 
 258:Generated_Source\PSoC4/cyfitter_cfg.c **** 
 259:Generated_Source\PSoC4/cyfitter_cfg.c **** /*******************************************************************************
 260:Generated_Source\PSoC4/cyfitter_cfg.c **** * Function Name: AnalogSetDefault
 261:Generated_Source\PSoC4/cyfitter_cfg.c **** ********************************************************************************
 262:Generated_Source\PSoC4/cyfitter_cfg.c **** *
 263:Generated_Source\PSoC4/cyfitter_cfg.c **** * Summary:
 264:Generated_Source\PSoC4/cyfitter_cfg.c **** *  Sets up the analog portions of the chip to default values based on chip
 265:Generated_Source\PSoC4/cyfitter_cfg.c **** *  configuration options from the project.
 266:Generated_Source\PSoC4/cyfitter_cfg.c **** *
 267:Generated_Source\PSoC4/cyfitter_cfg.c **** * Parameters:
 268:Generated_Source\PSoC4/cyfitter_cfg.c **** *  void
 269:Generated_Source\PSoC4/cyfitter_cfg.c **** *
 270:Generated_Source\PSoC4/cyfitter_cfg.c **** * Return:
 271:Generated_Source\PSoC4/cyfitter_cfg.c **** *  void
 272:Generated_Source\PSoC4/cyfitter_cfg.c **** *
 273:Generated_Source\PSoC4/cyfitter_cfg.c **** *******************************************************************************/
 274:Generated_Source\PSoC4/cyfitter_cfg.c **** static void AnalogSetDefault(void);
 275:Generated_Source\PSoC4/cyfitter_cfg.c **** static void AnalogSetDefault(void)
 276:Generated_Source\PSoC4/cyfitter_cfg.c **** {
 277:Generated_Source\PSoC4/cyfitter_cfg.c **** 	CY_SET_XTND_REG32((void CYFAR *)CYREG_CTBM0_DFT_CTRL, 0x00000003u);
 278:Generated_Source\PSoC4/cyfitter_cfg.c **** 	CY_SET_XTND_REG32((void CYFAR *)CYREG_CTBM1_DFT_CTRL, 0x00000003u);
 279:Generated_Source\PSoC4/cyfitter_cfg.c **** 	CY_SET_XTND_REG32((void CYFAR *)CYREG_SAR_CTRL, 0x80000000u);
 280:Generated_Source\PSoC4/cyfitter_cfg.c **** 	CY_SET_XTND_REG32((void CYFAR *)CYREG_SAR_MUX_SWITCH0, 0x00000004u);
 281:Generated_Source\PSoC4/cyfitter_cfg.c **** 	CY_SET_XTND_REG32((void CYFAR *)CYREG_PASS_DSAB_DSAB_CTRL, 0x00000000u);
 282:Generated_Source\PSoC4/cyfitter_cfg.c **** 	SetAnalogRoutingPumps(1);
 283:Generated_Source\PSoC4/cyfitter_cfg.c **** }
 284:Generated_Source\PSoC4/cyfitter_cfg.c **** 
 285:Generated_Source\PSoC4/cyfitter_cfg.c **** 
 286:Generated_Source\PSoC4/cyfitter_cfg.c **** /*******************************************************************************
 287:Generated_Source\PSoC4/cyfitter_cfg.c **** * Function Name: SetAnalogRoutingPumps
 288:Generated_Source\PSoC4/cyfitter_cfg.c **** ********************************************************************************
ARM GAS  C:\Users\Jannai\AppData\Local\Temp\ccMGc53i.s 			page 11


 289:Generated_Source\PSoC4/cyfitter_cfg.c **** *
 290:Generated_Source\PSoC4/cyfitter_cfg.c **** * Summary:
 291:Generated_Source\PSoC4/cyfitter_cfg.c **** * Enables or disables the analog pumps feeding analog routing switches.
 292:Generated_Source\PSoC4/cyfitter_cfg.c **** * Intended to be called at startup, based on the Vdda system configuration;
 293:Generated_Source\PSoC4/cyfitter_cfg.c **** * may be called during operation when the user informs us that the Vdda voltage crossed the pump th
 294:Generated_Source\PSoC4/cyfitter_cfg.c **** *
 295:Generated_Source\PSoC4/cyfitter_cfg.c **** * Parameters:
 296:Generated_Source\PSoC4/cyfitter_cfg.c **** *  enabled - 1 to enable the pumps, 0 to disable the pumps
 297:Generated_Source\PSoC4/cyfitter_cfg.c **** *
 298:Generated_Source\PSoC4/cyfitter_cfg.c **** * Return:
 299:Generated_Source\PSoC4/cyfitter_cfg.c **** *  void
 300:Generated_Source\PSoC4/cyfitter_cfg.c **** *
 301:Generated_Source\PSoC4/cyfitter_cfg.c **** *******************************************************************************/
 302:Generated_Source\PSoC4/cyfitter_cfg.c **** void SetAnalogRoutingPumps(uint8 enabled)
 303:Generated_Source\PSoC4/cyfitter_cfg.c **** {
 277              		.loc 1 303 0
 278              		.cfi_startproc
 279              	.LVL23:
 304:Generated_Source\PSoC4/cyfitter_cfg.c **** 	uint32 regValue = CY_GET_XTND_REG32((void *)(CYREG_SAR_PUMP_CTRL));
 280              		.loc 1 304 0
 281 0000 064B     		ldr	r3, .L13
 282 0002 1B68     		ldr	r3, [r3]
 283              	.LVL24:
 305:Generated_Source\PSoC4/cyfitter_cfg.c **** 	if (enabled != 0u)
 284              		.loc 1 305 0
 285 0004 0028     		cmp	r0, #0
 286 0006 03D0     		beq	.L11
 306:Generated_Source\PSoC4/cyfitter_cfg.c **** 	{
 307:Generated_Source\PSoC4/cyfitter_cfg.c **** 		regValue |= 0x80000000u;
 287              		.loc 1 307 0
 288 0008 8022     		mov	r2, #128
 289 000a 1206     		lsl	r2, r2, #24
 290 000c 1343     		orr	r3, r2
 291              	.LVL25:
 292 000e 01E0     		b	.L12
 293              	.L11:
 308:Generated_Source\PSoC4/cyfitter_cfg.c **** 	}
 309:Generated_Source\PSoC4/cyfitter_cfg.c **** 	else
 310:Generated_Source\PSoC4/cyfitter_cfg.c **** 	{
 311:Generated_Source\PSoC4/cyfitter_cfg.c **** 		regValue &= ~0x80000000u;
 294              		.loc 1 311 0
 295 0010 5B00     		lsl	r3, r3, #1
 296              	.LVL26:
 297 0012 5B08     		lsr	r3, r3, #1
 298              	.LVL27:
 299              	.L12:
 312:Generated_Source\PSoC4/cyfitter_cfg.c **** 	}
 313:Generated_Source\PSoC4/cyfitter_cfg.c **** 	CY_SET_XTND_REG32((void *)(CYREG_SAR_PUMP_CTRL), regValue);
 300              		.loc 1 313 0
 301 0014 014A     		ldr	r2, .L13
 302 0016 1360     		str	r3, [r2]
 314:Generated_Source\PSoC4/cyfitter_cfg.c **** }
 303              		.loc 1 314 0
 304              		@ sp needed
 305 0018 7047     		bx	lr
 306              	.L14:
 307 001a C046     		.align	2
ARM GAS  C:\Users\Jannai\AppData\Local\Temp\ccMGc53i.s 			page 12


 308              	.L13:
 309 001c 80033A40 		.word	1077543808
 310              		.cfi_endproc
 311              	.LFE8:
 312              		.size	SetAnalogRoutingPumps, .-SetAnalogRoutingPumps
 313              		.section	.text.AnalogSetDefault,"ax",%progbits
 314              		.align	2
 315              		.code	16
 316              		.thumb_func
 317              		.type	AnalogSetDefault, %function
 318              	AnalogSetDefault:
 319              	.LFB7:
 276:Generated_Source\PSoC4/cyfitter_cfg.c **** 	CY_SET_XTND_REG32((void CYFAR *)CYREG_CTBM0_DFT_CTRL, 0x00000003u);
 320              		.loc 1 276 0
 321              		.cfi_startproc
 322 0000 08B5     		push	{r3, lr}
 323              		.cfi_def_cfa_offset 8
 324              		.cfi_offset 3, -8
 325              		.cfi_offset 14, -4
 277:Generated_Source\PSoC4/cyfitter_cfg.c **** 	CY_SET_XTND_REG32((void CYFAR *)CYREG_CTBM1_DFT_CTRL, 0x00000003u);
 326              		.loc 1 277 0
 327 0002 0323     		mov	r3, #3
 328 0004 084A     		ldr	r2, .L16
 329 0006 1360     		str	r3, [r2]
 278:Generated_Source\PSoC4/cyfitter_cfg.c **** 	CY_SET_XTND_REG32((void CYFAR *)CYREG_SAR_CTRL, 0x80000000u);
 330              		.loc 1 278 0
 331 0008 084A     		ldr	r2, .L16+4
 332 000a 1360     		str	r3, [r2]
 279:Generated_Source\PSoC4/cyfitter_cfg.c **** 	CY_SET_XTND_REG32((void CYFAR *)CYREG_SAR_MUX_SWITCH0, 0x00000004u);
 333              		.loc 1 279 0
 334 000c 8022     		mov	r2, #128
 335 000e 1206     		lsl	r2, r2, #24
 336 0010 074B     		ldr	r3, .L16+8
 337 0012 1A60     		str	r2, [r3]
 280:Generated_Source\PSoC4/cyfitter_cfg.c **** 	CY_SET_XTND_REG32((void CYFAR *)CYREG_PASS_DSAB_DSAB_CTRL, 0x00000000u);
 338              		.loc 1 280 0
 339 0014 0422     		mov	r2, #4
 340 0016 074B     		ldr	r3, .L16+12
 341 0018 1A60     		str	r2, [r3]
 281:Generated_Source\PSoC4/cyfitter_cfg.c **** 	SetAnalogRoutingPumps(1);
 342              		.loc 1 281 0
 343 001a 0022     		mov	r2, #0
 344 001c 064B     		ldr	r3, .L16+16
 345 001e 1A60     		str	r2, [r3]
 282:Generated_Source\PSoC4/cyfitter_cfg.c **** }
 346              		.loc 1 282 0
 347 0020 0120     		mov	r0, #1
 348 0022 FFF7FEFF 		bl	SetAnalogRoutingPumps
 349              	.LVL28:
 283:Generated_Source\PSoC4/cyfitter_cfg.c **** 
 350              		.loc 1 283 0
 351              		@ sp needed
 352 0026 08BD     		pop	{r3, pc}
 353              	.L17:
 354              		.align	2
 355              	.L16:
 356 0028 30003040 		.word	1076887600
ARM GAS  C:\Users\Jannai\AppData\Local\Temp\ccMGc53i.s 			page 13


 357 002c 30003140 		.word	1076953136
 358 0030 00003A40 		.word	1077542912
 359 0034 00033A40 		.word	1077543680
 360 0038 000E3F40 		.word	1077874176
 361              		.cfi_endproc
 362              	.LFE7:
 363              		.size	AnalogSetDefault, .-AnalogSetDefault
 364              		.section	.psocinit
 365              		.align	2
 366              		.global	cyfitter_cfg
 367              		.code	16
 368              		.thumb_func
 369              		.type	cyfitter_cfg, %function
 370              	cyfitter_cfg:
 371              	.LFB9:
 315:Generated_Source\PSoC4/cyfitter_cfg.c **** 
 316:Generated_Source\PSoC4/cyfitter_cfg.c **** #define CY_AMUX_UNUSED CYREG_CM0_ROM_DWT
 317:Generated_Source\PSoC4/cyfitter_cfg.c **** 
 318:Generated_Source\PSoC4/cyfitter_cfg.c **** 
 319:Generated_Source\PSoC4/cyfitter_cfg.c **** /*******************************************************************************
 320:Generated_Source\PSoC4/cyfitter_cfg.c **** * Function Name: cyfitter_cfg
 321:Generated_Source\PSoC4/cyfitter_cfg.c **** ********************************************************************************
 322:Generated_Source\PSoC4/cyfitter_cfg.c **** * Summary:
 323:Generated_Source\PSoC4/cyfitter_cfg.c **** *  This function is called by the start-up code for the selected device. It
 324:Generated_Source\PSoC4/cyfitter_cfg.c **** *  performs all of the necessary device configuration based on the design
 325:Generated_Source\PSoC4/cyfitter_cfg.c **** *  settings.  This includes settings from the Design Wide Resources (DWR) such
 326:Generated_Source\PSoC4/cyfitter_cfg.c **** *  as Clocks and Pins as well as any component configuration that is necessary.
 327:Generated_Source\PSoC4/cyfitter_cfg.c **** *
 328:Generated_Source\PSoC4/cyfitter_cfg.c **** * Parameters:  
 329:Generated_Source\PSoC4/cyfitter_cfg.c **** *   void
 330:Generated_Source\PSoC4/cyfitter_cfg.c **** *
 331:Generated_Source\PSoC4/cyfitter_cfg.c **** * Return:
 332:Generated_Source\PSoC4/cyfitter_cfg.c **** *   void
 333:Generated_Source\PSoC4/cyfitter_cfg.c **** *
 334:Generated_Source\PSoC4/cyfitter_cfg.c **** *******************************************************************************/
 335:Generated_Source\PSoC4/cyfitter_cfg.c **** CY_CFG_SECTION
 336:Generated_Source\PSoC4/cyfitter_cfg.c **** void cyfitter_cfg(void)
 337:Generated_Source\PSoC4/cyfitter_cfg.c **** {
 372              		.loc 1 337 0
 373              		.cfi_startproc
 374 00f4 10B5     		push	{r4, lr}
 375              		.cfi_def_cfa_offset 8
 376              		.cfi_offset 4, -8
 377              		.cfi_offset 14, -4
 338:Generated_Source\PSoC4/cyfitter_cfg.c **** 	/* Disable interrupts by default. Let user enable if/when they want. */
 339:Generated_Source\PSoC4/cyfitter_cfg.c **** 	CyGlobalIntDisable;
 378              		.loc 1 339 0
 379              	@ 339 "Generated_Source\PSoC4\cyfitter_cfg.c" 1
 380 00f6 72B6     		CPSID   i
 381              	@ 0 "" 2
 340:Generated_Source\PSoC4/cyfitter_cfg.c **** 
 341:Generated_Source\PSoC4/cyfitter_cfg.c **** 	CY_SET_XTND_REG32((void CYFAR *)(CYREG_BLE_BLESS_LL_DSM_CTRL), 0x00000000u);
 382              		.loc 1 341 0
 383              		.code	16
 384 00f8 0022     		mov	r2, #0
 385 00fa 384B     		ldr	r3, .L21
 386 00fc 1A60     		str	r2, [r3]
ARM GAS  C:\Users\Jannai\AppData\Local\Temp\ccMGc53i.s 			page 14


 342:Generated_Source\PSoC4/cyfitter_cfg.c **** 
 343:Generated_Source\PSoC4/cyfitter_cfg.c **** 	/* Enable the clock in the interrupt controller for the routed interrupts */
 344:Generated_Source\PSoC4/cyfitter_cfg.c **** 	CY_SET_REG8((void *)CYREG_UDB_UDBIF_INT_CLK_CTL, 0x01u);
 387              		.loc 1 344 0
 388 00fe 0132     		add	r2, r2, #1
 389 0100 374B     		ldr	r3, .L21+4
 390 0102 1A70     		strb	r2, [r3]
 391              	.LVL29:
 392              	.LBB3:
 345:Generated_Source\PSoC4/cyfitter_cfg.c **** 	{
 346:Generated_Source\PSoC4/cyfitter_cfg.c **** 		static const uint32 CYCODE cy_cfg_addr_table[] = {
 347:Generated_Source\PSoC4/cyfitter_cfg.c **** 			0x400F0001u, /* Base address: 0x400F0000 Count: 1 */
 348:Generated_Source\PSoC4/cyfitter_cfg.c **** 			0x400F3003u, /* Base address: 0x400F3000 Count: 3 */
 349:Generated_Source\PSoC4/cyfitter_cfg.c **** 			0x400F3106u, /* Base address: 0x400F3100 Count: 6 */
 350:Generated_Source\PSoC4/cyfitter_cfg.c **** 			0x400F3233u, /* Base address: 0x400F3200 Count: 51 */
 351:Generated_Source\PSoC4/cyfitter_cfg.c **** 			0x400F331Au, /* Base address: 0x400F3300 Count: 26 */
 352:Generated_Source\PSoC4/cyfitter_cfg.c **** 			0x400F4107u, /* Base address: 0x400F4100 Count: 7 */
 353:Generated_Source\PSoC4/cyfitter_cfg.c **** 			0x400F4205u, /* Base address: 0x400F4200 Count: 5 */
 354:Generated_Source\PSoC4/cyfitter_cfg.c **** 			0x400F4302u, /* Base address: 0x400F4300 Count: 2 */
 355:Generated_Source\PSoC4/cyfitter_cfg.c **** 			0x400F6002u, /* Base address: 0x400F6000 Count: 2 */
 356:Generated_Source\PSoC4/cyfitter_cfg.c **** 		};
 357:Generated_Source\PSoC4/cyfitter_cfg.c **** 
 358:Generated_Source\PSoC4/cyfitter_cfg.c **** 		static const cy_cfg_addrvalue_t CYCODE cy_cfg_data_table[] = {
 359:Generated_Source\PSoC4/cyfitter_cfg.c **** 			{0x83u, 0x0Du},
 360:Generated_Source\PSoC4/cyfitter_cfg.c **** 			{0xD6u, 0x08u},
 361:Generated_Source\PSoC4/cyfitter_cfg.c **** 			{0xDBu, 0x04u},
 362:Generated_Source\PSoC4/cyfitter_cfg.c **** 			{0xDDu, 0x90u},
 363:Generated_Source\PSoC4/cyfitter_cfg.c **** 			{0x5Cu, 0x90u},
 364:Generated_Source\PSoC4/cyfitter_cfg.c **** 			{0x64u, 0x04u},
 365:Generated_Source\PSoC4/cyfitter_cfg.c **** 			{0x67u, 0x0Au},
 366:Generated_Source\PSoC4/cyfitter_cfg.c **** 			{0x8Cu, 0x80u},
 367:Generated_Source\PSoC4/cyfitter_cfg.c **** 			{0xD6u, 0x30u},
 368:Generated_Source\PSoC4/cyfitter_cfg.c **** 			{0xD8u, 0x30u},
 369:Generated_Source\PSoC4/cyfitter_cfg.c **** 			{0x40u, 0x45u},
 370:Generated_Source\PSoC4/cyfitter_cfg.c **** 			{0x49u, 0xFFu},
 371:Generated_Source\PSoC4/cyfitter_cfg.c **** 			{0x4Au, 0xFFu},
 372:Generated_Source\PSoC4/cyfitter_cfg.c **** 			{0x4Bu, 0xFFu},
 373:Generated_Source\PSoC4/cyfitter_cfg.c **** 			{0x4Fu, 0x01u},
 374:Generated_Source\PSoC4/cyfitter_cfg.c **** 			{0x50u, 0x18u},
 375:Generated_Source\PSoC4/cyfitter_cfg.c **** 			{0x52u, 0x80u},
 376:Generated_Source\PSoC4/cyfitter_cfg.c **** 			{0x5Au, 0x09u},
 377:Generated_Source\PSoC4/cyfitter_cfg.c **** 			{0x5Bu, 0x08u},
 378:Generated_Source\PSoC4/cyfitter_cfg.c **** 			{0x5Du, 0x99u},
 379:Generated_Source\PSoC4/cyfitter_cfg.c **** 			{0x5Fu, 0x01u},
 380:Generated_Source\PSoC4/cyfitter_cfg.c **** 			{0x60u, 0x40u},
 381:Generated_Source\PSoC4/cyfitter_cfg.c **** 			{0x62u, 0x40u},
 382:Generated_Source\PSoC4/cyfitter_cfg.c **** 			{0x64u, 0x40u},
 383:Generated_Source\PSoC4/cyfitter_cfg.c **** 			{0x65u, 0x40u},
 384:Generated_Source\PSoC4/cyfitter_cfg.c **** 			{0x66u, 0x80u},
 385:Generated_Source\PSoC4/cyfitter_cfg.c **** 			{0x68u, 0x80u},
 386:Generated_Source\PSoC4/cyfitter_cfg.c **** 			{0x6Au, 0x80u},
 387:Generated_Source\PSoC4/cyfitter_cfg.c **** 			{0x6Cu, 0x80u},
 388:Generated_Source\PSoC4/cyfitter_cfg.c **** 			{0x6Eu, 0x80u},
 389:Generated_Source\PSoC4/cyfitter_cfg.c **** 			{0x82u, 0x01u},
 390:Generated_Source\PSoC4/cyfitter_cfg.c **** 			{0x8Eu, 0x01u},
 391:Generated_Source\PSoC4/cyfitter_cfg.c **** 			{0xB6u, 0x01u},
 392:Generated_Source\PSoC4/cyfitter_cfg.c **** 			{0xBEu, 0x40u},
ARM GAS  C:\Users\Jannai\AppData\Local\Temp\ccMGc53i.s 			page 15


 393:Generated_Source\PSoC4/cyfitter_cfg.c **** 			{0xC0u, 0x14u},
 394:Generated_Source\PSoC4/cyfitter_cfg.c **** 			{0xC5u, 0xECu},
 395:Generated_Source\PSoC4/cyfitter_cfg.c **** 			{0xC7u, 0x20u},
 396:Generated_Source\PSoC4/cyfitter_cfg.c **** 			{0xC8u, 0x23u},
 397:Generated_Source\PSoC4/cyfitter_cfg.c **** 			{0xC9u, 0xFFu},
 398:Generated_Source\PSoC4/cyfitter_cfg.c **** 			{0xCAu, 0xFFu},
 399:Generated_Source\PSoC4/cyfitter_cfg.c **** 			{0xCBu, 0xFFu},
 400:Generated_Source\PSoC4/cyfitter_cfg.c **** 			{0xCDu, 0x83u},
 401:Generated_Source\PSoC4/cyfitter_cfg.c **** 			{0xCEu, 0x03u},
 402:Generated_Source\PSoC4/cyfitter_cfg.c **** 			{0xCFu, 0x01u},
 403:Generated_Source\PSoC4/cyfitter_cfg.c **** 			{0xD0u, 0x18u},
 404:Generated_Source\PSoC4/cyfitter_cfg.c **** 			{0xD4u, 0x01u},
 405:Generated_Source\PSoC4/cyfitter_cfg.c **** 			{0xD6u, 0x04u},
 406:Generated_Source\PSoC4/cyfitter_cfg.c **** 			{0xD8u, 0x04u},
 407:Generated_Source\PSoC4/cyfitter_cfg.c **** 			{0xDAu, 0x0Au},
 408:Generated_Source\PSoC4/cyfitter_cfg.c **** 			{0xDBu, 0x0Au},
 409:Generated_Source\PSoC4/cyfitter_cfg.c **** 			{0xDDu, 0x99u},
 410:Generated_Source\PSoC4/cyfitter_cfg.c **** 			{0xDFu, 0x01u},
 411:Generated_Source\PSoC4/cyfitter_cfg.c **** 			{0xE0u, 0x40u},
 412:Generated_Source\PSoC4/cyfitter_cfg.c **** 			{0xE2u, 0x40u},
 413:Generated_Source\PSoC4/cyfitter_cfg.c **** 			{0xE4u, 0x40u},
 414:Generated_Source\PSoC4/cyfitter_cfg.c **** 			{0xE5u, 0x40u},
 415:Generated_Source\PSoC4/cyfitter_cfg.c **** 			{0xE6u, 0x80u},
 416:Generated_Source\PSoC4/cyfitter_cfg.c **** 			{0xE8u, 0x80u},
 417:Generated_Source\PSoC4/cyfitter_cfg.c **** 			{0xEAu, 0x80u},
 418:Generated_Source\PSoC4/cyfitter_cfg.c **** 			{0xECu, 0x80u},
 419:Generated_Source\PSoC4/cyfitter_cfg.c **** 			{0xEEu, 0x80u},
 420:Generated_Source\PSoC4/cyfitter_cfg.c **** 			{0x02u, 0x02u},
 421:Generated_Source\PSoC4/cyfitter_cfg.c **** 			{0x03u, 0x40u},
 422:Generated_Source\PSoC4/cyfitter_cfg.c **** 			{0x19u, 0x40u},
 423:Generated_Source\PSoC4/cyfitter_cfg.c **** 			{0x41u, 0x01u},
 424:Generated_Source\PSoC4/cyfitter_cfg.c **** 			{0x43u, 0x40u},
 425:Generated_Source\PSoC4/cyfitter_cfg.c **** 			{0x46u, 0x80u},
 426:Generated_Source\PSoC4/cyfitter_cfg.c **** 			{0x49u, 0x05u},
 427:Generated_Source\PSoC4/cyfitter_cfg.c **** 			{0x4Eu, 0x02u},
 428:Generated_Source\PSoC4/cyfitter_cfg.c **** 			{0x51u, 0x01u},
 429:Generated_Source\PSoC4/cyfitter_cfg.c **** 			{0x52u, 0x02u},
 430:Generated_Source\PSoC4/cyfitter_cfg.c **** 			{0x59u, 0x45u},
 431:Generated_Source\PSoC4/cyfitter_cfg.c **** 			{0x61u, 0x02u},
 432:Generated_Source\PSoC4/cyfitter_cfg.c **** 			{0x76u, 0x80u},
 433:Generated_Source\PSoC4/cyfitter_cfg.c **** 			{0x77u, 0x40u},
 434:Generated_Source\PSoC4/cyfitter_cfg.c **** 			{0x78u, 0x04u},
 435:Generated_Source\PSoC4/cyfitter_cfg.c **** 			{0x7Fu, 0x05u},
 436:Generated_Source\PSoC4/cyfitter_cfg.c **** 			{0x81u, 0x02u},
 437:Generated_Source\PSoC4/cyfitter_cfg.c **** 			{0x93u, 0x0Au},
 438:Generated_Source\PSoC4/cyfitter_cfg.c **** 			{0x98u, 0x04u},
 439:Generated_Source\PSoC4/cyfitter_cfg.c **** 			{0xB4u, 0x10u},
 440:Generated_Source\PSoC4/cyfitter_cfg.c **** 			{0xC0u, 0x09u},
 441:Generated_Source\PSoC4/cyfitter_cfg.c **** 			{0xD0u, 0x89u},
 442:Generated_Source\PSoC4/cyfitter_cfg.c **** 			{0xD2u, 0x10u},
 443:Generated_Source\PSoC4/cyfitter_cfg.c **** 			{0xD6u, 0x0Bu},
 444:Generated_Source\PSoC4/cyfitter_cfg.c **** 			{0xD8u, 0x01u},
 445:Generated_Source\PSoC4/cyfitter_cfg.c **** 			{0xDEu, 0x32u},
 446:Generated_Source\PSoC4/cyfitter_cfg.c **** 			{0x12u, 0x04u},
 447:Generated_Source\PSoC4/cyfitter_cfg.c **** 			{0x6Bu, 0x80u},
 448:Generated_Source\PSoC4/cyfitter_cfg.c **** 			{0x76u, 0x04u},
 449:Generated_Source\PSoC4/cyfitter_cfg.c **** 			{0x83u, 0x80u},
ARM GAS  C:\Users\Jannai\AppData\Local\Temp\ccMGc53i.s 			page 16


 450:Generated_Source\PSoC4/cyfitter_cfg.c **** 			{0xC4u, 0x40u},
 451:Generated_Source\PSoC4/cyfitter_cfg.c **** 			{0xDCu, 0x60u},
 452:Generated_Source\PSoC4/cyfitter_cfg.c **** 			{0xE2u, 0x80u},
 453:Generated_Source\PSoC4/cyfitter_cfg.c **** 			{0x24u, 0x10u},
 454:Generated_Source\PSoC4/cyfitter_cfg.c **** 			{0x25u, 0x01u},
 455:Generated_Source\PSoC4/cyfitter_cfg.c **** 			{0x8Cu, 0x10u},
 456:Generated_Source\PSoC4/cyfitter_cfg.c **** 			{0xC8u, 0x01u},
 457:Generated_Source\PSoC4/cyfitter_cfg.c **** 			{0xE2u, 0x08u},
 458:Generated_Source\PSoC4/cyfitter_cfg.c **** 			{0xB5u, 0x01u},
 459:Generated_Source\PSoC4/cyfitter_cfg.c **** 			{0xEAu, 0x08u},
 460:Generated_Source\PSoC4/cyfitter_cfg.c **** 			{0x02u, 0x01u},
 461:Generated_Source\PSoC4/cyfitter_cfg.c **** 			{0x11u, 0x01u},
 462:Generated_Source\PSoC4/cyfitter_cfg.c **** 		};
 463:Generated_Source\PSoC4/cyfitter_cfg.c **** 
 464:Generated_Source\PSoC4/cyfitter_cfg.c **** 
 465:Generated_Source\PSoC4/cyfitter_cfg.c **** 
 466:Generated_Source\PSoC4/cyfitter_cfg.c **** 		CYPACKED typedef struct {
 467:Generated_Source\PSoC4/cyfitter_cfg.c **** 			void CYFAR *address;
 468:Generated_Source\PSoC4/cyfitter_cfg.c **** 			uint16 size;
 469:Generated_Source\PSoC4/cyfitter_cfg.c **** 		} CYPACKED_ATTR cfg_memset_t;
 470:Generated_Source\PSoC4/cyfitter_cfg.c **** 
 471:Generated_Source\PSoC4/cyfitter_cfg.c **** 		static const cfg_memset_t CYCODE cfg_memset_list [] = {
 472:Generated_Source\PSoC4/cyfitter_cfg.c **** 			/* address, size */
 473:Generated_Source\PSoC4/cyfitter_cfg.c **** 			{(void CYFAR *)(CYDEV_UDB_P0_U0_BASE), 1024u},
 474:Generated_Source\PSoC4/cyfitter_cfg.c **** 			{(void CYFAR *)(CYDEV_UDB_DSI0_BASE), 1024u},
 475:Generated_Source\PSoC4/cyfitter_cfg.c **** 		};
 476:Generated_Source\PSoC4/cyfitter_cfg.c **** 
 477:Generated_Source\PSoC4/cyfitter_cfg.c **** 		uint8 CYDATA i;
 478:Generated_Source\PSoC4/cyfitter_cfg.c **** 
 479:Generated_Source\PSoC4/cyfitter_cfg.c **** 		/* Zero out critical memory blocks before beginning configuration */
 480:Generated_Source\PSoC4/cyfitter_cfg.c **** 		for (i = 0u; i < (sizeof(cfg_memset_list)/sizeof(cfg_memset_list[0])); i++)
 393              		.loc 1 480 0
 394 0104 0024     		mov	r4, #0
 395 0106 10E0     		b	.L19
 396              	.LVL30:
 397              	.L20:
 398              	.LBB4:
 481:Generated_Source\PSoC4/cyfitter_cfg.c **** 		{
 482:Generated_Source\PSoC4/cyfitter_cfg.c **** 			const cfg_memset_t CYCODE * CYDATA ms = &cfg_memset_list[i];
 483:Generated_Source\PSoC4/cyfitter_cfg.c **** 			CYMEMZERO(ms->address, (size_t)(uint32)(ms->size));
 399              		.loc 1 483 0 discriminator 3
 400 0108 3648     		ldr	r0, .L21+8
 401 010a 6300     		lsl	r3, r4, #1
 402 010c 1A19     		add	r2, r3, r4
 403 010e 5200     		lsl	r2, r2, #1
 404 0110 8218     		add	r2, r0, r2
 405 0112 9188     		ldrh	r1, [r2, #4]
 406 0114 1B19     		add	r3, r3, r4
 407 0116 5B00     		lsl	r3, r3, #1
 408 0118 1A5A     		ldrh	r2, [r3, r0]
 409 011a C318     		add	r3, r0, r3
 410 011c 5888     		ldrh	r0, [r3, #2]
 411 011e 0004     		lsl	r0, r0, #16
 412 0120 1043     		orr	r0, r2
 413 0122 FFF7FEFF 		bl	CYMEMZERO
 414              	.LVL31:
 415              	.LBE4:
ARM GAS  C:\Users\Jannai\AppData\Local\Temp\ccMGc53i.s 			page 17


 480:Generated_Source\PSoC4/cyfitter_cfg.c **** 		{
 416              		.loc 1 480 0 discriminator 3
 417 0126 0134     		add	r4, r4, #1
 418              	.LVL32:
 419 0128 E4B2     		uxtb	r4, r4
 420              	.LVL33:
 421              	.L19:
 480:Generated_Source\PSoC4/cyfitter_cfg.c **** 		{
 422              		.loc 1 480 0 is_stmt 0 discriminator 1
 423 012a 012C     		cmp	r4, #1
 424 012c ECD9     		bls	.L20
 484:Generated_Source\PSoC4/cyfitter_cfg.c **** 		}
 485:Generated_Source\PSoC4/cyfitter_cfg.c **** 
 486:Generated_Source\PSoC4/cyfitter_cfg.c **** 		cfg_write_bytes32(cy_cfg_addr_table, cy_cfg_data_table);
 425              		.loc 1 486 0 is_stmt 1
 426 012e 2D49     		ldr	r1, .L21+8
 427 0130 081C     		mov	r0, r1
 428 0132 0C30     		add	r0, r0, #12
 429 0134 3031     		add	r1, r1, #48
 430 0136 FFF7FEFF 		bl	cfg_write_bytes32
 431              	.LVL34:
 487:Generated_Source\PSoC4/cyfitter_cfg.c **** 
 488:Generated_Source\PSoC4/cyfitter_cfg.c **** 		/* HSIOM Starting address: CYDEV_HSIOM_BASE */
 489:Generated_Source\PSoC4/cyfitter_cfg.c **** 		CY_SET_XTND_REG32((void CYFAR *)(CYDEV_HSIOM_BASE), 0xEE000000u);
 432              		.loc 1 489 0
 433 013a EE22     		mov	r2, #238
 434 013c 1206     		lsl	r2, r2, #24
 435 013e 2A4B     		ldr	r3, .L21+12
 436 0140 1A60     		str	r2, [r3]
 490:Generated_Source\PSoC4/cyfitter_cfg.c **** 		CY_SET_XTND_REG32((void CYFAR *)(CYREG_HSIOM_PORT_SEL3), 0x00EE0000u);
 437              		.loc 1 490 0
 438 0142 EE22     		mov	r2, #238
 439 0144 1204     		lsl	r2, r2, #16
 440 0146 294B     		ldr	r3, .L21+16
 441 0148 1A60     		str	r2, [r3]
 491:Generated_Source\PSoC4/cyfitter_cfg.c **** 
 492:Generated_Source\PSoC4/cyfitter_cfg.c **** 		/* UDB_PA_0 Starting address: CYDEV_UDB_PA0_BASE */
 493:Generated_Source\PSoC4/cyfitter_cfg.c **** 		CY_SET_XTND_REG32((void CYFAR *)(CYDEV_UDB_PA0_BASE), 0x00990000u);
 442              		.loc 1 493 0
 443 014a 9923     		mov	r3, #153
 444 014c 1B04     		lsl	r3, r3, #16
 445 014e 284A     		ldr	r2, .L21+20
 446 0150 1360     		str	r3, [r2]
 494:Generated_Source\PSoC4/cyfitter_cfg.c **** 
 495:Generated_Source\PSoC4/cyfitter_cfg.c **** 		/* UDB_PA_1 Starting address: CYDEV_UDB_PA1_BASE */
 496:Generated_Source\PSoC4/cyfitter_cfg.c **** 		CY_SET_XTND_REG32((void CYFAR *)(CYDEV_UDB_PA1_BASE), 0x00990000u);
 447              		.loc 1 496 0
 448 0152 284A     		ldr	r2, .L21+24
 449 0154 1360     		str	r3, [r2]
 497:Generated_Source\PSoC4/cyfitter_cfg.c **** 
 498:Generated_Source\PSoC4/cyfitter_cfg.c **** 		/* UDB_PA_2 Starting address: CYDEV_UDB_PA2_BASE */
 499:Generated_Source\PSoC4/cyfitter_cfg.c **** 		CY_SET_XTND_REG32((void CYFAR *)(CYDEV_UDB_PA2_BASE), 0x00990000u);
 450              		.loc 1 499 0
 451 0156 284A     		ldr	r2, .L21+28
 452 0158 1360     		str	r3, [r2]
 500:Generated_Source\PSoC4/cyfitter_cfg.c **** 
 501:Generated_Source\PSoC4/cyfitter_cfg.c **** 		/* UDB_PA_3 Starting address: CYDEV_UDB_PA3_BASE */
ARM GAS  C:\Users\Jannai\AppData\Local\Temp\ccMGc53i.s 			page 18


 502:Generated_Source\PSoC4/cyfitter_cfg.c **** 		CY_SET_XTND_REG32((void CYFAR *)(CYDEV_UDB_PA3_BASE), 0x00990000u);
 453              		.loc 1 502 0
 454 015a 284A     		ldr	r2, .L21+32
 455 015c 1360     		str	r3, [r2]
 503:Generated_Source\PSoC4/cyfitter_cfg.c **** 
 504:Generated_Source\PSoC4/cyfitter_cfg.c **** 		/* INT_SELECT Starting address: CYDEV_CPUSS_INT_SEL */
 505:Generated_Source\PSoC4/cyfitter_cfg.c **** 		CY_SET_XTND_REG32((void CYFAR *)(CYREG_CPUSS_INT_SEL), 0x0000000Cu);
 456              		.loc 1 505 0
 457 015e 0C23     		mov	r3, #12
 458 0160 274A     		ldr	r2, .L21+36
 459 0162 1360     		str	r3, [r2]
 506:Generated_Source\PSoC4/cyfitter_cfg.c **** 
 507:Generated_Source\PSoC4/cyfitter_cfg.c **** 		/* INT_CONFIG Starting address: CYDEV_UDB_INT_CFG */
 508:Generated_Source\PSoC4/cyfitter_cfg.c **** 		CY_SET_XTND_REG32((void CYFAR *)(CYREG_UDB_INT_CFG), 0x0000000Cu);
 460              		.loc 1 508 0
 461 0164 274A     		ldr	r2, .L21+40
 462 0166 1360     		str	r3, [r2]
 509:Generated_Source\PSoC4/cyfitter_cfg.c **** 
 510:Generated_Source\PSoC4/cyfitter_cfg.c **** 		/* Enable digital routing */
 511:Generated_Source\PSoC4/cyfitter_cfg.c **** 		CY_SET_XTND_REG8((void *)CYREG_UDB_UDBIF_BANK_CTL, CY_GET_XTND_REG8((void *)CYREG_UDB_UDBIF_BANK_
 463              		.loc 1 511 0
 464 0168 274B     		ldr	r3, .L21+44
 465 016a 1978     		ldrb	r1, [r3]
 466 016c 0222     		mov	r2, #2
 467 016e 0A43     		orr	r2, r1
 468 0170 1A70     		strb	r2, [r3]
 512:Generated_Source\PSoC4/cyfitter_cfg.c **** 
 513:Generated_Source\PSoC4/cyfitter_cfg.c **** 		/* Enable UDB array */
 514:Generated_Source\PSoC4/cyfitter_cfg.c **** 		CY_SET_XTND_REG8((void *)CYREG_UDB_UDBIF_WAIT_CFG, (uint8)((CY_GET_XTND_REG8((void *)CYREG_UDB_UD
 469              		.loc 1 514 0
 470 0172 2648     		ldr	r0, .L21+48
 471 0174 0278     		ldrb	r2, [r0]
 472 0176 3C21     		mov	r1, #60
 473 0178 8A43     		bic	r2, r1
 474 017a 2839     		sub	r1, r1, #40
 475 017c 0A43     		orr	r2, r1
 476 017e 0270     		strb	r2, [r0]
 515:Generated_Source\PSoC4/cyfitter_cfg.c **** 		CY_SET_XTND_REG8((void *)CYREG_UDB_UDBIF_BANK_CTL, (uint8)(CY_GET_XTND_REG8((void *)CYREG_UDB_UDB
 477              		.loc 1 515 0
 478 0180 1978     		ldrb	r1, [r3]
 479 0182 1622     		mov	r2, #22
 480 0184 0A43     		orr	r2, r1
 481 0186 1A70     		strb	r2, [r3]
 482              	.LBE3:
 516:Generated_Source\PSoC4/cyfitter_cfg.c **** 	}
 517:Generated_Source\PSoC4/cyfitter_cfg.c **** 
 518:Generated_Source\PSoC4/cyfitter_cfg.c **** 	/* Perform second pass device configuration. These items must be configured in specific order afte
 519:Generated_Source\PSoC4/cyfitter_cfg.c **** 	/* IOPINS0_0 Starting address: CYDEV_GPIO_PRT0_BASE */
 520:Generated_Source\PSoC4/cyfitter_cfg.c **** 	CY_SET_XTND_REG32((void CYFAR *)(CYDEV_GPIO_PRT0_BASE), 0x00000010u);
 483              		.loc 1 520 0
 484 0188 1022     		mov	r2, #16
 485 018a 214B     		ldr	r3, .L21+52
 486 018c 1A60     		str	r2, [r3]
 521:Generated_Source\PSoC4/cyfitter_cfg.c **** 	CY_SET_XTND_REG32((void CYFAR *)(CYREG_GPIO_PRT0_PC), 0x00D9E000u);
 487              		.loc 1 521 0
 488 018e 214A     		ldr	r2, .L21+56
 489 0190 214B     		ldr	r3, .L21+60
ARM GAS  C:\Users\Jannai\AppData\Local\Temp\ccMGc53i.s 			page 19


 490 0192 1A60     		str	r2, [r3]
 522:Generated_Source\PSoC4/cyfitter_cfg.c **** 	CY_SET_XTND_REG32((void CYFAR *)(CYREG_GPIO_PRT0_INTR_CFG), 0x00000400u);
 491              		.loc 1 522 0
 492 0194 8022     		mov	r2, #128
 493 0196 D200     		lsl	r2, r2, #3
 494 0198 204B     		ldr	r3, .L21+64
 495 019a 1A60     		str	r2, [r3]
 523:Generated_Source\PSoC4/cyfitter_cfg.c **** 
 524:Generated_Source\PSoC4/cyfitter_cfg.c **** 	/* IOPINS0_1 Starting address: CYDEV_GPIO_PRT1_BASE */
 525:Generated_Source\PSoC4/cyfitter_cfg.c **** 	CY_SET_XTND_REG32((void CYFAR *)(CYREG_GPIO_PRT1_PC), 0x00000018u);
 496              		.loc 1 525 0
 497 019c 1822     		mov	r2, #24
 498 019e 204B     		ldr	r3, .L21+68
 499 01a0 1A60     		str	r2, [r3]
 526:Generated_Source\PSoC4/cyfitter_cfg.c **** 	CY_SET_XTND_REG32((void CYFAR *)(CYREG_GPIO_PRT1_INTR_CFG), 0x00000008u);
 500              		.loc 1 526 0
 501 01a2 0823     		mov	r3, #8
 502 01a4 1F4A     		ldr	r2, .L21+72
 503 01a6 1360     		str	r3, [r2]
 527:Generated_Source\PSoC4/cyfitter_cfg.c **** 
 528:Generated_Source\PSoC4/cyfitter_cfg.c **** 	/* IOPINS0_2 Starting address: CYDEV_GPIO_PRT2_BASE */
 529:Generated_Source\PSoC4/cyfitter_cfg.c **** 	CY_SET_XTND_REG32((void CYFAR *)(CYDEV_GPIO_PRT2_BASE), 0x00000008u);
 504              		.loc 1 529 0
 505 01a8 1F4A     		ldr	r2, .L21+76
 506 01aa 1360     		str	r3, [r2]
 530:Generated_Source\PSoC4/cyfitter_cfg.c **** 	CY_SET_XTND_REG32((void CYFAR *)(CYREG_GPIO_PRT2_PC), 0x00000580u);
 507              		.loc 1 530 0
 508 01ac B022     		mov	r2, #176
 509 01ae D200     		lsl	r2, r2, #3
 510 01b0 1E4B     		ldr	r3, .L21+80
 511 01b2 1A60     		str	r2, [r3]
 531:Generated_Source\PSoC4/cyfitter_cfg.c **** 	CY_SET_XTND_REG32((void CYFAR *)(CYREG_GPIO_PRT2_INTR_CFG), 0x000000C0u);
 512              		.loc 1 531 0
 513 01b4 C022     		mov	r2, #192
 514 01b6 1E4B     		ldr	r3, .L21+84
 515 01b8 1A60     		str	r2, [r3]
 532:Generated_Source\PSoC4/cyfitter_cfg.c **** 
 533:Generated_Source\PSoC4/cyfitter_cfg.c **** 	/* IOPINS0_3 Starting address: CYDEV_GPIO_PRT3_BASE */
 534:Generated_Source\PSoC4/cyfitter_cfg.c **** 	CY_SET_XTND_REG32((void CYFAR *)(CYDEV_GPIO_PRT3_BASE), 0x00000034u);
 516              		.loc 1 534 0
 517 01ba 8C3A     		sub	r2, r2, #140
 518 01bc 1D4B     		ldr	r3, .L21+88
 519 01be 1A60     		str	r2, [r3]
 535:Generated_Source\PSoC4/cyfitter_cfg.c **** 	CY_SET_XTND_REG32((void CYFAR *)(CYREG_GPIO_PRT3_PC), 0x00024001u);
 520              		.loc 1 535 0
 521 01c0 1D4A     		ldr	r2, .L21+92
 522 01c2 1E4B     		ldr	r3, .L21+96
 523 01c4 1A60     		str	r2, [r3]
 536:Generated_Source\PSoC4/cyfitter_cfg.c **** 	CY_SET_XTND_REG32((void CYFAR *)(CYREG_GPIO_PRT3_INTR_CFG), 0x00000003u);
 524              		.loc 1 536 0
 525 01c6 0322     		mov	r2, #3
 526 01c8 1D4B     		ldr	r3, .L21+100
 527 01ca 1A60     		str	r2, [r3]
 537:Generated_Source\PSoC4/cyfitter_cfg.c **** 	CY_SET_XTND_REG32((void CYFAR *)(CYREG_GPIO_PRT3_PC2), 0x00000004u);
 528              		.loc 1 537 0
 529 01cc 0132     		add	r2, r2, #1
 530 01ce 1D4B     		ldr	r3, .L21+104
ARM GAS  C:\Users\Jannai\AppData\Local\Temp\ccMGc53i.s 			page 20


 531 01d0 1A60     		str	r2, [r3]
 538:Generated_Source\PSoC4/cyfitter_cfg.c **** 
 539:Generated_Source\PSoC4/cyfitter_cfg.c **** 
 540:Generated_Source\PSoC4/cyfitter_cfg.c **** 	/* Setup clocks based on selections from Clock DWR */
 541:Generated_Source\PSoC4/cyfitter_cfg.c **** 	ClockSetup();
 532              		.loc 1 541 0
 533 01d2 FFF715FF 		bl	ClockSetup
 534              	.LVL35:
 542:Generated_Source\PSoC4/cyfitter_cfg.c **** 
 543:Generated_Source\PSoC4/cyfitter_cfg.c **** 	/* Perform basic analog initialization to defaults */
 544:Generated_Source\PSoC4/cyfitter_cfg.c **** 	AnalogSetDefault();
 535              		.loc 1 544 0
 536 01d6 FFF7FEFF 		bl	AnalogSetDefault
 537              	.LVL36:
 545:Generated_Source\PSoC4/cyfitter_cfg.c **** 
 546:Generated_Source\PSoC4/cyfitter_cfg.c **** }
 538              		.loc 1 546 0
 539              		@ sp needed
 540              	.LVL37:
 541 01da 10BD     		pop	{r4, pc}
 542              	.L22:
 543              		.align	2
 544              	.L21:
 545 01dc 6CF02E40 		.word	1076818028
 546 01e0 1C700F40 		.word	1074753564
 547 01e4 00000000 		.word	.LANCHOR0
 548 01e8 00000240 		.word	1073872896
 549 01ec 00030240 		.word	1073873664
 550 01f0 00500F40 		.word	1074745344
 551 01f4 10500F40 		.word	1074745360
 552 01f8 20500F40 		.word	1074745376
 553 01fc 30500F40 		.word	1074745392
 554 0200 20001040 		.word	1074790432
 555 0204 00800F40 		.word	1074757632
 556 0208 00700F40 		.word	1074753536
 557 020c 01700F40 		.word	1074753537
 558 0210 00000440 		.word	1074003968
 559 0214 00E0D900 		.word	14278656
 560 0218 08000440 		.word	1074003976
 561 021c 0C000440 		.word	1074003980
 562 0220 08010440 		.word	1074004232
 563 0224 0C010440 		.word	1074004236
 564 0228 00020440 		.word	1074004480
 565 022c 08020440 		.word	1074004488
 566 0230 0C020440 		.word	1074004492
 567 0234 00030440 		.word	1074004736
 568 0238 01400200 		.word	147457
 569 023c 08030440 		.word	1074004744
 570 0240 0C030440 		.word	1074004748
 571 0244 18030440 		.word	1074004760
 572              		.cfi_endproc
 573              	.LFE9:
 574              		.size	cyfitter_cfg, .-cyfitter_cfg
 575              		.section	.rodata
 576              		.align	2
 577              		.set	.LANCHOR0,. + 0
 578              		.type	cfg_memset_list.4787, %object
ARM GAS  C:\Users\Jannai\AppData\Local\Temp\ccMGc53i.s 			page 21


 579              		.size	cfg_memset_list.4787, 12
 580              	cfg_memset_list.4787:
 581 0000 00300F40 		.word	1074737152
 582 0004 0004     		.short	1024
 583 0006 00400F40 		.4byte	1074741248
 584 000a 0004     		.short	1024
 585              		.type	cy_cfg_addr_table.4781, %object
 586              		.size	cy_cfg_addr_table.4781, 36
 587              	cy_cfg_addr_table.4781:
 588 000c 01000F40 		.word	1074724865
 589 0010 03300F40 		.word	1074737155
 590 0014 06310F40 		.word	1074737414
 591 0018 33320F40 		.word	1074737715
 592 001c 1A330F40 		.word	1074737946
 593 0020 07410F40 		.word	1074741511
 594 0024 05420F40 		.word	1074741765
 595 0028 02430F40 		.word	1074742018
 596 002c 02600F40 		.word	1074749442
 597              		.type	cy_cfg_data_table.4782, %object
 598              		.size	cy_cfg_data_table.4782, 206
 599              	cy_cfg_data_table.4782:
 600 0030 83       		.byte	-125
 601 0031 0D       		.byte	13
 602 0032 D6       		.byte	-42
 603 0033 08       		.byte	8
 604 0034 DB       		.byte	-37
 605 0035 04       		.byte	4
 606 0036 DD       		.byte	-35
 607 0037 90       		.byte	-112
 608 0038 5C       		.byte	92
 609 0039 90       		.byte	-112
 610 003a 64       		.byte	100
 611 003b 04       		.byte	4
 612 003c 67       		.byte	103
 613 003d 0A       		.byte	10
 614 003e 8C       		.byte	-116
 615 003f 80       		.byte	-128
 616 0040 D6       		.byte	-42
 617 0041 30       		.byte	48
 618 0042 D8       		.byte	-40
 619 0043 30       		.byte	48
 620 0044 40       		.byte	64
 621 0045 45       		.byte	69
 622 0046 49       		.byte	73
 623 0047 FF       		.byte	-1
 624 0048 4A       		.byte	74
 625 0049 FF       		.byte	-1
 626 004a 4B       		.byte	75
 627 004b FF       		.byte	-1
 628 004c 4F       		.byte	79
 629 004d 01       		.byte	1
 630 004e 50       		.byte	80
 631 004f 18       		.byte	24
 632 0050 52       		.byte	82
 633 0051 80       		.byte	-128
 634 0052 5A       		.byte	90
 635 0053 09       		.byte	9
ARM GAS  C:\Users\Jannai\AppData\Local\Temp\ccMGc53i.s 			page 22


 636 0054 5B       		.byte	91
 637 0055 08       		.byte	8
 638 0056 5D       		.byte	93
 639 0057 99       		.byte	-103
 640 0058 5F       		.byte	95
 641 0059 01       		.byte	1
 642 005a 60       		.byte	96
 643 005b 40       		.byte	64
 644 005c 62       		.byte	98
 645 005d 40       		.byte	64
 646 005e 64       		.byte	100
 647 005f 40       		.byte	64
 648 0060 65       		.byte	101
 649 0061 40       		.byte	64
 650 0062 66       		.byte	102
 651 0063 80       		.byte	-128
 652 0064 68       		.byte	104
 653 0065 80       		.byte	-128
 654 0066 6A       		.byte	106
 655 0067 80       		.byte	-128
 656 0068 6C       		.byte	108
 657 0069 80       		.byte	-128
 658 006a 6E       		.byte	110
 659 006b 80       		.byte	-128
 660 006c 82       		.byte	-126
 661 006d 01       		.byte	1
 662 006e 8E       		.byte	-114
 663 006f 01       		.byte	1
 664 0070 B6       		.byte	-74
 665 0071 01       		.byte	1
 666 0072 BE       		.byte	-66
 667 0073 40       		.byte	64
 668 0074 C0       		.byte	-64
 669 0075 14       		.byte	20
 670 0076 C5       		.byte	-59
 671 0077 EC       		.byte	-20
 672 0078 C7       		.byte	-57
 673 0079 20       		.byte	32
 674 007a C8       		.byte	-56
 675 007b 23       		.byte	35
 676 007c C9       		.byte	-55
 677 007d FF       		.byte	-1
 678 007e CA       		.byte	-54
 679 007f FF       		.byte	-1
 680 0080 CB       		.byte	-53
 681 0081 FF       		.byte	-1
 682 0082 CD       		.byte	-51
 683 0083 83       		.byte	-125
 684 0084 CE       		.byte	-50
 685 0085 03       		.byte	3
 686 0086 CF       		.byte	-49
 687 0087 01       		.byte	1
 688 0088 D0       		.byte	-48
 689 0089 18       		.byte	24
 690 008a D4       		.byte	-44
 691 008b 01       		.byte	1
 692 008c D6       		.byte	-42
ARM GAS  C:\Users\Jannai\AppData\Local\Temp\ccMGc53i.s 			page 23


 693 008d 04       		.byte	4
 694 008e D8       		.byte	-40
 695 008f 04       		.byte	4
 696 0090 DA       		.byte	-38
 697 0091 0A       		.byte	10
 698 0092 DB       		.byte	-37
 699 0093 0A       		.byte	10
 700 0094 DD       		.byte	-35
 701 0095 99       		.byte	-103
 702 0096 DF       		.byte	-33
 703 0097 01       		.byte	1
 704 0098 E0       		.byte	-32
 705 0099 40       		.byte	64
 706 009a E2       		.byte	-30
 707 009b 40       		.byte	64
 708 009c E4       		.byte	-28
 709 009d 40       		.byte	64
 710 009e E5       		.byte	-27
 711 009f 40       		.byte	64
 712 00a0 E6       		.byte	-26
 713 00a1 80       		.byte	-128
 714 00a2 E8       		.byte	-24
 715 00a3 80       		.byte	-128
 716 00a4 EA       		.byte	-22
 717 00a5 80       		.byte	-128
 718 00a6 EC       		.byte	-20
 719 00a7 80       		.byte	-128
 720 00a8 EE       		.byte	-18
 721 00a9 80       		.byte	-128
 722 00aa 02       		.byte	2
 723 00ab 02       		.byte	2
 724 00ac 03       		.byte	3
 725 00ad 40       		.byte	64
 726 00ae 19       		.byte	25
 727 00af 40       		.byte	64
 728 00b0 41       		.byte	65
 729 00b1 01       		.byte	1
 730 00b2 43       		.byte	67
 731 00b3 40       		.byte	64
 732 00b4 46       		.byte	70
 733 00b5 80       		.byte	-128
 734 00b6 49       		.byte	73
 735 00b7 05       		.byte	5
 736 00b8 4E       		.byte	78
 737 00b9 02       		.byte	2
 738 00ba 51       		.byte	81
 739 00bb 01       		.byte	1
 740 00bc 52       		.byte	82
 741 00bd 02       		.byte	2
 742 00be 59       		.byte	89
 743 00bf 45       		.byte	69
 744 00c0 61       		.byte	97
 745 00c1 02       		.byte	2
 746 00c2 76       		.byte	118
 747 00c3 80       		.byte	-128
 748 00c4 77       		.byte	119
 749 00c5 40       		.byte	64
ARM GAS  C:\Users\Jannai\AppData\Local\Temp\ccMGc53i.s 			page 24


 750 00c6 78       		.byte	120
 751 00c7 04       		.byte	4
 752 00c8 7F       		.byte	127
 753 00c9 05       		.byte	5
 754 00ca 81       		.byte	-127
 755 00cb 02       		.byte	2
 756 00cc 93       		.byte	-109
 757 00cd 0A       		.byte	10
 758 00ce 98       		.byte	-104
 759 00cf 04       		.byte	4
 760 00d0 B4       		.byte	-76
 761 00d1 10       		.byte	16
 762 00d2 C0       		.byte	-64
 763 00d3 09       		.byte	9
 764 00d4 D0       		.byte	-48
 765 00d5 89       		.byte	-119
 766 00d6 D2       		.byte	-46
 767 00d7 10       		.byte	16
 768 00d8 D6       		.byte	-42
 769 00d9 0B       		.byte	11
 770 00da D8       		.byte	-40
 771 00db 01       		.byte	1
 772 00dc DE       		.byte	-34
 773 00dd 32       		.byte	50
 774 00de 12       		.byte	18
 775 00df 04       		.byte	4
 776 00e0 6B       		.byte	107
 777 00e1 80       		.byte	-128
 778 00e2 76       		.byte	118
 779 00e3 04       		.byte	4
 780 00e4 83       		.byte	-125
 781 00e5 80       		.byte	-128
 782 00e6 C4       		.byte	-60
 783 00e7 40       		.byte	64
 784 00e8 DC       		.byte	-36
 785 00e9 60       		.byte	96
 786 00ea E2       		.byte	-30
 787 00eb 80       		.byte	-128
 788 00ec 24       		.byte	36
 789 00ed 10       		.byte	16
 790 00ee 25       		.byte	37
 791 00ef 01       		.byte	1
 792 00f0 8C       		.byte	-116
 793 00f1 10       		.byte	16
 794 00f2 C8       		.byte	-56
 795 00f3 01       		.byte	1
 796 00f4 E2       		.byte	-30
 797 00f5 08       		.byte	8
 798 00f6 B5       		.byte	-75
 799 00f7 01       		.byte	1
 800 00f8 EA       		.byte	-22
 801 00f9 08       		.byte	8
 802 00fa 02       		.byte	2
 803 00fb 01       		.byte	1
 804 00fc 11       		.byte	17
 805 00fd 01       		.byte	1
 806 00fe 0000     		.text
ARM GAS  C:\Users\Jannai\AppData\Local\Temp\ccMGc53i.s 			page 25


 807              	.Letext0:
 808              		.file 2 "c:\\program files (x86)\\cypress\\psoc creator\\4.0\\psoc creator\\import\\gnu\\arm\\4.9.
 809              		.file 3 "Generated_Source\\PSoC4\\cytypes.h"
 810              		.file 4 "Generated_Source\\PSoC4\\CyLib.h"
 811              		.file 5 "Generated_Source\\PSoC4\\CyLFClk.h"