ARM GAS  C:\Users\Jannai\AppData\Local\Temp\ccb0hbnM.s 			page 1


   1              		.cpu cortex-m0
   2              		.fpu softvfp
   3              		.eabi_attribute 20, 1
   4              		.eabi_attribute 21, 1
   5              		.eabi_attribute 23, 3
   6              		.eabi_attribute 24, 1
   7              		.eabi_attribute 25, 1
   8              		.eabi_attribute 26, 1
   9              		.eabi_attribute 30, 1
  10              		.eabi_attribute 34, 0
  11              		.eabi_attribute 18, 4
  12              		.code	16
  13              		.file	"I2C_Accelerometer.c"
  14              		.text
  15              	.Ltext0:
  16              		.cfi_sections	.debug_frame
  17              		.section	.text.bitRead,"ax",%progbits
  18              		.align	2
  19              		.global	bitRead
  20              		.code	16
  21              		.thumb_func
  22              		.type	bitRead, %function
  23              	bitRead:
  24              	.LFB37:
  25              		.file 1 "I2C_Accelerometer.c"
   1:I2C_Accelerometer.c **** /* ========================================
   2:I2C_Accelerometer.c ****  *
   3:I2C_Accelerometer.c ****  * Copyright YOUR COMPANY, THE YEAR
   4:I2C_Accelerometer.c ****  * All Rights Reserved
   5:I2C_Accelerometer.c ****  * UNPUBLISHED, LICENSED SOFTWARE.
   6:I2C_Accelerometer.c ****  *
   7:I2C_Accelerometer.c ****  * CONFIDENTIAL AND PROPRIETARY INFORMATION
   8:I2C_Accelerometer.c ****  * WHICH IS THE PROPERTY OF your company.
   9:I2C_Accelerometer.c ****  *
  10:I2C_Accelerometer.c ****  * ========================================
  11:I2C_Accelerometer.c **** */
  12:I2C_Accelerometer.c **** 
  13:I2C_Accelerometer.c **** 
  14:I2C_Accelerometer.c **** #include "I2C_Accelerometer.h"
  15:I2C_Accelerometer.c **** 
  16:I2C_Accelerometer.c **** #define MMA8452Q_ADDRESS 0x1D
  17:I2C_Accelerometer.c **** 
  18:I2C_Accelerometer.c **** 
  19:I2C_Accelerometer.c **** enum MMA8452Q_REGISTERS {
  20:I2C_Accelerometer.c **** 	STATUS       = 0x00,
  21:I2C_Accelerometer.c **** 
  22:I2C_Accelerometer.c **** 	OUT_X_MSB    = 0x01,
  23:I2C_Accelerometer.c **** 	OUT_X_LSB    = 0x02,
  24:I2C_Accelerometer.c **** 
  25:I2C_Accelerometer.c **** 	OUT_Y_MSB    = 0x03,
  26:I2C_Accelerometer.c **** 	OUT_Y_LSB    = 0x04,
  27:I2C_Accelerometer.c **** 
  28:I2C_Accelerometer.c **** 	OUT_Z_MSB    = 0x05,
  29:I2C_Accelerometer.c **** 	OUT_Z_LSB    = 0x06,
  30:I2C_Accelerometer.c **** 
  31:I2C_Accelerometer.c **** 	SYSMOD       = 0x0B,
  32:I2C_Accelerometer.c **** 	INT_SOURCE   = 0x0C,
ARM GAS  C:\Users\Jannai\AppData\Local\Temp\ccb0hbnM.s 			page 2


  33:I2C_Accelerometer.c **** 	WHO_AM_I     = 0x0D,
  34:I2C_Accelerometer.c **** 	XYZ_DATA_CFG = 0x0E,
  35:I2C_Accelerometer.c **** 
  36:I2C_Accelerometer.c **** 	PL_STATUS    = 0x10,
  37:I2C_Accelerometer.c **** 	PL_CFG       = 0x11,
  38:I2C_Accelerometer.c **** 	PL_COUNT     = 0x12,
  39:I2C_Accelerometer.c **** 
  40:I2C_Accelerometer.c **** 	CTRL_REG1    = 0x2A,
  41:I2C_Accelerometer.c **** 	CTRL_REG2    = 0x2B,
  42:I2C_Accelerometer.c **** 	CTRL_REG3    = 0x2C,
  43:I2C_Accelerometer.c **** 	CTRL_REG4    = 0x2D,
  44:I2C_Accelerometer.c **** 	CTRL_REG5    = 0x2E,
  45:I2C_Accelerometer.c **** 
  46:I2C_Accelerometer.c **** 	OFF_X        = 0x2F,
  47:I2C_Accelerometer.c **** 	OFF_Y        = 0x30,
  48:I2C_Accelerometer.c **** 	OFF_Z        = 0x31
  49:I2C_Accelerometer.c **** };
  50:I2C_Accelerometer.c **** 
  51:I2C_Accelerometer.c **** enum MMA8452Q_STATUS {
  52:I2C_Accelerometer.c **** 	ZYX_OW = 0b10000000,
  53:I2C_Accelerometer.c **** 	Z_OW   = 0b01000000,
  54:I2C_Accelerometer.c **** 	Y_OW   = 0b00100000,
  55:I2C_Accelerometer.c **** 	X_OW   = 0b00010000,
  56:I2C_Accelerometer.c **** 	ZYX_DR = 0b00001000,
  57:I2C_Accelerometer.c **** 	Z_DR   = 0b00000100,
  58:I2C_Accelerometer.c **** 	Y_DR   = 0b00000010,
  59:I2C_Accelerometer.c **** 	X_DR   = 0b00000001
  60:I2C_Accelerometer.c **** };
  61:I2C_Accelerometer.c **** 
  62:I2C_Accelerometer.c **** enum MMA8452Q_CTRL_REG1 {
  63:I2C_Accelerometer.c **** 	ACTIVE = 0,
  64:I2C_Accelerometer.c **** 	F_READ = 1,
  65:I2C_Accelerometer.c **** 	LNOISE = 2,
  66:I2C_Accelerometer.c **** 	DR0    = 3,
  67:I2C_Accelerometer.c **** 	DR1    = 4,
  68:I2C_Accelerometer.c **** 	DR2    = 5
  69:I2C_Accelerometer.c **** };
  70:I2C_Accelerometer.c **** 
  71:I2C_Accelerometer.c **** enum MMA8452Q_CTRL_REG2 {
  72:I2C_Accelerometer.c **** 	MODS0  = 0,
  73:I2C_Accelerometer.c **** 	MODS1  = 1,
  74:I2C_Accelerometer.c **** 	SLPE   = 2,
  75:I2C_Accelerometer.c **** 	SMODS0 = 3,
  76:I2C_Accelerometer.c **** 	SMODS1 = 4,
  77:I2C_Accelerometer.c **** 	RST    = 6,
  78:I2C_Accelerometer.c **** 	ST     = 7
  79:I2C_Accelerometer.c **** };
  80:I2C_Accelerometer.c **** 
  81:I2C_Accelerometer.c **** enum MMA8452Q_CTRL_REG3 {
  82:I2C_Accelerometer.c **** 	PP_OD       = 0,
  83:I2C_Accelerometer.c **** 	IPOL        = 1,
  84:I2C_Accelerometer.c **** 	WAKE_FF_MT  = 3,
  85:I2C_Accelerometer.c **** 	WAKE_PULSE  = 4,
  86:I2C_Accelerometer.c **** 	WAKE_LNDPRT = 5,
  87:I2C_Accelerometer.c **** 	WAKE_TRANS  = 6
  88:I2C_Accelerometer.c **** };
  89:I2C_Accelerometer.c **** 
ARM GAS  C:\Users\Jannai\AppData\Local\Temp\ccb0hbnM.s 			page 3


  90:I2C_Accelerometer.c **** enum MMA8452Q_CTRL_REG4 {
  91:I2C_Accelerometer.c **** 	INT_EN_DRDY   = 0,
  92:I2C_Accelerometer.c **** 	INT_EN_FF_MT  = 2,
  93:I2C_Accelerometer.c **** 	INT_EN_PULSE  = 3,
  94:I2C_Accelerometer.c **** 	INT_EN_LNDPRT = 4,
  95:I2C_Accelerometer.c **** 	INT_EN_TRANS  = 5,
  96:I2C_Accelerometer.c **** 	INT_EN_ASLP   = 7
  97:I2C_Accelerometer.c **** };
  98:I2C_Accelerometer.c **** 
  99:I2C_Accelerometer.c **** enum MMA8452Q_CTRL_REG5 {
 100:I2C_Accelerometer.c **** 	INT_CFG_DRDY   = 0,
 101:I2C_Accelerometer.c **** 	INT_CFG_FF_MT  = 2,
 102:I2C_Accelerometer.c **** 	INT_CFG_PULSE  = 3,
 103:I2C_Accelerometer.c **** 	INT_CFG_LNDPRT = 4,
 104:I2C_Accelerometer.c **** 	INT_CFG_TRANS  = 5,
 105:I2C_Accelerometer.c **** 	INT_CFG_ASLP   = 7
 106:I2C_Accelerometer.c **** };
 107:I2C_Accelerometer.c **** 
 108:I2C_Accelerometer.c **** enum MMA8452Q_PL_STATUS {
 109:I2C_Accelerometer.c **** 	BAFRO = 0,
 110:I2C_Accelerometer.c **** 	LAPO0 = 1,
 111:I2C_Accelerometer.c **** 	LAPO1 = 2,
 112:I2C_Accelerometer.c **** 	LO    = 6,
 113:I2C_Accelerometer.c **** 	NEWLP = 7
 114:I2C_Accelerometer.c **** };
 115:I2C_Accelerometer.c **** 
 116:I2C_Accelerometer.c **** enum MMA8452Q_PL_CFG {
 117:I2C_Accelerometer.c **** 	PL_EN  = 6,
 118:I2C_Accelerometer.c **** 	DBCNTM = 7
 119:I2C_Accelerometer.c **** };
 120:I2C_Accelerometer.c **** 
 121:I2C_Accelerometer.c **** 
 122:I2C_Accelerometer.c **** 
 123:I2C_Accelerometer.c **** 
 124:I2C_Accelerometer.c **** 
 125:I2C_Accelerometer.c **** bool bitRead(uint8 byte, uint8 bit)
 126:I2C_Accelerometer.c **** {
  26              		.loc 1 126 0
  27              		.cfi_startproc
  28              	.LVL0:
 127:I2C_Accelerometer.c ****     //bool bitVal = (byte & (1 << (bit-1))) != 0;
 128:I2C_Accelerometer.c ****     bool bitVal = (byte & (1 << bit)) != 0;
  29              		.loc 1 128 0
  30 0000 0841     		asr	r0, r0, r1
  31              	.LVL1:
  32 0002 0121     		mov	r1, #1
  33              	.LVL2:
  34 0004 0840     		and	r0, r1
  35              	.LVL3:
 129:I2C_Accelerometer.c ****     return bitVal;
 130:I2C_Accelerometer.c **** }
  36              		.loc 1 130 0
  37              		@ sp needed
  38 0006 7047     		bx	lr
  39              		.cfi_endproc
  40              	.LFE37:
  41              		.size	bitRead, .-bitRead
ARM GAS  C:\Users\Jannai\AppData\Local\Temp\ccb0hbnM.s 			page 4


  42              		.section	.text.bitReadFromUint16,"ax",%progbits
  43              		.align	2
  44              		.global	bitReadFromUint16
  45              		.code	16
  46              		.thumb_func
  47              		.type	bitReadFromUint16, %function
  48              	bitReadFromUint16:
  49              	.LFB38:
 131:I2C_Accelerometer.c **** 
 132:I2C_Accelerometer.c **** bool bitReadFromUint16(uint16 variable, uint8 bit)
 133:I2C_Accelerometer.c **** {
  50              		.loc 1 133 0
  51              		.cfi_startproc
  52              	.LVL4:
 134:I2C_Accelerometer.c ****     bool bitVal = (variable & (1 << (bit-1))) != 0;
  53              		.loc 1 134 0
  54 0000 0139     		sub	r1, r1, #1
  55              	.LVL5:
  56 0002 0841     		asr	r0, r0, r1
  57              	.LVL6:
  58 0004 0121     		mov	r1, #1
  59 0006 0840     		and	r0, r1
  60              	.LVL7:
 135:I2C_Accelerometer.c ****     return bitVal;    
 136:I2C_Accelerometer.c **** }
  61              		.loc 1 136 0
  62              		@ sp needed
  63 0008 7047     		bx	lr
  64              		.cfi_endproc
  65              	.LFE38:
  66              		.size	bitReadFromUint16, .-bitReadFromUint16
  67              		.section	.text.bitWrite,"ax",%progbits
  68              		.align	2
  69              		.global	bitWrite
  70              		.code	16
  71              		.thumb_func
  72              		.type	bitWrite, %function
  73              	bitWrite:
  74              	.LFB39:
 137:I2C_Accelerometer.c **** 
 138:I2C_Accelerometer.c **** 
 139:I2C_Accelerometer.c **** uint8 bitWrite(uint8 byte, uint8 bitNumber, bool value)
 140:I2C_Accelerometer.c **** {
  75              		.loc 1 140 0
  76              		.cfi_startproc
  77              	.LVL8:
 141:I2C_Accelerometer.c ****     
 142:I2C_Accelerometer.c ****     //setting a bit to 0 differs from setting a bit to 1
 143:I2C_Accelerometer.c ****     if(value)
  78              		.loc 1 143 0
  79 0000 002A     		cmp	r2, #0
  80 0002 04D0     		beq	.L4
 144:I2C_Accelerometer.c ****     {
 145:I2C_Accelerometer.c ****         byte |= 1 << bitNumber;
  81              		.loc 1 145 0
  82 0004 0123     		mov	r3, #1
  83 0006 8B40     		lsl	r3, r3, r1
ARM GAS  C:\Users\Jannai\AppData\Local\Temp\ccb0hbnM.s 			page 5


  84 0008 1843     		orr	r0, r3
  85              	.LVL9:
  86 000a C0B2     		uxtb	r0, r0
  87              	.LVL10:
  88 000c 02E0     		b	.L5
  89              	.L4:
 146:I2C_Accelerometer.c ****     }
 147:I2C_Accelerometer.c ****     else
 148:I2C_Accelerometer.c ****     {
 149:I2C_Accelerometer.c ****         byte &= ~(1 << bitNumber);
  90              		.loc 1 149 0
  91 000e 0123     		mov	r3, #1
  92 0010 8B40     		lsl	r3, r3, r1
  93 0012 9843     		bic	r0, r3
  94              	.LVL11:
  95              	.L5:
 150:I2C_Accelerometer.c ****     }
 151:I2C_Accelerometer.c ****     
 152:I2C_Accelerometer.c ****     //sprintf(debugStr,"byte before: %i ", byte); SW_TX_PutString(debugStr);
 153:I2C_Accelerometer.c ****     //byte ^= (-value ^ byte) & (1 << bitNumber);
 154:I2C_Accelerometer.c ****     //sprintf(debugStr," byte after: %i ", byte); SW_TX_PutString(debugStr);SW_TX_PutCRLF();
 155:I2C_Accelerometer.c ****     
 156:I2C_Accelerometer.c ****     return byte;
 157:I2C_Accelerometer.c ****     
 158:I2C_Accelerometer.c ****    
 159:I2C_Accelerometer.c **** }
  96              		.loc 1 159 0
  97              		@ sp needed
  98 0014 7047     		bx	lr
  99              		.cfi_endproc
 100              	.LFE39:
 101              		.size	bitWrite, .-bitWrite
 102 0016 C046     		.section	.text.registerSetBit,"ax",%progbits
 103              		.align	2
 104              		.code	16
 105              		.thumb_func
 106              		.type	registerSetBit, %function
 107              	registerSetBit:
 108              	.LFB44:
 160:I2C_Accelerometer.c **** 
 161:I2C_Accelerometer.c **** static inline uint8 registerRead(uint8 addr) 
 162:I2C_Accelerometer.c **** {      
 163:I2C_Accelerometer.c ****     
 164:I2C_Accelerometer.c ****     
 165:I2C_Accelerometer.c ****     //clear master status
 166:I2C_Accelerometer.c ****     uint8 status = I2CM_I2CMasterClearStatus();
 167:I2C_Accelerometer.c ****     //debugI2CMasterStatus(status);
 168:I2C_Accelerometer.c ****     
 169:I2C_Accelerometer.c ****     uint8 indicator = I2CM_I2CMasterSendStart(MMA8452Q_ADDRESS, I2CM_I2C_WRITE_XFER_MODE);
 170:I2C_Accelerometer.c ****     //debugI2CTransfer(indicator);
 171:I2C_Accelerometer.c ****     
 172:I2C_Accelerometer.c ****     //do transfer if ready
 173:I2C_Accelerometer.c ****     if(indicator == I2CM_I2C_MSTR_NO_ERROR)
 174:I2C_Accelerometer.c ****     {
 175:I2C_Accelerometer.c ****         I2CM_I2CMasterWriteByte(addr);
 176:I2C_Accelerometer.c ****         //debugI2CTransfer(indicator);
 177:I2C_Accelerometer.c ****     }
ARM GAS  C:\Users\Jannai\AppData\Local\Temp\ccb0hbnM.s 			page 6


 178:I2C_Accelerometer.c ****     else
 179:I2C_Accelerometer.c ****     {
 180:I2C_Accelerometer.c ****         SW_TX_PutString("Could not beginn I2C transmittion (acc), write aborted"); SW_TX_PutCRLF();
 181:I2C_Accelerometer.c ****     }
 182:I2C_Accelerometer.c ****     
 183:I2C_Accelerometer.c ****     I2CM_I2CMasterSendRestart(MMA8452Q_ADDRESS, I2CM_I2C_READ_XFER_MODE);
 184:I2C_Accelerometer.c ****     uint8 data = I2CM_I2CMasterReadByte(I2CM_I2C_NAK_DATA);
 185:I2C_Accelerometer.c ****     I2CM_I2CMasterSendStop();
 186:I2C_Accelerometer.c ****     return data;	
 187:I2C_Accelerometer.c **** }
 188:I2C_Accelerometer.c **** 
 189:I2C_Accelerometer.c **** static inline void registersRead(uint8_t registerAddr, uint8_t data[], size_t count) {
 190:I2C_Accelerometer.c **** 	//clear master status
 191:I2C_Accelerometer.c ****     uint8 status = I2CM_I2CMasterClearStatus();
 192:I2C_Accelerometer.c ****     //debugI2CMasterStatus(status);
 193:I2C_Accelerometer.c ****     
 194:I2C_Accelerometer.c ****     uint8 indicator = I2CM_I2CMasterSendStart(MMA8452Q_ADDRESS, I2CM_I2C_WRITE_XFER_MODE);
 195:I2C_Accelerometer.c ****     //debugI2CTransfer(indicator);
 196:I2C_Accelerometer.c ****     
 197:I2C_Accelerometer.c ****     //do transfer if ready
 198:I2C_Accelerometer.c ****     if(indicator == I2CM_I2C_MSTR_NO_ERROR)
 199:I2C_Accelerometer.c ****     {
 200:I2C_Accelerometer.c ****         I2CM_I2CMasterWriteByte(registerAddr);
 201:I2C_Accelerometer.c ****         //debugI2CTransfer(indicator);
 202:I2C_Accelerometer.c ****     }
 203:I2C_Accelerometer.c ****     else
 204:I2C_Accelerometer.c ****     {
 205:I2C_Accelerometer.c ****         SW_TX_PutString("Could not beginn I2C transmittion (acc), write aborted"); SW_TX_PutCRLF();
 206:I2C_Accelerometer.c ****     }
 207:I2C_Accelerometer.c ****     I2CM_I2CMasterSendRestart(MMA8452Q_ADDRESS, I2CM_I2C_READ_XFER_MODE);
 208:I2C_Accelerometer.c **** 
 209:I2C_Accelerometer.c **** 	
 210:I2C_Accelerometer.c ****     uint8 i =0;
 211:I2C_Accelerometer.c **** 	for (i = 0; i < count; i++)
 212:I2C_Accelerometer.c ****     {
 213:I2C_Accelerometer.c ****         if(i < count-1)
 214:I2C_Accelerometer.c ****         {
 215:I2C_Accelerometer.c ****             //I2CM_I2CMasterSendRestart(MMA8452Q_ADDRESS, I2CM_I2C_READ_XFER_MODE);
 216:I2C_Accelerometer.c ****             data[i] = I2CM_I2CMasterReadByte(I2CM_I2C_ACK_DATA);
 217:I2C_Accelerometer.c ****             
 218:I2C_Accelerometer.c ****         }
 219:I2C_Accelerometer.c ****         else//last one with NAK
 220:I2C_Accelerometer.c ****         {
 221:I2C_Accelerometer.c ****             data[i] = I2CM_I2CMasterReadByte(I2CM_I2C_NAK_DATA);
 222:I2C_Accelerometer.c ****         }
 223:I2C_Accelerometer.c ****         
 224:I2C_Accelerometer.c ****         sprintf(debugStr," %i ", data[i]);
 225:I2C_Accelerometer.c ****         SW_TX_PutString(debugStr);
 226:I2C_Accelerometer.c ****     }
 227:I2C_Accelerometer.c ****     SW_TX_PutCRLF();
 228:I2C_Accelerometer.c **** }
 229:I2C_Accelerometer.c **** 
 230:I2C_Accelerometer.c **** static inline void registerWrite(uint8_t addr, uint8_t value) {    
 231:I2C_Accelerometer.c ****     I2CM_I2CMasterClearStatus();
 232:I2C_Accelerometer.c ****     I2CM_I2CMasterSendStart(MMA8452Q_ADDRESS, I2CM_I2C_WRITE_XFER_MODE);
 233:I2C_Accelerometer.c ****     I2CM_I2CMasterWriteByte(addr);
 234:I2C_Accelerometer.c ****     I2CM_I2CMasterWriteByte(value);
ARM GAS  C:\Users\Jannai\AppData\Local\Temp\ccb0hbnM.s 			page 7


 235:I2C_Accelerometer.c ****     I2CM_I2CMasterSendStop();
 236:I2C_Accelerometer.c **** }
 237:I2C_Accelerometer.c **** 
 238:I2C_Accelerometer.c **** static inline void registersWrite(uint8_t addr, uint8_t data[], uint8 count) {
 239:I2C_Accelerometer.c **** 	I2CM_I2CMasterClearStatus();
 240:I2C_Accelerometer.c ****     I2CM_I2CMasterSendStart(MMA8452Q_ADDRESS, I2CM_I2C_WRITE_XFER_MODE);
 241:I2C_Accelerometer.c ****     I2CM_I2CMasterWriteByte(addr);
 242:I2C_Accelerometer.c ****     
 243:I2C_Accelerometer.c ****     uint8 i;
 244:I2C_Accelerometer.c **** 	for (i = 0; i < count; i++)
 245:I2C_Accelerometer.c **** 		I2CM_I2CMasterWriteByte(data[i]);
 246:I2C_Accelerometer.c **** 
 247:I2C_Accelerometer.c **** 	I2CM_I2CMasterSendStop();
 248:I2C_Accelerometer.c **** }
 249:I2C_Accelerometer.c **** 
 250:I2C_Accelerometer.c **** static void registerSetBit(uint8_t addr, uint8_t bit, bool value) 
 251:I2C_Accelerometer.c **** {
 109              		.loc 1 251 0
 110              		.cfi_startproc
 111              	.LVL12:
 112 0000 F0B5     		push	{r4, r5, r6, r7, lr}
 113              		.cfi_def_cfa_offset 20
 114              		.cfi_offset 4, -20
 115              		.cfi_offset 5, -16
 116              		.cfi_offset 6, -12
 117              		.cfi_offset 7, -8
 118              		.cfi_offset 14, -4
 119 0002 83B0     		sub	sp, sp, #12
 120              		.cfi_def_cfa_offset 32
 121 0004 0190     		str	r0, [sp, #4]
 122 0006 0091     		str	r1, [sp]
 123 0008 171C     		mov	r7, r2
 252:I2C_Accelerometer.c ****     sprintf(debugStr,"trying to set bit# %i to 0  %i ",bit, value); SW_TX_PutString(debugStr);
 124              		.loc 1 252 0
 125 000a 374C     		ldr	r4, .L13
 126 000c 201C     		mov	r0, r4
 127              	.LVL13:
 128 000e 3749     		ldr	r1, .L13+4
 129              	.LVL14:
 130 0010 009A     		ldr	r2, [sp]
 131              	.LVL15:
 132 0012 3B1C     		mov	r3, r7
 133 0014 FFF7FEFF 		bl	sprintf
 134              	.LVL16:
 135 0018 201C     		mov	r0, r4
 136 001a FFF7FEFF 		bl	SW_TX_PutString
 137              	.LVL17:
 253:I2C_Accelerometer.c ****     SW_TX_PutCRLF();
 138              		.loc 1 253 0
 139 001e FFF7FEFF 		bl	SW_TX_PutCRLF
 140              	.LVL18:
 141              	.LBB6:
 142              	.LBB7:
 166:I2C_Accelerometer.c ****     //debugI2CMasterStatus(status);
 143              		.loc 1 166 0
 144 0022 FFF7FEFF 		bl	I2CM_I2CMasterClearStatus
 145              	.LVL19:
ARM GAS  C:\Users\Jannai\AppData\Local\Temp\ccb0hbnM.s 			page 8


 169:I2C_Accelerometer.c ****     //debugI2CTransfer(indicator);
 146              		.loc 1 169 0
 147 0026 1D20     		mov	r0, #29
 148 0028 0021     		mov	r1, #0
 149 002a FFF7FEFF 		bl	I2CM_I2CMasterSendStart
 150              	.LVL20:
 151 002e C0B2     		uxtb	r0, r0
 152              	.LVL21:
 173:I2C_Accelerometer.c ****     {
 153              		.loc 1 173 0
 154 0030 0028     		cmp	r0, #0
 155 0032 03D1     		bne	.L7
 175:I2C_Accelerometer.c ****         //debugI2CTransfer(indicator);
 156              		.loc 1 175 0
 157 0034 0198     		ldr	r0, [sp, #4]
 158              	.LVL22:
 159 0036 FFF7FEFF 		bl	I2CM_I2CMasterWriteByte
 160              	.LVL23:
 161 003a 04E0     		b	.L8
 162              	.LVL24:
 163              	.L7:
 180:I2C_Accelerometer.c ****     }
 164              		.loc 1 180 0
 165 003c 2C48     		ldr	r0, .L13+8
 166              	.LVL25:
 167 003e FFF7FEFF 		bl	SW_TX_PutString
 168              	.LVL26:
 169 0042 FFF7FEFF 		bl	SW_TX_PutCRLF
 170              	.LVL27:
 171              	.L8:
 183:I2C_Accelerometer.c ****     uint8 data = I2CM_I2CMasterReadByte(I2CM_I2C_NAK_DATA);
 172              		.loc 1 183 0
 173 0046 1D20     		mov	r0, #29
 174 0048 0121     		mov	r1, #1
 175 004a FFF7FEFF 		bl	I2CM_I2CMasterSendRestart
 176              	.LVL28:
 184:I2C_Accelerometer.c ****     I2CM_I2CMasterSendStop();
 177              		.loc 1 184 0
 178 004e 0120     		mov	r0, #1
 179 0050 FFF7FEFF 		bl	I2CM_I2CMasterReadByte
 180              	.LVL29:
 181 0054 C5B2     		uxtb	r5, r0
 182              	.LVL30:
 185:I2C_Accelerometer.c ****     return data;	
 183              		.loc 1 185 0
 184 0056 FFF7FEFF 		bl	I2CM_I2CMasterSendStop
 185              	.LVL31:
 186              	.LBE7:
 187              	.LBE6:
 254:I2C_Accelerometer.c ****     
 255:I2C_Accelerometer.c ****     //reads byte in register, changes selected bit, sends it back
 256:I2C_Accelerometer.c **** 	uint8 regByte = registerRead(addr);
 257:I2C_Accelerometer.c ****     
 258:I2C_Accelerometer.c ****     //sprintf(debugStr,"regByte before: %i ", regByte); SW_TX_PutString(debugStr);
 259:I2C_Accelerometer.c ****     
 260:I2C_Accelerometer.c ****     SW_TX_PutString("regSetBit register was: ");
 188              		.loc 1 260 0
ARM GAS  C:\Users\Jannai\AppData\Local\Temp\ccb0hbnM.s 			page 9


 189 005a 2648     		ldr	r0, .L13+12
 190 005c FFF7FEFF 		bl	SW_TX_PutString
 191              	.LVL32:
 261:I2C_Accelerometer.c ****     uint8 j=0;
 262:I2C_Accelerometer.c ****     bool helper;
 263:I2C_Accelerometer.c ****     for(j=0;j<8;j++)
 192              		.loc 1 263 0
 193 0060 0026     		mov	r6, #0
 194 0062 0EE0     		b	.L9
 195              	.LVL33:
 196              	.L10:
 264:I2C_Accelerometer.c ****     {
 265:I2C_Accelerometer.c ****         helper = bitRead(regByte, j);
 197              		.loc 1 265 0 discriminator 3
 198 0064 281C     		mov	r0, r5
 199 0066 311C     		mov	r1, r6
 200 0068 FFF7FEFF 		bl	bitRead
 201              	.LVL34:
 202 006c 021C     		mov	r2, r0
 203              	.LVL35:
 266:I2C_Accelerometer.c ****         sprintf(debugStr," %i ", helper); SW_TX_PutString(debugStr);
 204              		.loc 1 266 0 discriminator 3
 205 006e 1E4C     		ldr	r4, .L13
 206 0070 201C     		mov	r0, r4
 207 0072 2149     		ldr	r1, .L13+16
 208 0074 FFF7FEFF 		bl	sprintf
 209              	.LVL36:
 210 0078 201C     		mov	r0, r4
 211 007a FFF7FEFF 		bl	SW_TX_PutString
 212              	.LVL37:
 263:I2C_Accelerometer.c ****     {
 213              		.loc 1 263 0 discriminator 3
 214 007e 731C     		add	r3, r6, #1
 215 0080 DEB2     		uxtb	r6, r3
 216              	.LVL38:
 217              	.L9:
 263:I2C_Accelerometer.c ****     {
 218              		.loc 1 263 0 is_stmt 0 discriminator 1
 219 0082 072E     		cmp	r6, #7
 220 0084 EED9     		bls	.L10
 267:I2C_Accelerometer.c ****     }
 268:I2C_Accelerometer.c ****     SW_TX_PutCRLF();
 221              		.loc 1 268 0 is_stmt 1
 222 0086 FFF7FEFF 		bl	SW_TX_PutCRLF
 223              	.LVL39:
 269:I2C_Accelerometer.c ****     
 270:I2C_Accelerometer.c ****     
 271:I2C_Accelerometer.c ****     //change the desired bit
 272:I2C_Accelerometer.c ****     regByte = bitWrite(regByte, bit, value);
 224              		.loc 1 272 0
 225 008a 281C     		mov	r0, r5
 226 008c 0099     		ldr	r1, [sp]
 227 008e 3A1C     		mov	r2, r7
 228 0090 FFF7FEFF 		bl	bitWrite
 229              	.LVL40:
 230 0094 061C     		mov	r6, r0
 231              	.LVL41:
ARM GAS  C:\Users\Jannai\AppData\Local\Temp\ccb0hbnM.s 			page 10


 232 0096 051C     		mov	r5, r0
 233              	.LVL42:
 273:I2C_Accelerometer.c ****     
 274:I2C_Accelerometer.c ****     //sprintf(debugStr,"regByte after: %i ", regByte); SW_TX_PutString(debugStr);
 275:I2C_Accelerometer.c ****     
 276:I2C_Accelerometer.c ****     SW_TX_PutString("regSetBit register is : ");
 234              		.loc 1 276 0
 235 0098 1848     		ldr	r0, .L13+20
 236 009a FFF7FEFF 		bl	SW_TX_PutString
 237              	.LVL43:
 277:I2C_Accelerometer.c ****     for(j=0;j<8;j++)
 238              		.loc 1 277 0
 239 009e 0027     		mov	r7, #0
 240 00a0 0EE0     		b	.L11
 241              	.LVL44:
 242              	.L12:
 278:I2C_Accelerometer.c ****     {
 279:I2C_Accelerometer.c ****         helper = bitRead(regByte, j);
 243              		.loc 1 279 0 discriminator 3
 244 00a2 281C     		mov	r0, r5
 245 00a4 391C     		mov	r1, r7
 246 00a6 FFF7FEFF 		bl	bitRead
 247              	.LVL45:
 248 00aa 021C     		mov	r2, r0
 249              	.LVL46:
 280:I2C_Accelerometer.c ****         sprintf(debugStr," %i ", helper); SW_TX_PutString(debugStr);
 250              		.loc 1 280 0 discriminator 3
 251 00ac 0E4C     		ldr	r4, .L13
 252 00ae 201C     		mov	r0, r4
 253 00b0 1149     		ldr	r1, .L13+16
 254 00b2 FFF7FEFF 		bl	sprintf
 255              	.LVL47:
 256 00b6 201C     		mov	r0, r4
 257 00b8 FFF7FEFF 		bl	SW_TX_PutString
 258              	.LVL48:
 277:I2C_Accelerometer.c ****     for(j=0;j<8;j++)
 259              		.loc 1 277 0 discriminator 3
 260 00bc 7B1C     		add	r3, r7, #1
 261 00be DFB2     		uxtb	r7, r3
 262              	.LVL49:
 263              	.L11:
 277:I2C_Accelerometer.c ****     for(j=0;j<8;j++)
 264              		.loc 1 277 0 is_stmt 0 discriminator 1
 265 00c0 072F     		cmp	r7, #7
 266 00c2 EED9     		bls	.L12
 281:I2C_Accelerometer.c ****     }
 282:I2C_Accelerometer.c ****     
 283:I2C_Accelerometer.c ****     SW_TX_PutCRLF();
 267              		.loc 1 283 0 is_stmt 1
 268 00c4 FFF7FEFF 		bl	SW_TX_PutCRLF
 269              	.LVL50:
 270              	.LBB8:
 271              	.LBB9:
 231:I2C_Accelerometer.c ****     I2CM_I2CMasterSendStart(MMA8452Q_ADDRESS, I2CM_I2C_WRITE_XFER_MODE);
 272              		.loc 1 231 0
 273 00c8 FFF7FEFF 		bl	I2CM_I2CMasterClearStatus
 274              	.LVL51:
ARM GAS  C:\Users\Jannai\AppData\Local\Temp\ccb0hbnM.s 			page 11


 232:I2C_Accelerometer.c ****     I2CM_I2CMasterWriteByte(addr);
 275              		.loc 1 232 0
 276 00cc 1D20     		mov	r0, #29
 277 00ce 0021     		mov	r1, #0
 278 00d0 FFF7FEFF 		bl	I2CM_I2CMasterSendStart
 279              	.LVL52:
 233:I2C_Accelerometer.c ****     I2CM_I2CMasterWriteByte(value);
 280              		.loc 1 233 0
 281 00d4 0198     		ldr	r0, [sp, #4]
 282 00d6 FFF7FEFF 		bl	I2CM_I2CMasterWriteByte
 283              	.LVL53:
 234:I2C_Accelerometer.c ****     I2CM_I2CMasterSendStop();
 284              		.loc 1 234 0
 285 00da 301C     		mov	r0, r6
 286 00dc FFF7FEFF 		bl	I2CM_I2CMasterWriteByte
 287              	.LVL54:
 235:I2C_Accelerometer.c **** }
 288              		.loc 1 235 0
 289 00e0 FFF7FEFF 		bl	I2CM_I2CMasterSendStop
 290              	.LVL55:
 291              	.LBE9:
 292              	.LBE8:
 284:I2C_Accelerometer.c **** 	
 285:I2C_Accelerometer.c **** 	registerWrite(addr, regByte);
 286:I2C_Accelerometer.c **** }
 293              		.loc 1 286 0
 294 00e4 03B0     		add	sp, sp, #12
 295              		@ sp needed
 296              	.LVL56:
 297              	.LVL57:
 298 00e6 F0BD     		pop	{r4, r5, r6, r7, pc}
 299              	.L14:
 300              		.align	2
 301              	.L13:
 302 00e8 00000000 		.word	debugStr
 303 00ec 00000000 		.word	.LC1
 304 00f0 20000000 		.word	.LC3
 305 00f4 58000000 		.word	.LC5
 306 00f8 74000000 		.word	.LC7
 307 00fc 7C000000 		.word	.LC9
 308              		.cfi_endproc
 309              	.LFE44:
 310              		.size	registerSetBit, .-registerSetBit
 311              		.section	.text.acc_begin,"ax",%progbits
 312              		.align	2
 313              		.global	acc_begin
 314              		.code	16
 315              		.thumb_func
 316              		.type	acc_begin, %function
 317              	acc_begin:
 318              	.LFB45:
 287:I2C_Accelerometer.c **** 
 288:I2C_Accelerometer.c **** 
 289:I2C_Accelerometer.c **** int acc_begin(void) {
 319              		.loc 1 289 0
 320              		.cfi_startproc
 321 0000 10B5     		push	{r4, lr}
ARM GAS  C:\Users\Jannai\AppData\Local\Temp\ccb0hbnM.s 			page 12


 322              		.cfi_def_cfa_offset 8
 323              		.cfi_offset 4, -8
 324              		.cfi_offset 14, -4
 325              	.LVL58:
 326              	.LBB12:
 327              	.LBB13:
 166:I2C_Accelerometer.c ****     //debugI2CMasterStatus(status);
 328              		.loc 1 166 0
 329 0002 FFF7FEFF 		bl	I2CM_I2CMasterClearStatus
 330              	.LVL59:
 169:I2C_Accelerometer.c ****     //debugI2CTransfer(indicator);
 331              		.loc 1 169 0
 332 0006 1D20     		mov	r0, #29
 333 0008 0021     		mov	r1, #0
 334 000a FFF7FEFF 		bl	I2CM_I2CMasterSendStart
 335              	.LVL60:
 336 000e C0B2     		uxtb	r0, r0
 337              	.LVL61:
 173:I2C_Accelerometer.c ****     {
 338              		.loc 1 173 0
 339 0010 0028     		cmp	r0, #0
 340 0012 03D1     		bne	.L16
 175:I2C_Accelerometer.c ****         //debugI2CTransfer(indicator);
 341              		.loc 1 175 0
 342 0014 0D30     		add	r0, r0, #13
 343              	.LVL62:
 344 0016 FFF7FEFF 		bl	I2CM_I2CMasterWriteByte
 345              	.LVL63:
 346 001a 04E0     		b	.L17
 347              	.LVL64:
 348              	.L16:
 180:I2C_Accelerometer.c ****     }
 349              		.loc 1 180 0
 350 001c 0A48     		ldr	r0, .L20
 351              	.LVL65:
 352 001e FFF7FEFF 		bl	SW_TX_PutString
 353              	.LVL66:
 354 0022 FFF7FEFF 		bl	SW_TX_PutCRLF
 355              	.LVL67:
 356              	.L17:
 183:I2C_Accelerometer.c ****     uint8 data = I2CM_I2CMasterReadByte(I2CM_I2C_NAK_DATA);
 357              		.loc 1 183 0
 358 0026 1D20     		mov	r0, #29
 359 0028 0121     		mov	r1, #1
 360 002a FFF7FEFF 		bl	I2CM_I2CMasterSendRestart
 361              	.LVL68:
 184:I2C_Accelerometer.c ****     I2CM_I2CMasterSendStop();
 362              		.loc 1 184 0
 363 002e 0120     		mov	r0, #1
 364 0030 FFF7FEFF 		bl	I2CM_I2CMasterReadByte
 365              	.LVL69:
 366 0034 C4B2     		uxtb	r4, r0
 367              	.LVL70:
 185:I2C_Accelerometer.c ****     return data;	
 368              		.loc 1 185 0
 369 0036 FFF7FEFF 		bl	I2CM_I2CMasterSendStop
 370              	.LVL71:
ARM GAS  C:\Users\Jannai\AppData\Local\Temp\ccb0hbnM.s 			page 13


 371              	.LBE13:
 372              	.LBE12:
 290:I2C_Accelerometer.c **** 	uint8_t whoami;
 291:I2C_Accelerometer.c **** 
 292:I2C_Accelerometer.c **** 	whoami = registerRead(WHO_AM_I);
 293:I2C_Accelerometer.c **** 
 294:I2C_Accelerometer.c **** 	if (whoami != 0x2A)
 373              		.loc 1 294 0
 374 003a 2A2C     		cmp	r4, #42
 375 003c 02D0     		beq	.L19
 295:I2C_Accelerometer.c ****     {
 296:I2C_Accelerometer.c **** 		return -1;
 376              		.loc 1 296 0
 377 003e 0120     		mov	r0, #1
 378 0040 4042     		neg	r0, r0
 379 0042 00E0     		b	.L18
 380              	.L19:
 297:I2C_Accelerometer.c ****     }
 298:I2C_Accelerometer.c **** 	return 0;
 381              		.loc 1 298 0
 382 0044 0020     		mov	r0, #0
 383              	.L18:
 299:I2C_Accelerometer.c **** }
 384              		.loc 1 299 0
 385              		@ sp needed
 386              	.LVL72:
 387 0046 10BD     		pop	{r4, pc}
 388              	.L21:
 389              		.align	2
 390              	.L20:
 391 0048 20000000 		.word	.LC3
 392              		.cfi_endproc
 393              	.LFE45:
 394              		.size	acc_begin, .-acc_begin
 395              		.section	.text.acc_printX,"ax",%progbits
 396              		.align	2
 397              		.global	acc_printX
 398              		.code	16
 399              		.thumb_func
 400              		.type	acc_printX, %function
 401              	acc_printX:
 402              	.LFB46:
 300:I2C_Accelerometer.c **** 
 301:I2C_Accelerometer.c **** //print x axis
 302:I2C_Accelerometer.c **** void acc_printX()
 303:I2C_Accelerometer.c **** {
 403              		.loc 1 303 0
 404              		.cfi_startproc
 405 0000 38B5     		push	{r3, r4, r5, lr}
 406              		.cfi_def_cfa_offset 16
 407              		.cfi_offset 3, -16
 408              		.cfi_offset 4, -12
 409              		.cfi_offset 5, -8
 410              		.cfi_offset 14, -4
 411              	.LVL73:
 412              	.LBB18:
 413              	.LBB19:
ARM GAS  C:\Users\Jannai\AppData\Local\Temp\ccb0hbnM.s 			page 14


 166:I2C_Accelerometer.c ****     //debugI2CMasterStatus(status);
 414              		.loc 1 166 0
 415 0002 FFF7FEFF 		bl	I2CM_I2CMasterClearStatus
 416              	.LVL74:
 169:I2C_Accelerometer.c ****     //debugI2CTransfer(indicator);
 417              		.loc 1 169 0
 418 0006 1D20     		mov	r0, #29
 419 0008 0021     		mov	r1, #0
 420 000a FFF7FEFF 		bl	I2CM_I2CMasterSendStart
 421              	.LVL75:
 422 000e C0B2     		uxtb	r0, r0
 423              	.LVL76:
 173:I2C_Accelerometer.c ****     {
 424              		.loc 1 173 0
 425 0010 0028     		cmp	r0, #0
 426 0012 03D1     		bne	.L23
 175:I2C_Accelerometer.c ****         //debugI2CTransfer(indicator);
 427              		.loc 1 175 0
 428 0014 0130     		add	r0, r0, #1
 429              	.LVL77:
 430 0016 FFF7FEFF 		bl	I2CM_I2CMasterWriteByte
 431              	.LVL78:
 432 001a 04E0     		b	.L24
 433              	.LVL79:
 434              	.L23:
 180:I2C_Accelerometer.c ****     }
 435              		.loc 1 180 0
 436 001c 1C48     		ldr	r0, .L27
 437              	.LVL80:
 438 001e FFF7FEFF 		bl	SW_TX_PutString
 439              	.LVL81:
 440 0022 FFF7FEFF 		bl	SW_TX_PutCRLF
 441              	.LVL82:
 442              	.L24:
 183:I2C_Accelerometer.c ****     uint8 data = I2CM_I2CMasterReadByte(I2CM_I2C_NAK_DATA);
 443              		.loc 1 183 0
 444 0026 1D20     		mov	r0, #29
 445 0028 0121     		mov	r1, #1
 446 002a FFF7FEFF 		bl	I2CM_I2CMasterSendRestart
 447              	.LVL83:
 184:I2C_Accelerometer.c ****     I2CM_I2CMasterSendStop();
 448              		.loc 1 184 0
 449 002e 0120     		mov	r0, #1
 450 0030 FFF7FEFF 		bl	I2CM_I2CMasterReadByte
 451              	.LVL84:
 452 0034 C5B2     		uxtb	r5, r0
 453              	.LVL85:
 185:I2C_Accelerometer.c ****     return data;	
 454              		.loc 1 185 0
 455 0036 FFF7FEFF 		bl	I2CM_I2CMasterSendStop
 456              	.LVL86:
 457              	.LBE19:
 458              	.LBE18:
 304:I2C_Accelerometer.c ****     uint16 xVal = 0;
 305:I2C_Accelerometer.c ****     uint8 helper = 0;
 306:I2C_Accelerometer.c ****     
 307:I2C_Accelerometer.c ****     //read most signifaicant byte
ARM GAS  C:\Users\Jannai\AppData\Local\Temp\ccb0hbnM.s 			page 15


 308:I2C_Accelerometer.c ****     helper = registerRead(0x01u);
 309:I2C_Accelerometer.c ****     
 310:I2C_Accelerometer.c ****     //set to xVal and shift
 311:I2C_Accelerometer.c ****     
 312:I2C_Accelerometer.c ****     
 313:I2C_Accelerometer.c ****     //sprintf(debugStr," MSB %i ", helper); SW_TX_PutString(debugStr);
 314:I2C_Accelerometer.c ****     xVal = xVal | helper<<8;
 459              		.loc 1 314 0
 460 003a 2D02     		lsl	r5, r5, #8
 461              	.LVL87:
 462              	.LBB20:
 463              	.LBB21:
 166:I2C_Accelerometer.c ****     //debugI2CMasterStatus(status);
 464              		.loc 1 166 0
 465 003c FFF7FEFF 		bl	I2CM_I2CMasterClearStatus
 466              	.LVL88:
 169:I2C_Accelerometer.c ****     //debugI2CTransfer(indicator);
 467              		.loc 1 169 0
 468 0040 1D20     		mov	r0, #29
 469 0042 0021     		mov	r1, #0
 470 0044 FFF7FEFF 		bl	I2CM_I2CMasterSendStart
 471              	.LVL89:
 472 0048 C0B2     		uxtb	r0, r0
 473              	.LVL90:
 173:I2C_Accelerometer.c ****     {
 474              		.loc 1 173 0
 475 004a 0028     		cmp	r0, #0
 476 004c 03D1     		bne	.L25
 175:I2C_Accelerometer.c ****         //debugI2CTransfer(indicator);
 477              		.loc 1 175 0
 478 004e 0230     		add	r0, r0, #2
 479              	.LVL91:
 480 0050 FFF7FEFF 		bl	I2CM_I2CMasterWriteByte
 481              	.LVL92:
 482 0054 04E0     		b	.L26
 483              	.LVL93:
 484              	.L25:
 180:I2C_Accelerometer.c ****     }
 485              		.loc 1 180 0
 486 0056 0E48     		ldr	r0, .L27
 487              	.LVL94:
 488 0058 FFF7FEFF 		bl	SW_TX_PutString
 489              	.LVL95:
 490 005c FFF7FEFF 		bl	SW_TX_PutCRLF
 491              	.LVL96:
 492              	.L26:
 183:I2C_Accelerometer.c ****     uint8 data = I2CM_I2CMasterReadByte(I2CM_I2C_NAK_DATA);
 493              		.loc 1 183 0
 494 0060 1D20     		mov	r0, #29
 495 0062 0121     		mov	r1, #1
 496 0064 FFF7FEFF 		bl	I2CM_I2CMasterSendRestart
 497              	.LVL97:
 184:I2C_Accelerometer.c ****     I2CM_I2CMasterSendStop();
 498              		.loc 1 184 0
 499 0068 0120     		mov	r0, #1
 500 006a FFF7FEFF 		bl	I2CM_I2CMasterReadByte
 501              	.LVL98:
ARM GAS  C:\Users\Jannai\AppData\Local\Temp\ccb0hbnM.s 			page 16


 502 006e C4B2     		uxtb	r4, r0
 503              	.LVL99:
 185:I2C_Accelerometer.c ****     return data;	
 504              		.loc 1 185 0
 505 0070 FFF7FEFF 		bl	I2CM_I2CMasterSendStop
 506              	.LVL100:
 507              	.LBE21:
 508              	.LBE20:
 315:I2C_Accelerometer.c ****     //read least signifaicant byte
 316:I2C_Accelerometer.c ****     helper = registerRead(0x02u);
 317:I2C_Accelerometer.c ****     xVal = xVal|helper;
 509              		.loc 1 317 0
 510 0074 2A1C     		mov	r2, r5
 511 0076 2243     		orr	r2, r4
 512              	.LVL101:
 318:I2C_Accelerometer.c ****     //sprintf(debugStr," LSB %i ", helper); SW_TX_PutString(debugStr);
 319:I2C_Accelerometer.c ****     
 320:I2C_Accelerometer.c ****     //set together
 321:I2C_Accelerometer.c ****     sprintf(debugStr,"Acc X: %i ", xVal);
 513              		.loc 1 321 0
 514 0078 064C     		ldr	r4, .L27+4
 515              	.LVL102:
 516 007a 201C     		mov	r0, r4
 517 007c 0649     		ldr	r1, .L27+8
 518 007e FFF7FEFF 		bl	sprintf
 519              	.LVL103:
 322:I2C_Accelerometer.c ****     SW_TX_PutString(debugStr); 
 520              		.loc 1 322 0
 521 0082 201C     		mov	r0, r4
 522 0084 FFF7FEFF 		bl	SW_TX_PutString
 523              	.LVL104:
 323:I2C_Accelerometer.c ****     SW_TX_PutCRLF();
 524              		.loc 1 323 0
 525 0088 FFF7FEFF 		bl	SW_TX_PutCRLF
 526              	.LVL105:
 324:I2C_Accelerometer.c **** }
 527              		.loc 1 324 0
 528              		@ sp needed
 529 008c 38BD     		pop	{r3, r4, r5, pc}
 530              	.L28:
 531 008e C046     		.align	2
 532              	.L27:
 533 0090 20000000 		.word	.LC3
 534 0094 00000000 		.word	debugStr
 535 0098 98000000 		.word	.LC14
 536              		.cfi_endproc
 537              	.LFE46:
 538              		.size	acc_printX, .-acc_printX
 539              		.section	.text.acc_status,"ax",%progbits
 540              		.align	2
 541              		.global	acc_status
 542              		.code	16
 543              		.thumb_func
 544              		.type	acc_status, %function
 545              	acc_status:
 546              	.LFB47:
 325:I2C_Accelerometer.c **** 
ARM GAS  C:\Users\Jannai\AppData\Local\Temp\ccb0hbnM.s 			page 17


 326:I2C_Accelerometer.c **** 
 327:I2C_Accelerometer.c **** uint8 acc_status(void) {
 547              		.loc 1 327 0
 548              		.cfi_startproc
 549 0000 10B5     		push	{r4, lr}
 550              		.cfi_def_cfa_offset 8
 551              		.cfi_offset 4, -8
 552              		.cfi_offset 14, -4
 553              	.LVL106:
 554              	.LBB24:
 555              	.LBB25:
 166:I2C_Accelerometer.c ****     //debugI2CMasterStatus(status);
 556              		.loc 1 166 0
 557 0002 FFF7FEFF 		bl	I2CM_I2CMasterClearStatus
 558              	.LVL107:
 169:I2C_Accelerometer.c ****     //debugI2CTransfer(indicator);
 559              		.loc 1 169 0
 560 0006 1D20     		mov	r0, #29
 561 0008 0021     		mov	r1, #0
 562 000a FFF7FEFF 		bl	I2CM_I2CMasterSendStart
 563              	.LVL108:
 564 000e C0B2     		uxtb	r0, r0
 565              	.LVL109:
 173:I2C_Accelerometer.c ****     {
 566              		.loc 1 173 0
 567 0010 0028     		cmp	r0, #0
 568 0012 02D1     		bne	.L30
 175:I2C_Accelerometer.c ****         //debugI2CTransfer(indicator);
 569              		.loc 1 175 0
 570 0014 FFF7FEFF 		bl	I2CM_I2CMasterWriteByte
 571              	.LVL110:
 572 0018 04E0     		b	.L31
 573              	.LVL111:
 574              	.L30:
 180:I2C_Accelerometer.c ****     }
 575              		.loc 1 180 0
 576 001a 0848     		ldr	r0, .L32
 577              	.LVL112:
 578 001c FFF7FEFF 		bl	SW_TX_PutString
 579              	.LVL113:
 580 0020 FFF7FEFF 		bl	SW_TX_PutCRLF
 581              	.LVL114:
 582              	.L31:
 183:I2C_Accelerometer.c ****     uint8 data = I2CM_I2CMasterReadByte(I2CM_I2C_NAK_DATA);
 583              		.loc 1 183 0
 584 0024 1D20     		mov	r0, #29
 585 0026 0121     		mov	r1, #1
 586 0028 FFF7FEFF 		bl	I2CM_I2CMasterSendRestart
 587              	.LVL115:
 184:I2C_Accelerometer.c ****     I2CM_I2CMasterSendStop();
 588              		.loc 1 184 0
 589 002c 0120     		mov	r0, #1
 590 002e FFF7FEFF 		bl	I2CM_I2CMasterReadByte
 591              	.LVL116:
 592 0032 C4B2     		uxtb	r4, r0
 593              	.LVL117:
 185:I2C_Accelerometer.c ****     return data;	
ARM GAS  C:\Users\Jannai\AppData\Local\Temp\ccb0hbnM.s 			page 18


 594              		.loc 1 185 0
 595 0034 FFF7FEFF 		bl	I2CM_I2CMasterSendStop
 596              	.LVL118:
 597              	.LBE25:
 598              	.LBE24:
 328:I2C_Accelerometer.c **** 	return registerRead(STATUS);
 329:I2C_Accelerometer.c **** }
 599              		.loc 1 329 0
 600 0038 201C     		mov	r0, r4
 601              		@ sp needed
 602              	.LVL119:
 603 003a 10BD     		pop	{r4, pc}
 604              	.L33:
 605              		.align	2
 606              	.L32:
 607 003c 20000000 		.word	.LC3
 608              		.cfi_endproc
 609              	.LFE47:
 610              		.size	acc_status, .-acc_status
 611              		.section	.text.acc_sysmod,"ax",%progbits
 612              		.align	2
 613              		.global	acc_sysmod
 614              		.code	16
 615              		.thumb_func
 616              		.type	acc_sysmod, %function
 617              	acc_sysmod:
 618              	.LFB48:
 330:I2C_Accelerometer.c **** 
 331:I2C_Accelerometer.c **** uint8 acc_sysmod(void) {
 619              		.loc 1 331 0
 620              		.cfi_startproc
 621 0000 10B5     		push	{r4, lr}
 622              		.cfi_def_cfa_offset 8
 623              		.cfi_offset 4, -8
 624              		.cfi_offset 14, -4
 625              	.LVL120:
 626              	.LBB28:
 627              	.LBB29:
 166:I2C_Accelerometer.c ****     //debugI2CMasterStatus(status);
 628              		.loc 1 166 0
 629 0002 FFF7FEFF 		bl	I2CM_I2CMasterClearStatus
 630              	.LVL121:
 169:I2C_Accelerometer.c ****     //debugI2CTransfer(indicator);
 631              		.loc 1 169 0
 632 0006 1D20     		mov	r0, #29
 633 0008 0021     		mov	r1, #0
 634 000a FFF7FEFF 		bl	I2CM_I2CMasterSendStart
 635              	.LVL122:
 636 000e C0B2     		uxtb	r0, r0
 637              	.LVL123:
 173:I2C_Accelerometer.c ****     {
 638              		.loc 1 173 0
 639 0010 0028     		cmp	r0, #0
 640 0012 03D1     		bne	.L35
 175:I2C_Accelerometer.c ****         //debugI2CTransfer(indicator);
 641              		.loc 1 175 0
 642 0014 0B30     		add	r0, r0, #11
ARM GAS  C:\Users\Jannai\AppData\Local\Temp\ccb0hbnM.s 			page 19


 643              	.LVL124:
 644 0016 FFF7FEFF 		bl	I2CM_I2CMasterWriteByte
 645              	.LVL125:
 646 001a 04E0     		b	.L36
 647              	.LVL126:
 648              	.L35:
 180:I2C_Accelerometer.c ****     }
 649              		.loc 1 180 0
 650 001c 0848     		ldr	r0, .L37
 651              	.LVL127:
 652 001e FFF7FEFF 		bl	SW_TX_PutString
 653              	.LVL128:
 654 0022 FFF7FEFF 		bl	SW_TX_PutCRLF
 655              	.LVL129:
 656              	.L36:
 183:I2C_Accelerometer.c ****     uint8 data = I2CM_I2CMasterReadByte(I2CM_I2C_NAK_DATA);
 657              		.loc 1 183 0
 658 0026 1D20     		mov	r0, #29
 659 0028 0121     		mov	r1, #1
 660 002a FFF7FEFF 		bl	I2CM_I2CMasterSendRestart
 661              	.LVL130:
 184:I2C_Accelerometer.c ****     I2CM_I2CMasterSendStop();
 662              		.loc 1 184 0
 663 002e 0120     		mov	r0, #1
 664 0030 FFF7FEFF 		bl	I2CM_I2CMasterReadByte
 665              	.LVL131:
 666 0034 C4B2     		uxtb	r4, r0
 667              	.LVL132:
 185:I2C_Accelerometer.c ****     return data;	
 668              		.loc 1 185 0
 669 0036 FFF7FEFF 		bl	I2CM_I2CMasterSendStop
 670              	.LVL133:
 671              	.LBE29:
 672              	.LBE28:
 332:I2C_Accelerometer.c **** 	return registerRead(SYSMOD);
 333:I2C_Accelerometer.c **** }
 673              		.loc 1 333 0
 674 003a 201C     		mov	r0, r4
 675              		@ sp needed
 676              	.LVL134:
 677 003c 10BD     		pop	{r4, pc}
 678              	.L38:
 679 003e C046     		.align	2
 680              	.L37:
 681 0040 20000000 		.word	.LC3
 682              		.cfi_endproc
 683              	.LFE48:
 684              		.size	acc_sysmod, .-acc_sysmod
 685              		.section	.text.acc_intSource,"ax",%progbits
 686              		.align	2
 687              		.global	acc_intSource
 688              		.code	16
 689              		.thumb_func
 690              		.type	acc_intSource, %function
 691              	acc_intSource:
 692              	.LFB49:
 334:I2C_Accelerometer.c **** 
ARM GAS  C:\Users\Jannai\AppData\Local\Temp\ccb0hbnM.s 			page 20


 335:I2C_Accelerometer.c **** uint8 acc_intSource(void) {
 693              		.loc 1 335 0
 694              		.cfi_startproc
 695 0000 10B5     		push	{r4, lr}
 696              		.cfi_def_cfa_offset 8
 697              		.cfi_offset 4, -8
 698              		.cfi_offset 14, -4
 699              	.LVL135:
 700              	.LBB32:
 701              	.LBB33:
 166:I2C_Accelerometer.c ****     //debugI2CMasterStatus(status);
 702              		.loc 1 166 0
 703 0002 FFF7FEFF 		bl	I2CM_I2CMasterClearStatus
 704              	.LVL136:
 169:I2C_Accelerometer.c ****     //debugI2CTransfer(indicator);
 705              		.loc 1 169 0
 706 0006 1D20     		mov	r0, #29
 707 0008 0021     		mov	r1, #0
 708 000a FFF7FEFF 		bl	I2CM_I2CMasterSendStart
 709              	.LVL137:
 710 000e C0B2     		uxtb	r0, r0
 711              	.LVL138:
 173:I2C_Accelerometer.c ****     {
 712              		.loc 1 173 0
 713 0010 0028     		cmp	r0, #0
 714 0012 03D1     		bne	.L40
 175:I2C_Accelerometer.c ****         //debugI2CTransfer(indicator);
 715              		.loc 1 175 0
 716 0014 0C30     		add	r0, r0, #12
 717              	.LVL139:
 718 0016 FFF7FEFF 		bl	I2CM_I2CMasterWriteByte
 719              	.LVL140:
 720 001a 04E0     		b	.L41
 721              	.LVL141:
 722              	.L40:
 180:I2C_Accelerometer.c ****     }
 723              		.loc 1 180 0
 724 001c 0848     		ldr	r0, .L42
 725              	.LVL142:
 726 001e FFF7FEFF 		bl	SW_TX_PutString
 727              	.LVL143:
 728 0022 FFF7FEFF 		bl	SW_TX_PutCRLF
 729              	.LVL144:
 730              	.L41:
 183:I2C_Accelerometer.c ****     uint8 data = I2CM_I2CMasterReadByte(I2CM_I2C_NAK_DATA);
 731              		.loc 1 183 0
 732 0026 1D20     		mov	r0, #29
 733 0028 0121     		mov	r1, #1
 734 002a FFF7FEFF 		bl	I2CM_I2CMasterSendRestart
 735              	.LVL145:
 184:I2C_Accelerometer.c ****     I2CM_I2CMasterSendStop();
 736              		.loc 1 184 0
 737 002e 0120     		mov	r0, #1
 738 0030 FFF7FEFF 		bl	I2CM_I2CMasterReadByte
 739              	.LVL146:
 740 0034 C4B2     		uxtb	r4, r0
 741              	.LVL147:
ARM GAS  C:\Users\Jannai\AppData\Local\Temp\ccb0hbnM.s 			page 21


 185:I2C_Accelerometer.c ****     return data;	
 742              		.loc 1 185 0
 743 0036 FFF7FEFF 		bl	I2CM_I2CMasterSendStop
 744              	.LVL148:
 745              	.LBE33:
 746              	.LBE32:
 336:I2C_Accelerometer.c **** 	return registerRead(INT_SOURCE);
 337:I2C_Accelerometer.c **** }
 747              		.loc 1 337 0
 748 003a 201C     		mov	r0, r4
 749              		@ sp needed
 750              	.LVL149:
 751 003c 10BD     		pop	{r4, pc}
 752              	.L43:
 753 003e C046     		.align	2
 754              	.L42:
 755 0040 20000000 		.word	.LC3
 756              		.cfi_endproc
 757              	.LFE49:
 758              		.size	acc_intSource, .-acc_intSource
 759              		.section	.text.acc_scale,"ax",%progbits
 760              		.align	2
 761              		.global	acc_scale
 762              		.code	16
 763              		.thumb_func
 764              		.type	acc_scale, %function
 765              	acc_scale:
 766              	.LFB50:
 338:I2C_Accelerometer.c **** 
 339:I2C_Accelerometer.c **** void acc_scale(uint8_t scale) {
 767              		.loc 1 339 0
 768              		.cfi_startproc
 769              	.LVL150:
 770 0000 08B5     		push	{r3, lr}
 771              		.cfi_def_cfa_offset 8
 772              		.cfi_offset 3, -8
 773              		.cfi_offset 14, -4
 774              	.LVL151:
 775              	.LBB36:
 776              	.LBB37:
 166:I2C_Accelerometer.c ****     //debugI2CMasterStatus(status);
 777              		.loc 1 166 0
 778 0002 FFF7FEFF 		bl	I2CM_I2CMasterClearStatus
 779              	.LVL152:
 169:I2C_Accelerometer.c ****     //debugI2CTransfer(indicator);
 780              		.loc 1 169 0
 781 0006 1D20     		mov	r0, #29
 782 0008 0021     		mov	r1, #0
 783 000a FFF7FEFF 		bl	I2CM_I2CMasterSendStart
 784              	.LVL153:
 785 000e C0B2     		uxtb	r0, r0
 786              	.LVL154:
 173:I2C_Accelerometer.c ****     {
 787              		.loc 1 173 0
 788 0010 0028     		cmp	r0, #0
 789 0012 03D1     		bne	.L45
 175:I2C_Accelerometer.c ****         //debugI2CTransfer(indicator);
ARM GAS  C:\Users\Jannai\AppData\Local\Temp\ccb0hbnM.s 			page 22


 790              		.loc 1 175 0
 791 0014 0E30     		add	r0, r0, #14
 792              	.LVL155:
 793 0016 FFF7FEFF 		bl	I2CM_I2CMasterWriteByte
 794              	.LVL156:
 795 001a 04E0     		b	.L46
 796              	.LVL157:
 797              	.L45:
 180:I2C_Accelerometer.c ****     }
 798              		.loc 1 180 0
 799 001c 0748     		ldr	r0, .L47
 800              	.LVL158:
 801 001e FFF7FEFF 		bl	SW_TX_PutString
 802              	.LVL159:
 803 0022 FFF7FEFF 		bl	SW_TX_PutCRLF
 804              	.LVL160:
 805              	.L46:
 183:I2C_Accelerometer.c ****     uint8 data = I2CM_I2CMasterReadByte(I2CM_I2C_NAK_DATA);
 806              		.loc 1 183 0
 807 0026 1D20     		mov	r0, #29
 808 0028 0121     		mov	r1, #1
 809 002a FFF7FEFF 		bl	I2CM_I2CMasterSendRestart
 810              	.LVL161:
 184:I2C_Accelerometer.c ****     I2CM_I2CMasterSendStop();
 811              		.loc 1 184 0
 812 002e 0120     		mov	r0, #1
 813 0030 FFF7FEFF 		bl	I2CM_I2CMasterReadByte
 814              	.LVL162:
 185:I2C_Accelerometer.c ****     return data;	
 815              		.loc 1 185 0
 816 0034 FFF7FEFF 		bl	I2CM_I2CMasterSendStop
 817              	.LVL163:
 818              	.LBE37:
 819              	.LBE36:
 340:I2C_Accelerometer.c **** 	uint8_t value = registerRead(XYZ_DATA_CFG);
 341:I2C_Accelerometer.c **** 	switch (scale) {
 342:I2C_Accelerometer.c **** 		case 2: bitWrite(value, 0, 0); bitWrite(value, 1, 0); break;
 343:I2C_Accelerometer.c **** 		case 4: bitWrite(value, 0, 1); bitWrite(value, 1, 0); break;
 344:I2C_Accelerometer.c **** 		case 8: bitWrite(value, 0, 0); bitWrite(value, 1, 1); break;
 345:I2C_Accelerometer.c **** 	}
 346:I2C_Accelerometer.c **** }
 820              		.loc 1 346 0
 821              		@ sp needed
 822 0038 08BD     		pop	{r3, pc}
 823              	.L48:
 824 003a C046     		.align	2
 825              	.L47:
 826 003c 20000000 		.word	.LC3
 827              		.cfi_endproc
 828              	.LFE50:
 829              		.size	acc_scale, .-acc_scale
 830              		.section	.text.acc_offset,"ax",%progbits
 831              		.align	2
 832              		.global	acc_offset
 833              		.code	16
 834              		.thumb_func
 835              		.type	acc_offset, %function
ARM GAS  C:\Users\Jannai\AppData\Local\Temp\ccb0hbnM.s 			page 23


 836              	acc_offset:
 837              	.LFB51:
 347:I2C_Accelerometer.c **** 
 348:I2C_Accelerometer.c **** void acc_offset(int8_t off_x, int8_t off_y, int8_t off_z) {
 838              		.loc 1 348 0
 839              		.cfi_startproc
 840              	.LVL164:
 841 0000 70B5     		push	{r4, r5, r6, lr}
 842              		.cfi_def_cfa_offset 16
 843              		.cfi_offset 4, -16
 844              		.cfi_offset 5, -12
 845              		.cfi_offset 6, -8
 846              		.cfi_offset 14, -4
 847 0002 0D1C     		mov	r5, r1
 848 0004 141C     		mov	r4, r2
 349:I2C_Accelerometer.c **** 	registerWrite(OFF_X, off_x);
 849              		.loc 1 349 0
 850 0006 C6B2     		uxtb	r6, r0
 851              	.LVL165:
 852              	.LBB44:
 853              	.LBB45:
 231:I2C_Accelerometer.c ****     I2CM_I2CMasterSendStart(MMA8452Q_ADDRESS, I2CM_I2C_WRITE_XFER_MODE);
 854              		.loc 1 231 0
 855 0008 FFF7FEFF 		bl	I2CM_I2CMasterClearStatus
 856              	.LVL166:
 232:I2C_Accelerometer.c ****     I2CM_I2CMasterWriteByte(addr);
 857              		.loc 1 232 0
 858 000c 1D20     		mov	r0, #29
 859 000e 0021     		mov	r1, #0
 860 0010 FFF7FEFF 		bl	I2CM_I2CMasterSendStart
 861              	.LVL167:
 233:I2C_Accelerometer.c ****     I2CM_I2CMasterWriteByte(value);
 862              		.loc 1 233 0
 863 0014 2F20     		mov	r0, #47
 864 0016 FFF7FEFF 		bl	I2CM_I2CMasterWriteByte
 865              	.LVL168:
 234:I2C_Accelerometer.c ****     I2CM_I2CMasterSendStop();
 866              		.loc 1 234 0
 867 001a 301C     		mov	r0, r6
 868 001c FFF7FEFF 		bl	I2CM_I2CMasterWriteByte
 869              	.LVL169:
 235:I2C_Accelerometer.c **** }
 870              		.loc 1 235 0
 871 0020 FFF7FEFF 		bl	I2CM_I2CMasterSendStop
 872              	.LVL170:
 873              	.LBE45:
 874              	.LBE44:
 350:I2C_Accelerometer.c **** 	registerWrite(OFF_Y, off_y);
 875              		.loc 1 350 0
 876 0024 EDB2     		uxtb	r5, r5
 877              	.LVL171:
 878              	.LBB46:
 879              	.LBB47:
 231:I2C_Accelerometer.c ****     I2CM_I2CMasterSendStart(MMA8452Q_ADDRESS, I2CM_I2C_WRITE_XFER_MODE);
 880              		.loc 1 231 0
 881 0026 FFF7FEFF 		bl	I2CM_I2CMasterClearStatus
 882              	.LVL172:
ARM GAS  C:\Users\Jannai\AppData\Local\Temp\ccb0hbnM.s 			page 24


 232:I2C_Accelerometer.c ****     I2CM_I2CMasterWriteByte(addr);
 883              		.loc 1 232 0
 884 002a 1D20     		mov	r0, #29
 885 002c 0021     		mov	r1, #0
 886 002e FFF7FEFF 		bl	I2CM_I2CMasterSendStart
 887              	.LVL173:
 233:I2C_Accelerometer.c ****     I2CM_I2CMasterWriteByte(value);
 888              		.loc 1 233 0
 889 0032 3020     		mov	r0, #48
 890 0034 FFF7FEFF 		bl	I2CM_I2CMasterWriteByte
 891              	.LVL174:
 234:I2C_Accelerometer.c ****     I2CM_I2CMasterSendStop();
 892              		.loc 1 234 0
 893 0038 281C     		mov	r0, r5
 894 003a FFF7FEFF 		bl	I2CM_I2CMasterWriteByte
 895              	.LVL175:
 235:I2C_Accelerometer.c **** }
 896              		.loc 1 235 0
 897 003e FFF7FEFF 		bl	I2CM_I2CMasterSendStop
 898              	.LVL176:
 899              	.LBE47:
 900              	.LBE46:
 351:I2C_Accelerometer.c **** 	registerWrite(OFF_Z, off_z);
 901              		.loc 1 351 0
 902 0042 E4B2     		uxtb	r4, r4
 903              	.LVL177:
 904              	.LBB48:
 905              	.LBB49:
 231:I2C_Accelerometer.c ****     I2CM_I2CMasterSendStart(MMA8452Q_ADDRESS, I2CM_I2C_WRITE_XFER_MODE);
 906              		.loc 1 231 0
 907 0044 FFF7FEFF 		bl	I2CM_I2CMasterClearStatus
 908              	.LVL178:
 232:I2C_Accelerometer.c ****     I2CM_I2CMasterWriteByte(addr);
 909              		.loc 1 232 0
 910 0048 1D20     		mov	r0, #29
 911 004a 0021     		mov	r1, #0
 912 004c FFF7FEFF 		bl	I2CM_I2CMasterSendStart
 913              	.LVL179:
 233:I2C_Accelerometer.c ****     I2CM_I2CMasterWriteByte(value);
 914              		.loc 1 233 0
 915 0050 3120     		mov	r0, #49
 916 0052 FFF7FEFF 		bl	I2CM_I2CMasterWriteByte
 917              	.LVL180:
 234:I2C_Accelerometer.c ****     I2CM_I2CMasterSendStop();
 918              		.loc 1 234 0
 919 0056 201C     		mov	r0, r4
 920 0058 FFF7FEFF 		bl	I2CM_I2CMasterWriteByte
 921              	.LVL181:
 235:I2C_Accelerometer.c **** }
 922              		.loc 1 235 0
 923 005c FFF7FEFF 		bl	I2CM_I2CMasterSendStop
 924              	.LVL182:
 925              	.LBE49:
 926              	.LBE48:
 352:I2C_Accelerometer.c **** }
 927              		.loc 1 352 0
 928              		@ sp needed
ARM GAS  C:\Users\Jannai\AppData\Local\Temp\ccb0hbnM.s 			page 25


 929              	.LVL183:
 930              	.LVL184:
 931              	.LVL185:
 932 0060 70BD     		pop	{r4, r5, r6, pc}
 933              		.cfi_endproc
 934              	.LFE51:
 935              		.size	acc_offset, .-acc_offset
 936 0062 C046     		.section	.text.acc_active,"ax",%progbits
 937              		.align	2
 938              		.global	acc_active
 939              		.code	16
 940              		.thumb_func
 941              		.type	acc_active, %function
 942              	acc_active:
 943              	.LFB52:
 353:I2C_Accelerometer.c **** 
 354:I2C_Accelerometer.c **** void acc_active(bool enable) {
 944              		.loc 1 354 0
 945              		.cfi_startproc
 946              	.LVL186:
 947 0000 08B5     		push	{r3, lr}
 948              		.cfi_def_cfa_offset 8
 949              		.cfi_offset 3, -8
 950              		.cfi_offset 14, -4
 951 0002 021C     		mov	r2, r0
 355:I2C_Accelerometer.c **** 	registerSetBit(CTRL_REG1, ACTIVE, enable);
 952              		.loc 1 355 0
 953 0004 2A20     		mov	r0, #42
 954              	.LVL187:
 955 0006 0021     		mov	r1, #0
 956 0008 FFF7FEFF 		bl	registerSetBit
 957              	.LVL188:
 356:I2C_Accelerometer.c **** }
 958              		.loc 1 356 0
 959              		@ sp needed
 960 000c 08BD     		pop	{r3, pc}
 961              		.cfi_endproc
 962              	.LFE52:
 963              		.size	acc_active, .-acc_active
 964 000e C046     		.section	.text.acc_fastRead,"ax",%progbits
 965              		.align	2
 966              		.global	acc_fastRead
 967              		.code	16
 968              		.thumb_func
 969              		.type	acc_fastRead, %function
 970              	acc_fastRead:
 971              	.LFB53:
 357:I2C_Accelerometer.c **** 
 358:I2C_Accelerometer.c **** void acc_fastRead(bool enable) {
 972              		.loc 1 358 0
 973              		.cfi_startproc
 974              	.LVL189:
 975 0000 08B5     		push	{r3, lr}
 976              		.cfi_def_cfa_offset 8
 977              		.cfi_offset 3, -8
 978              		.cfi_offset 14, -4
 979 0002 021C     		mov	r2, r0
ARM GAS  C:\Users\Jannai\AppData\Local\Temp\ccb0hbnM.s 			page 26


 359:I2C_Accelerometer.c **** 	registerSetBit(CTRL_REG1, F_READ, enable);
 980              		.loc 1 359 0
 981 0004 2A20     		mov	r0, #42
 982              	.LVL190:
 983 0006 0121     		mov	r1, #1
 984 0008 FFF7FEFF 		bl	registerSetBit
 985              	.LVL191:
 360:I2C_Accelerometer.c **** }
 986              		.loc 1 360 0
 987              		@ sp needed
 988 000c 08BD     		pop	{r3, pc}
 989              		.cfi_endproc
 990              	.LFE53:
 991              		.size	acc_fastRead, .-acc_fastRead
 992 000e C046     		.section	.text.acc_lowNoise,"ax",%progbits
 993              		.align	2
 994              		.global	acc_lowNoise
 995              		.code	16
 996              		.thumb_func
 997              		.type	acc_lowNoise, %function
 998              	acc_lowNoise:
 999              	.LFB54:
 361:I2C_Accelerometer.c **** 
 362:I2C_Accelerometer.c **** void acc_lowNoise(bool enable) {
 1000              		.loc 1 362 0
 1001              		.cfi_startproc
 1002              	.LVL192:
 1003 0000 08B5     		push	{r3, lr}
 1004              		.cfi_def_cfa_offset 8
 1005              		.cfi_offset 3, -8
 1006              		.cfi_offset 14, -4
 1007 0002 021C     		mov	r2, r0
 363:I2C_Accelerometer.c **** 	registerSetBit(CTRL_REG1, LNOISE, enable);
 1008              		.loc 1 363 0
 1009 0004 2A20     		mov	r0, #42
 1010              	.LVL193:
 1011 0006 0221     		mov	r1, #2
 1012 0008 FFF7FEFF 		bl	registerSetBit
 1013              	.LVL194:
 364:I2C_Accelerometer.c **** }
 1014              		.loc 1 364 0
 1015              		@ sp needed
 1016 000c 08BD     		pop	{r3, pc}
 1017              		.cfi_endproc
 1018              	.LFE54:
 1019              		.size	acc_lowNoise, .-acc_lowNoise
 1020 000e C046     		.section	.text.acc_reset,"ax",%progbits
 1021              		.align	2
 1022              		.global	acc_reset
 1023              		.code	16
 1024              		.thumb_func
 1025              		.type	acc_reset, %function
 1026              	acc_reset:
 1027              	.LFB55:
 365:I2C_Accelerometer.c **** 
 366:I2C_Accelerometer.c **** void acc_reset(void) {
 1028              		.loc 1 366 0
ARM GAS  C:\Users\Jannai\AppData\Local\Temp\ccb0hbnM.s 			page 27


 1029              		.cfi_startproc
 1030 0000 08B5     		push	{r3, lr}
 1031              		.cfi_def_cfa_offset 8
 1032              		.cfi_offset 3, -8
 1033              		.cfi_offset 14, -4
 367:I2C_Accelerometer.c **** 	registerSetBit(CTRL_REG2, RST, 1);
 1034              		.loc 1 367 0
 1035 0002 2B20     		mov	r0, #43
 1036 0004 0621     		mov	r1, #6
 1037 0006 0122     		mov	r2, #1
 1038 0008 FFF7FEFF 		bl	registerSetBit
 1039              	.LVL195:
 368:I2C_Accelerometer.c **** }
 1040              		.loc 1 368 0
 1041              		@ sp needed
 1042 000c 08BD     		pop	{r3, pc}
 1043              		.cfi_endproc
 1044              	.LFE55:
 1045              		.size	acc_reset, .-acc_reset
 1046 000e C046     		.section	.text.acc_selfTest,"ax",%progbits
 1047              		.align	2
 1048              		.global	acc_selfTest
 1049              		.code	16
 1050              		.thumb_func
 1051              		.type	acc_selfTest, %function
 1052              	acc_selfTest:
 1053              	.LFB56:
 369:I2C_Accelerometer.c **** 
 370:I2C_Accelerometer.c **** void acc_selfTest(bool enable) {
 1054              		.loc 1 370 0
 1055              		.cfi_startproc
 1056              	.LVL196:
 1057 0000 08B5     		push	{r3, lr}
 1058              		.cfi_def_cfa_offset 8
 1059              		.cfi_offset 3, -8
 1060              		.cfi_offset 14, -4
 1061 0002 021C     		mov	r2, r0
 371:I2C_Accelerometer.c **** 	registerSetBit(CTRL_REG2, ST, enable);
 1062              		.loc 1 371 0
 1063 0004 2B20     		mov	r0, #43
 1064              	.LVL197:
 1065 0006 0721     		mov	r1, #7
 1066 0008 FFF7FEFF 		bl	registerSetBit
 1067              	.LVL198:
 372:I2C_Accelerometer.c **** }
 1068              		.loc 1 372 0
 1069              		@ sp needed
 1070 000c 08BD     		pop	{r3, pc}
 1071              		.cfi_endproc
 1072              	.LFE56:
 1073              		.size	acc_selfTest, .-acc_selfTest
 1074 000e C046     		.section	.text.acc_autoSleep,"ax",%progbits
 1075              		.align	2
 1076              		.global	acc_autoSleep
 1077              		.code	16
 1078              		.thumb_func
 1079              		.type	acc_autoSleep, %function
ARM GAS  C:\Users\Jannai\AppData\Local\Temp\ccb0hbnM.s 			page 28


 1080              	acc_autoSleep:
 1081              	.LFB57:
 373:I2C_Accelerometer.c **** 
 374:I2C_Accelerometer.c **** void acc_autoSleep(bool enable) {
 1082              		.loc 1 374 0
 1083              		.cfi_startproc
 1084              	.LVL199:
 1085 0000 08B5     		push	{r3, lr}
 1086              		.cfi_def_cfa_offset 8
 1087              		.cfi_offset 3, -8
 1088              		.cfi_offset 14, -4
 1089 0002 021C     		mov	r2, r0
 375:I2C_Accelerometer.c **** 	registerSetBit(CTRL_REG2, SLPE, enable);
 1090              		.loc 1 375 0
 1091 0004 2B20     		mov	r0, #43
 1092              	.LVL200:
 1093 0006 0221     		mov	r1, #2
 1094 0008 FFF7FEFF 		bl	registerSetBit
 1095              	.LVL201:
 376:I2C_Accelerometer.c **** }
 1096              		.loc 1 376 0
 1097              		@ sp needed
 1098 000c 08BD     		pop	{r3, pc}
 1099              		.cfi_endproc
 1100              	.LFE57:
 1101              		.size	acc_autoSleep, .-acc_autoSleep
 1102 000e C046     		.section	.text.acc_detectOrientation,"ax",%progbits
 1103              		.align	2
 1104              		.global	acc_detectOrientation
 1105              		.code	16
 1106              		.thumb_func
 1107              		.type	acc_detectOrientation, %function
 1108              	acc_detectOrientation:
 1109              	.LFB58:
 377:I2C_Accelerometer.c **** 
 378:I2C_Accelerometer.c **** void acc_detectOrientation(bool enable) {
 1110              		.loc 1 378 0
 1111              		.cfi_startproc
 1112              	.LVL202:
 1113 0000 08B5     		push	{r3, lr}
 1114              		.cfi_def_cfa_offset 8
 1115              		.cfi_offset 3, -8
 1116              		.cfi_offset 14, -4
 1117 0002 021C     		mov	r2, r0
 379:I2C_Accelerometer.c **** 	registerSetBit(PL_CFG, PL_EN, enable);
 1118              		.loc 1 379 0
 1119 0004 1120     		mov	r0, #17
 1120              	.LVL203:
 1121 0006 0621     		mov	r1, #6
 1122 0008 FFF7FEFF 		bl	registerSetBit
 1123              	.LVL204:
 380:I2C_Accelerometer.c **** }
 1124              		.loc 1 380 0
 1125              		@ sp needed
 1126 000c 08BD     		pop	{r3, pc}
 1127              		.cfi_endproc
 1128              	.LFE58:
ARM GAS  C:\Users\Jannai\AppData\Local\Temp\ccb0hbnM.s 			page 29


 1129              		.size	acc_detectOrientation, .-acc_detectOrientation
 1130 000e C046     		.section	.text.acc_wakeOn,"ax",%progbits
 1131              		.align	2
 1132              		.global	acc_wakeOn
 1133              		.code	16
 1134              		.thumb_func
 1135              		.type	acc_wakeOn, %function
 1136              	acc_wakeOn:
 1137              	.LFB59:
 381:I2C_Accelerometer.c **** 
 382:I2C_Accelerometer.c **** void acc_wakeOn(bool enable, uint8_t events) {
 1138              		.loc 1 382 0
 1139              		.cfi_startproc
 1140              	.LVL205:
 1141 0000 38B5     		push	{r3, r4, r5, lr}
 1142              		.cfi_def_cfa_offset 16
 1143              		.cfi_offset 3, -16
 1144              		.cfi_offset 4, -12
 1145              		.cfi_offset 5, -8
 1146              		.cfi_offset 14, -4
 1147 0002 051C     		mov	r5, r0
 1148 0004 0C1C     		mov	r4, r1
 383:I2C_Accelerometer.c **** 	if (events & FREEFALL_MOTION)
 1149              		.loc 1 383 0
 1150 0006 CB07     		lsl	r3, r1, #31
 1151 0008 04D5     		bpl	.L58
 384:I2C_Accelerometer.c **** 		registerSetBit(CTRL_REG3, WAKE_FF_MT, enable);
 1152              		.loc 1 384 0
 1153 000a 2C20     		mov	r0, #44
 1154              	.LVL206:
 1155 000c 0321     		mov	r1, #3
 1156              	.LVL207:
 1157 000e 2A1C     		mov	r2, r5
 1158 0010 FFF7FEFF 		bl	registerSetBit
 1159              	.LVL208:
 1160              	.L58:
 385:I2C_Accelerometer.c **** 
 386:I2C_Accelerometer.c **** 	if (events & PULSE)
 1161              		.loc 1 386 0
 1162 0014 A307     		lsl	r3, r4, #30
 1163 0016 04D5     		bpl	.L59
 387:I2C_Accelerometer.c **** 		registerSetBit(CTRL_REG3, WAKE_PULSE, enable);
 1164              		.loc 1 387 0
 1165 0018 2C20     		mov	r0, #44
 1166 001a 0421     		mov	r1, #4
 1167 001c 2A1C     		mov	r2, r5
 1168 001e FFF7FEFF 		bl	registerSetBit
 1169              	.LVL209:
 1170              	.L59:
 388:I2C_Accelerometer.c **** 
 389:I2C_Accelerometer.c **** 	if (events & ORIENTATION)
 1171              		.loc 1 389 0
 1172 0022 6307     		lsl	r3, r4, #29
 1173 0024 04D5     		bpl	.L57
 390:I2C_Accelerometer.c **** 		registerSetBit(CTRL_REG3, WAKE_LNDPRT, enable);
 1174              		.loc 1 390 0
 1175 0026 2C20     		mov	r0, #44
ARM GAS  C:\Users\Jannai\AppData\Local\Temp\ccb0hbnM.s 			page 30


 1176 0028 0521     		mov	r1, #5
 1177 002a 2A1C     		mov	r2, r5
 1178 002c FFF7FEFF 		bl	registerSetBit
 1179              	.LVL210:
 1180              	.L57:
 391:I2C_Accelerometer.c **** }
 1181              		.loc 1 391 0
 1182              		@ sp needed
 1183 0030 38BD     		pop	{r3, r4, r5, pc}
 1184              		.cfi_endproc
 1185              	.LFE59:
 1186              		.size	acc_wakeOn, .-acc_wakeOn
 1187 0032 C046     		.section	.text.acc_intFreefallMotion,"ax",%progbits
 1188              		.align	2
 1189              		.global	acc_intFreefallMotion
 1190              		.code	16
 1191              		.thumb_func
 1192              		.type	acc_intFreefallMotion, %function
 1193              	acc_intFreefallMotion:
 1194              	.LFB60:
 392:I2C_Accelerometer.c **** 
 393:I2C_Accelerometer.c **** /* void MMA8452Q::intDataRdy(bool enable, uint8_t pin) { */
 394:I2C_Accelerometer.c **** /* 	registerSetBit(CTRL_REG4, INT_EN_DRDY, enable); */
 395:I2C_Accelerometer.c **** /* 	registerSetBit(CTRL_REG5, INT_CFG_DRDY, enable); */
 396:I2C_Accelerometer.c **** /* } */
 397:I2C_Accelerometer.c **** 
 398:I2C_Accelerometer.c ****  void acc_intFreefallMotion(bool enable, uint8 pin) 
 399:I2C_Accelerometer.c **** {
 1195              		.loc 1 399 0
 1196              		.cfi_startproc
 1197              	.LVL211:
 1198 0000 38B5     		push	{r3, r4, r5, lr}
 1199              		.cfi_def_cfa_offset 16
 1200              		.cfi_offset 3, -16
 1201              		.cfi_offset 4, -12
 1202              		.cfi_offset 5, -8
 1203              		.cfi_offset 14, -4
 1204 0002 051C     		mov	r5, r0
 1205 0004 0C1C     		mov	r4, r1
 400:I2C_Accelerometer.c ****     //select Motion
 401:I2C_Accelerometer.c ****     registerSetBit(0x15, 6, 1);
 1206              		.loc 1 401 0
 1207 0006 1520     		mov	r0, #21
 1208              	.LVL212:
 1209 0008 0621     		mov	r1, #6
 1210              	.LVL213:
 1211 000a 0122     		mov	r2, #1
 1212 000c FFF7FEFF 		bl	registerSetBit
 1213              	.LVL214:
 402:I2C_Accelerometer.c ****     //enable interrupt
 403:I2C_Accelerometer.c ****     registerSetBit(CTRL_REG4, INT_EN_FF_MT, enable);
 1214              		.loc 1 403 0
 1215 0010 2D20     		mov	r0, #45
 1216 0012 0221     		mov	r1, #2
 1217 0014 2A1C     		mov	r2, r5
 1218 0016 FFF7FEFF 		bl	registerSetBit
 1219              	.LVL215:
ARM GAS  C:\Users\Jannai\AppData\Local\Temp\ccb0hbnM.s 			page 31


 404:I2C_Accelerometer.c ****     
 405:I2C_Accelerometer.c ****     //route interrupt to wished pin
 406:I2C_Accelerometer.c ****     if(pin == 1)
 1220              		.loc 1 406 0
 1221 001a 012C     		cmp	r4, #1
 1222 001c 05D1     		bne	.L62
 407:I2C_Accelerometer.c ****     {
 408:I2C_Accelerometer.c ****         registerSetBit(CTRL_REG5, INT_CFG_FF_MT, 1); 
 1223              		.loc 1 408 0
 1224 001e 2E20     		mov	r0, #46
 1225 0020 0221     		mov	r1, #2
 1226 0022 0122     		mov	r2, #1
 1227 0024 FFF7FEFF 		bl	registerSetBit
 1228              	.LVL216:
 1229 0028 06E0     		b	.L61
 1230              	.L62:
 409:I2C_Accelerometer.c ****     }
 410:I2C_Accelerometer.c ****     else if(pin == 2)
 1231              		.loc 1 410 0
 1232 002a 022C     		cmp	r4, #2
 1233 002c 04D1     		bne	.L61
 411:I2C_Accelerometer.c ****     {
 412:I2C_Accelerometer.c ****         registerSetBit(CTRL_REG5, INT_CFG_FF_MT, 0); 
 1234              		.loc 1 412 0
 1235 002e 2E20     		mov	r0, #46
 1236 0030 0221     		mov	r1, #2
 1237 0032 0022     		mov	r2, #0
 1238 0034 FFF7FEFF 		bl	registerSetBit
 1239              	.LVL217:
 1240              	.L61:
 413:I2C_Accelerometer.c ****     } 	 
 414:I2C_Accelerometer.c ****  } 
 1241              		.loc 1 414 0
 1242              		@ sp needed
 1243 0038 38BD     		pop	{r3, r4, r5, pc}
 1244              		.cfi_endproc
 1245              	.LFE60:
 1246              		.size	acc_intFreefallMotion, .-acc_intFreefallMotion
 1247              		.global	__aeabi_uidiv
 1248 003a C046     		.section	.text.acc_axes,"ax",%progbits
 1249              		.align	2
 1250              		.global	acc_axes
 1251              		.code	16
 1252              		.thumb_func
 1253              		.type	acc_axes, %function
 1254              	acc_axes:
 1255              	.LFB61:
 415:I2C_Accelerometer.c **** 
 416:I2C_Accelerometer.c **** /* void MMA8452Q::intPulse(bool enable, uint8_t pin) { */
 417:I2C_Accelerometer.c **** /* 	registerSetBit(CTRL_REG4, INT_EN_PULSE, enable); */
 418:I2C_Accelerometer.c **** /* 	registerSetBit(CTRL_REG5, INT_CFG_PULSE, enable); */
 419:I2C_Accelerometer.c **** /* } */
 420:I2C_Accelerometer.c **** 
 421:I2C_Accelerometer.c **** /* void MMA8452Q::intOrientation(bool enable, uint8_t pin) { */
 422:I2C_Accelerometer.c **** /* 	registerSetBit(CTRL_REG4, INT_EN_LNDPRT, enable); */
 423:I2C_Accelerometer.c **** /* 	registerSetBit(CTRL_REG5, INT_CFG_LNDPRT, enable); */
 424:I2C_Accelerometer.c **** /* } */
ARM GAS  C:\Users\Jannai\AppData\Local\Temp\ccb0hbnM.s 			page 32


 425:I2C_Accelerometer.c **** 
 426:I2C_Accelerometer.c **** /* void MMA8452Q::intAutoSlp(bool enable, uint8_t pin) { */
 427:I2C_Accelerometer.c **** /* 	registerSetBit(CTRL_REG4, INT_EN_ASLP, enable); */
 428:I2C_Accelerometer.c **** /* 	registerSetBit(CTRL_REG5, INT_CFG_ASLP, enable); */
 429:I2C_Accelerometer.c **** /* } */
 430:I2C_Accelerometer.c **** 
 431:I2C_Accelerometer.c **** void acc_axes(int axes[]) {
 1256              		.loc 1 431 0
 1257              		.cfi_startproc
 1258              	.LVL218:
 1259 0000 F0B5     		push	{r4, r5, r6, r7, lr}
 1260              		.cfi_def_cfa_offset 20
 1261              		.cfi_offset 4, -20
 1262              		.cfi_offset 5, -16
 1263              		.cfi_offset 6, -12
 1264              		.cfi_offset 7, -8
 1265              		.cfi_offset 14, -4
 1266 0002 4F46     		mov	r7, r9
 1267 0004 4646     		mov	r6, r8
 1268 0006 C0B4     		push	{r6, r7}
 1269              		.cfi_def_cfa_offset 28
 1270              		.cfi_offset 8, -28
 1271              		.cfi_offset 9, -24
 1272 0008 83B0     		sub	sp, sp, #12
 1273              		.cfi_def_cfa_offset 40
 1274 000a 8146     		mov	r9, r0
 1275              	.LVL219:
 1276              	.LBB54:
 1277              	.LBB55:
 166:I2C_Accelerometer.c ****     //debugI2CMasterStatus(status);
 1278              		.loc 1 166 0
 1279 000c FFF7FEFF 		bl	I2CM_I2CMasterClearStatus
 1280              	.LVL220:
 169:I2C_Accelerometer.c ****     //debugI2CTransfer(indicator);
 1281              		.loc 1 169 0
 1282 0010 1D20     		mov	r0, #29
 1283 0012 0021     		mov	r1, #0
 1284 0014 FFF7FEFF 		bl	I2CM_I2CMasterSendStart
 1285              	.LVL221:
 1286 0018 C0B2     		uxtb	r0, r0
 1287              	.LVL222:
 173:I2C_Accelerometer.c ****     {
 1288              		.loc 1 173 0
 1289 001a 0028     		cmp	r0, #0
 1290 001c 03D1     		bne	.L65
 175:I2C_Accelerometer.c ****         //debugI2CTransfer(indicator);
 1291              		.loc 1 175 0
 1292 001e 2A30     		add	r0, r0, #42
 1293              	.LVL223:
 1294 0020 FFF7FEFF 		bl	I2CM_I2CMasterWriteByte
 1295              	.LVL224:
 1296 0024 04E0     		b	.L66
 1297              	.LVL225:
 1298              	.L65:
 180:I2C_Accelerometer.c ****     }
 1299              		.loc 1 180 0
 1300 0026 3848     		ldr	r0, .L78
ARM GAS  C:\Users\Jannai\AppData\Local\Temp\ccb0hbnM.s 			page 33


 1301              	.LVL226:
 1302 0028 FFF7FEFF 		bl	SW_TX_PutString
 1303              	.LVL227:
 1304 002c FFF7FEFF 		bl	SW_TX_PutCRLF
 1305              	.LVL228:
 1306              	.L66:
 183:I2C_Accelerometer.c ****     uint8 data = I2CM_I2CMasterReadByte(I2CM_I2C_NAK_DATA);
 1307              		.loc 1 183 0
 1308 0030 1D20     		mov	r0, #29
 1309 0032 0121     		mov	r1, #1
 1310 0034 FFF7FEFF 		bl	I2CM_I2CMasterSendRestart
 1311              	.LVL229:
 184:I2C_Accelerometer.c ****     I2CM_I2CMasterSendStop();
 1312              		.loc 1 184 0
 1313 0038 0120     		mov	r0, #1
 1314 003a FFF7FEFF 		bl	I2CM_I2CMasterReadByte
 1315              	.LVL230:
 1316 003e C4B2     		uxtb	r4, r0
 1317              	.LVL231:
 185:I2C_Accelerometer.c ****     return data;	
 1318              		.loc 1 185 0
 1319 0040 FFF7FEFF 		bl	I2CM_I2CMasterSendStop
 1320              	.LVL232:
 1321              	.LBE55:
 1322              	.LBE54:
 432:I2C_Accelerometer.c **** 	uint8_t *data;
 433:I2C_Accelerometer.c **** 	uint8_t read_count = 0;
 434:I2C_Accelerometer.c **** 	uint8_t val = registerRead(CTRL_REG1);
 435:I2C_Accelerometer.c **** 
 436:I2C_Accelerometer.c **** 	if (bitRead(val, F_READ) == 0)
 1323              		.loc 1 436 0
 1324 0044 201C     		mov	r0, r4
 1325 0046 0121     		mov	r1, #1
 1326 0048 FFF7FEFF 		bl	bitRead
 1327              	.LVL233:
 1328 004c 8046     		mov	r8, r0
 1329 004e 031E     		sub	r3, r0, #0
 1330 0050 02D1     		bne	.L77
 437:I2C_Accelerometer.c **** 		read_count = 6;
 1331              		.loc 1 437 0
 1332 0052 0633     		add	r3, r3, #6
 1333 0054 0193     		str	r3, [sp, #4]
 1334 0056 01E0     		b	.L67
 1335              	.L77:
 438:I2C_Accelerometer.c **** 	else
 439:I2C_Accelerometer.c **** 		read_count = 3;
 1336              		.loc 1 439 0
 1337 0058 0323     		mov	r3, #3
 1338 005a 0193     		str	r3, [sp, #4]
 1339              	.L67:
 1340              	.LVL234:
 440:I2C_Accelerometer.c **** 
 441:I2C_Accelerometer.c **** 	//data = new uint8_[read_count];
 442:I2C_Accelerometer.c **** 
 443:I2C_Accelerometer.c **** 	registersRead(OUT_X_MSB, data, read_count);
 1341              		.loc 1 443 0
 1342 005c 019E     		ldr	r6, [sp, #4]
ARM GAS  C:\Users\Jannai\AppData\Local\Temp\ccb0hbnM.s 			page 34


 1343              	.LVL235:
 1344              	.LBB56:
 1345              	.LBB57:
 191:I2C_Accelerometer.c ****     //debugI2CMasterStatus(status);
 1346              		.loc 1 191 0
 1347 005e FFF7FEFF 		bl	I2CM_I2CMasterClearStatus
 1348              	.LVL236:
 194:I2C_Accelerometer.c ****     //debugI2CTransfer(indicator);
 1349              		.loc 1 194 0
 1350 0062 1D20     		mov	r0, #29
 1351 0064 0021     		mov	r1, #0
 1352 0066 FFF7FEFF 		bl	I2CM_I2CMasterSendStart
 1353              	.LVL237:
 1354 006a C0B2     		uxtb	r0, r0
 1355              	.LVL238:
 198:I2C_Accelerometer.c ****     {
 1356              		.loc 1 198 0
 1357 006c 0028     		cmp	r0, #0
 1358 006e 03D1     		bne	.L68
 200:I2C_Accelerometer.c ****         //debugI2CTransfer(indicator);
 1359              		.loc 1 200 0
 1360 0070 0130     		add	r0, r0, #1
 1361              	.LVL239:
 1362 0072 FFF7FEFF 		bl	I2CM_I2CMasterWriteByte
 1363              	.LVL240:
 1364 0076 04E0     		b	.L69
 1365              	.LVL241:
 1366              	.L68:
 205:I2C_Accelerometer.c ****     }
 1367              		.loc 1 205 0
 1368 0078 2348     		ldr	r0, .L78
 1369              	.LVL242:
 1370 007a FFF7FEFF 		bl	SW_TX_PutString
 1371              	.LVL243:
 1372 007e FFF7FEFF 		bl	SW_TX_PutCRLF
 1373              	.LVL244:
 1374              	.L69:
 207:I2C_Accelerometer.c **** 
 1375              		.loc 1 207 0
 1376 0082 1D20     		mov	r0, #29
 1377 0084 0121     		mov	r1, #1
 1378 0086 FFF7FEFF 		bl	I2CM_I2CMasterSendRestart
 1379              	.LVL245:
 211:I2C_Accelerometer.c ****     {
 1380              		.loc 1 211 0
 1381 008a 0024     		mov	r4, #0
 1382              	.LVL246:
 1383 008c 16E0     		b	.L70
 1384              	.LVL247:
 1385              	.L73:
 213:I2C_Accelerometer.c ****         {
 1386              		.loc 1 213 0
 1387 008e 731E     		sub	r3, r6, #1
 1388 0090 BB42     		cmp	r3, r7
 1389 0092 04D9     		bls	.L71
 1390              	.LVL248:
 216:I2C_Accelerometer.c ****             
ARM GAS  C:\Users\Jannai\AppData\Local\Temp\ccb0hbnM.s 			page 35


 1391              		.loc 1 216 0
 1392 0094 0020     		mov	r0, #0
 1393 0096 FFF7FEFF 		bl	I2CM_I2CMasterReadByte
 1394              	.LVL249:
 1395 009a 3870     		strb	r0, [r7]
 1396 009c 03E0     		b	.L72
 1397              	.LVL250:
 1398              	.L71:
 221:I2C_Accelerometer.c ****         }
 1399              		.loc 1 221 0
 1400 009e 0120     		mov	r0, #1
 1401 00a0 FFF7FEFF 		bl	I2CM_I2CMasterReadByte
 1402              	.LVL251:
 1403 00a4 3870     		strb	r0, [r7]
 1404              	.L72:
 224:I2C_Accelerometer.c ****         SW_TX_PutString(debugStr);
 1405              		.loc 1 224 0
 1406 00a6 3A78     		ldrb	r2, [r7]
 1407 00a8 184D     		ldr	r5, .L78+4
 1408 00aa 281C     		mov	r0, r5
 1409 00ac 1849     		ldr	r1, .L78+8
 1410 00ae FFF7FEFF 		bl	sprintf
 1411              	.LVL252:
 225:I2C_Accelerometer.c ****     }
 1412              		.loc 1 225 0
 1413 00b2 281C     		mov	r0, r5
 1414 00b4 FFF7FEFF 		bl	SW_TX_PutString
 1415              	.LVL253:
 211:I2C_Accelerometer.c ****     {
 1416              		.loc 1 211 0
 1417 00b8 0134     		add	r4, r4, #1
 1418              	.LVL254:
 1419 00ba E4B2     		uxtb	r4, r4
 1420              	.LVL255:
 1421              	.L70:
 1422 00bc 271C     		mov	r7, r4
 1423 00be A642     		cmp	r6, r4
 1424 00c0 E5D8     		bhi	.L73
 227:I2C_Accelerometer.c **** }
 1425              		.loc 1 227 0
 1426 00c2 FFF7FEFF 		bl	SW_TX_PutCRLF
 1427              	.LVL256:
 1428              	.LBE57:
 1429              	.LBE56:
 444:I2C_Accelerometer.c ****     uint8 i;
 445:I2C_Accelerometer.c **** 	for (i=0; i < 3; i++) 
 1430              		.loc 1 445 0
 1431 00c6 0024     		mov	r4, #0
 1432              	.LVL257:
 1433 00c8 16E0     		b	.L74
 1434              	.LVL258:
 1435              	.L76:
 446:I2C_Accelerometer.c ****     {
 447:I2C_Accelerometer.c **** 		axes[i]  = data[i * (read_count / 3)] << 8;
 1436              		.loc 1 447 0
 1437 00ca A500     		lsl	r5, r4, #2
 1438 00cc 4D44     		add	r5, r5, r9
ARM GAS  C:\Users\Jannai\AppData\Local\Temp\ccb0hbnM.s 			page 36


 1439 00ce 0198     		ldr	r0, [sp, #4]
 1440 00d0 0321     		mov	r1, #3
 1441 00d2 FFF7FEFF 		bl	__aeabi_uidiv
 1442              	.LVL259:
 1443 00d6 C0B2     		uxtb	r0, r0
 1444 00d8 6043     		mul	r0, r4
 1445              	.LVL260:
 1446 00da 0378     		ldrb	r3, [r0]
 1447 00dc 1B02     		lsl	r3, r3, #8
 1448 00de 2B60     		str	r3, [r5]
 448:I2C_Accelerometer.c **** 
 449:I2C_Accelerometer.c **** 		if (bitRead(val, F_READ) == 0)
 1449              		.loc 1 449 0
 1450 00e0 4246     		mov	r2, r8
 1451 00e2 002A     		cmp	r2, #0
 1452 00e4 03D1     		bne	.L75
 450:I2C_Accelerometer.c ****         {
 451:I2C_Accelerometer.c **** 			axes[i] |= data[(i * 2) + 1];
 1453              		.loc 1 451 0
 1454 00e6 6200     		lsl	r2, r4, #1
 1455 00e8 5278     		ldrb	r2, [r2, #1]
 1456 00ea 1343     		orr	r3, r2
 1457 00ec 2B60     		str	r3, [r5]
 1458              	.L75:
 452:I2C_Accelerometer.c ****         }
 453:I2C_Accelerometer.c **** 
 454:I2C_Accelerometer.c **** 		axes[i] >>= 4;
 1459              		.loc 1 454 0 discriminator 2
 1460 00ee 2B68     		ldr	r3, [r5]
 1461 00f0 1B11     		asr	r3, r3, #4
 1462 00f2 2B60     		str	r3, [r5]
 445:I2C_Accelerometer.c ****     {
 1463              		.loc 1 445 0 discriminator 2
 1464 00f4 0134     		add	r4, r4, #1
 1465              	.LVL261:
 1466 00f6 E4B2     		uxtb	r4, r4
 1467              	.LVL262:
 1468              	.L74:
 445:I2C_Accelerometer.c ****     {
 1469              		.loc 1 445 0 is_stmt 0 discriminator 1
 1470 00f8 022C     		cmp	r4, #2
 1471 00fa E6D9     		bls	.L76
 455:I2C_Accelerometer.c **** 	}
 456:I2C_Accelerometer.c **** }
 1472              		.loc 1 456 0 is_stmt 1
 1473 00fc 03B0     		add	sp, sp, #12
 1474              		@ sp needed
 1475              	.LVL263:
 1476              	.LVL264:
 1477              	.LVL265:
 1478 00fe 0CBC     		pop	{r2, r3}
 1479 0100 9046     		mov	r8, r2
 1480 0102 9946     		mov	r9, r3
 1481 0104 F0BD     		pop	{r4, r5, r6, r7, pc}
 1482              	.L79:
 1483 0106 C046     		.align	2
 1484              	.L78:
ARM GAS  C:\Users\Jannai\AppData\Local\Temp\ccb0hbnM.s 			page 37


 1485 0108 20000000 		.word	.LC3
 1486 010c 00000000 		.word	debugStr
 1487 0110 74000000 		.word	.LC7
 1488              		.cfi_endproc
 1489              	.LFE61:
 1490              		.size	acc_axes, .-acc_axes
 1491              		.section	.text.acc_orientation,"ax",%progbits
 1492              		.align	2
 1493              		.global	acc_orientation
 1494              		.code	16
 1495              		.thumb_func
 1496              		.type	acc_orientation, %function
 1497              	acc_orientation:
 1498              	.LFB62:
 457:I2C_Accelerometer.c **** 
 458:I2C_Accelerometer.c **** bool acc_orientation(uint8_t *value) {
 1499              		.loc 1 458 0
 1500              		.cfi_startproc
 1501              	.LVL266:
 1502 0000 38B5     		push	{r3, r4, r5, lr}
 1503              		.cfi_def_cfa_offset 16
 1504              		.cfi_offset 3, -16
 1505              		.cfi_offset 4, -12
 1506              		.cfi_offset 5, -8
 1507              		.cfi_offset 14, -4
 1508 0002 051C     		mov	r5, r0
 1509              	.LVL267:
 1510              	.LBB60:
 1511              	.LBB61:
 166:I2C_Accelerometer.c ****     //debugI2CMasterStatus(status);
 1512              		.loc 1 166 0
 1513 0004 FFF7FEFF 		bl	I2CM_I2CMasterClearStatus
 1514              	.LVL268:
 169:I2C_Accelerometer.c ****     //debugI2CTransfer(indicator);
 1515              		.loc 1 169 0
 1516 0008 1D20     		mov	r0, #29
 1517 000a 0021     		mov	r1, #0
 1518 000c FFF7FEFF 		bl	I2CM_I2CMasterSendStart
 1519              	.LVL269:
 1520 0010 C0B2     		uxtb	r0, r0
 1521              	.LVL270:
 173:I2C_Accelerometer.c ****     {
 1522              		.loc 1 173 0
 1523 0012 0028     		cmp	r0, #0
 1524 0014 03D1     		bne	.L81
 175:I2C_Accelerometer.c ****         //debugI2CTransfer(indicator);
 1525              		.loc 1 175 0
 1526 0016 1030     		add	r0, r0, #16
 1527              	.LVL271:
 1528 0018 FFF7FEFF 		bl	I2CM_I2CMasterWriteByte
 1529              	.LVL272:
 1530 001c 04E0     		b	.L82
 1531              	.LVL273:
 1532              	.L81:
 180:I2C_Accelerometer.c ****     }
 1533              		.loc 1 180 0
 1534 001e 0A48     		ldr	r0, .L83
ARM GAS  C:\Users\Jannai\AppData\Local\Temp\ccb0hbnM.s 			page 38


 1535              	.LVL274:
 1536 0020 FFF7FEFF 		bl	SW_TX_PutString
 1537              	.LVL275:
 1538 0024 FFF7FEFF 		bl	SW_TX_PutCRLF
 1539              	.LVL276:
 1540              	.L82:
 183:I2C_Accelerometer.c ****     uint8 data = I2CM_I2CMasterReadByte(I2CM_I2C_NAK_DATA);
 1541              		.loc 1 183 0
 1542 0028 1D20     		mov	r0, #29
 1543 002a 0121     		mov	r1, #1
 1544 002c FFF7FEFF 		bl	I2CM_I2CMasterSendRestart
 1545              	.LVL277:
 184:I2C_Accelerometer.c ****     I2CM_I2CMasterSendStop();
 1546              		.loc 1 184 0
 1547 0030 0120     		mov	r0, #1
 1548 0032 FFF7FEFF 		bl	I2CM_I2CMasterReadByte
 1549              	.LVL278:
 1550 0036 C4B2     		uxtb	r4, r0
 1551              	.LVL279:
 185:I2C_Accelerometer.c ****     return data;	
 1552              		.loc 1 185 0
 1553 0038 FFF7FEFF 		bl	I2CM_I2CMasterSendStop
 1554              	.LVL280:
 1555              	.LBE61:
 1556              	.LBE60:
 459:I2C_Accelerometer.c **** 	*value = registerRead(PL_STATUS);
 1557              		.loc 1 459 0
 1558 003c 2C70     		strb	r4, [r5]
 460:I2C_Accelerometer.c **** 	return bitRead(*value, NEWLP);
 1559              		.loc 1 460 0
 1560 003e 201C     		mov	r0, r4
 1561 0040 0721     		mov	r1, #7
 1562 0042 FFF7FEFF 		bl	bitRead
 1563              	.LVL281:
 461:I2C_Accelerometer.c **** }
 1564              		.loc 1 461 0
 1565              		@ sp needed
 1566              	.LVL282:
 1567              	.LVL283:
 1568 0046 38BD     		pop	{r3, r4, r5, pc}
 1569              	.L84:
 1570              		.align	2
 1571              	.L83:
 1572 0048 20000000 		.word	.LC3
 1573              		.cfi_endproc
 1574              	.LFE62:
 1575              		.size	acc_orientation, .-acc_orientation
 1576              		.section	.text.acc_backFront,"ax",%progbits
 1577              		.align	2
 1578              		.global	acc_backFront
 1579              		.code	16
 1580              		.thumb_func
 1581              		.type	acc_backFront, %function
 1582              	acc_backFront:
 1583              	.LFB63:
 462:I2C_Accelerometer.c **** 
 463:I2C_Accelerometer.c **** int acc_backFront(uint8_t orient) {
ARM GAS  C:\Users\Jannai\AppData\Local\Temp\ccb0hbnM.s 			page 39


 1584              		.loc 1 463 0
 1585              		.cfi_startproc
 1586              	.LVL284:
 1587 0000 08B5     		push	{r3, lr}
 1588              		.cfi_def_cfa_offset 8
 1589              		.cfi_offset 3, -8
 1590              		.cfi_offset 14, -4
 464:I2C_Accelerometer.c **** 	return bitRead(orient, BAFRO);
 1591              		.loc 1 464 0
 1592 0002 0021     		mov	r1, #0
 1593 0004 FFF7FEFF 		bl	bitRead
 1594              	.LVL285:
 465:I2C_Accelerometer.c **** }
 1595              		.loc 1 465 0
 1596              		@ sp needed
 1597 0008 08BD     		pop	{r3, pc}
 1598              		.cfi_endproc
 1599              	.LFE63:
 1600              		.size	acc_backFront, .-acc_backFront
 1601              		.comm	debugStr,50,4
 1602 000a C046     		.section	.rodata.str1.4,"aMS",%progbits,1
 1603              		.align	2
 1604              	.LC1:
 1605 0000 74727969 		.ascii	"trying to set bit# %i to 0  %i \000"
 1605      6E672074 
 1605      6F207365 
 1605      74206269 
 1605      74232025 
 1606              	.LC3:
 1607 0020 436F756C 		.ascii	"Could not beginn I2C transmittion (acc), write abor"
 1607      64206E6F 
 1607      74206265 
 1607      67696E6E 
 1607      20493243 
 1608 0053 74656400 		.ascii	"ted\000"
 1609 0057 00       		.space	1
 1610              	.LC5:
 1611 0058 72656753 		.ascii	"regSetBit register was: \000"
 1611      65744269 
 1611      74207265 
 1611      67697374 
 1611      65722077 
 1612 0071 000000   		.space	3
 1613              	.LC7:
 1614 0074 20256920 		.ascii	" %i \000"
 1614      00
 1615 0079 000000   		.space	3
 1616              	.LC9:
 1617 007c 72656753 		.ascii	"regSetBit register is : \000"
 1617      65744269 
 1617      74207265 
 1617      67697374 
 1617      65722069 
 1618 0095 000000   		.space	3
 1619              	.LC14:
 1620 0098 41636320 		.ascii	"Acc X: %i \000"
 1620      583A2025 
ARM GAS  C:\Users\Jannai\AppData\Local\Temp\ccb0hbnM.s 			page 40


 1620      692000
 1621 00a3 00       		.text
 1622              	.Letext0:
 1623              		.file 2 "c:\\program files (x86)\\cypress\\psoc creator\\4.0\\psoc creator\\import\\gnu\\arm\\4.9.
 1624              		.file 3 "c:\\program files (x86)\\cypress\\psoc creator\\4.0\\psoc creator\\import\\gnu\\arm\\4.9.
 1625              		.file 4 "Generated_Source\\PSoC4/cytypes.h"
 1626              		.file 5 "c:\\program files (x86)\\cypress\\psoc creator\\4.0\\psoc creator\\import\\gnu\\arm\\4.9.
 1627              		.file 6 "I2C_Accelerometer.h"
 1628              		.file 7 "Generated_Source\\PSoC4/I2CM_I2C.h"
 1629              		.file 8 "Generated_Source\\PSoC4/SW_TX.h"
 1630              		.file 9 "c:\\program files (x86)\\cypress\\psoc creator\\4.0\\psoc creator\\import\\gnu\\arm\\4.9.
 1631              		.file 10 "Generated_Source\\PSoC4/BLE_Stack.h"
 1632              		.file 11 "common.h"