ARM GAS  C:\Users\Jannai\AppData\Local\Temp\cc9YXdAj.s 			page 1


   1              		.cpu cortex-m0
   2              		.fpu softvfp
   3              		.eabi_attribute 20, 1
   4              		.eabi_attribute 21, 1
   5              		.eabi_attribute 23, 3
   6              		.eabi_attribute 24, 1
   7              		.eabi_attribute 25, 1
   8              		.eabi_attribute 26, 1
   9              		.eabi_attribute 30, 1
  10              		.eabi_attribute 34, 0
  11              		.eabi_attribute 18, 4
  12              		.code	16
  13              		.file	"I2C_EEPROM.c"
  14              		.text
  15              	.Ltext0:
  16              		.cfi_sections	.debug_frame
  17              		.section	.text.readOneByteFromEEPROM,"ax",%progbits
  18              		.align	2
  19              		.global	readOneByteFromEEPROM
  20              		.code	16
  21              		.thumb_func
  22              		.type	readOneByteFromEEPROM, %function
  23              	readOneByteFromEEPROM:
  24              	.LFB37:
  25              		.file 1 "I2C_EEPROM.c"
   1:I2C_EEPROM.c  **** /* ========================================
   2:I2C_EEPROM.c  ****  *
   3:I2C_EEPROM.c  ****  * Copyright YOUR COMPANY, THE YEAR
   4:I2C_EEPROM.c  ****  * All Rights Reserved
   5:I2C_EEPROM.c  ****  * UNPUBLISHED, LICENSED SOFTWARE.
   6:I2C_EEPROM.c  ****  *
   7:I2C_EEPROM.c  ****  * CONFIDENTIAL AND PROPRIETARY INFORMATION
   8:I2C_EEPROM.c  ****  * WHICH IS THE PROPERTY OF your company.
   9:I2C_EEPROM.c  ****  *
  10:I2C_EEPROM.c  ****  * ========================================
  11:I2C_EEPROM.c  **** */
  12:I2C_EEPROM.c  **** 
  13:I2C_EEPROM.c  **** #include "I2C_EEPROM.h"
  14:I2C_EEPROM.c  **** 
  15:I2C_EEPROM.c  **** 
  16:I2C_EEPROM.c  **** uint8 readOneByteFromEEPROM(uint8 regAdr)
  17:I2C_EEPROM.c  **** {
  26              		.loc 1 17 0
  27              		.cfi_startproc
  28              	.LVL0:
  29 0000 10B5     		push	{r4, lr}
  30              		.cfi_def_cfa_offset 8
  31              		.cfi_offset 4, -8
  32              		.cfi_offset 14, -4
  33 0002 041C     		mov	r4, r0
  18:I2C_EEPROM.c  ****    
  19:I2C_EEPROM.c  ****     CyDelay(2);
  34              		.loc 1 19 0
  35 0004 0220     		mov	r0, #2
  36              	.LVL1:
  37 0006 FFF7FEFF 		bl	CyDelay
  38              	.LVL2:
ARM GAS  C:\Users\Jannai\AppData\Local\Temp\cc9YXdAj.s 			page 2


  20:I2C_EEPROM.c  ****     
  21:I2C_EEPROM.c  ****     //first do a dummy write to set current address to regAdr
  22:I2C_EEPROM.c  ****     uint8 value;
  23:I2C_EEPROM.c  ****     
  24:I2C_EEPROM.c  ****     //clear master status
  25:I2C_EEPROM.c  ****     //uint8 status = I2CM_I2CMasterClearStatus();  
  26:I2C_EEPROM.c  ****     //debugI2CMasterStatus(status);
  27:I2C_EEPROM.c  ****     uint8 indicator = I2CM_I2CMasterSendStart(EEPROM_ADDRESS, I2CM_I2C_WRITE_XFER_MODE);
  39              		.loc 1 27 0
  40 000a 5020     		mov	r0, #80
  41 000c 0021     		mov	r1, #0
  42 000e FFF7FEFF 		bl	I2CM_I2CMasterSendStart
  43              	.LVL3:
  44 0012 C0B2     		uxtb	r0, r0
  45              	.LVL4:
  28:I2C_EEPROM.c  ****     //debugI2CTransfer(indicator);
  29:I2C_EEPROM.c  ****     
  30:I2C_EEPROM.c  ****     //do transfer if ready
  31:I2C_EEPROM.c  ****     if(indicator == I2CM_I2C_MSTR_NO_ERROR)
  46              		.loc 1 31 0
  47 0014 0028     		cmp	r0, #0
  48 0016 03D1     		bne	.L2
  32:I2C_EEPROM.c  ****     {
  33:I2C_EEPROM.c  ****         I2CM_I2CMasterWriteByte(regAdr);
  49              		.loc 1 33 0
  50 0018 201C     		mov	r0, r4
  51              	.LVL5:
  52 001a FFF7FEFF 		bl	I2CM_I2CMasterWriteByte
  53              	.LVL6:
  54 001e 04E0     		b	.L3
  55              	.LVL7:
  56              	.L2:
  34:I2C_EEPROM.c  ****     }
  35:I2C_EEPROM.c  ****     else
  36:I2C_EEPROM.c  ****     {
  37:I2C_EEPROM.c  ****         SW_TX_PutString("Could not beginn I2C transmittion (EEPROM, read), read aborted"); SW_TX_Pu
  57              		.loc 1 37 0
  58 0020 0848     		ldr	r0, .L4
  59              	.LVL8:
  60 0022 FFF7FEFF 		bl	SW_TX_PutString
  61              	.LVL9:
  62 0026 FFF7FEFF 		bl	SW_TX_PutCRLF
  63              	.LVL10:
  64              	.L3:
  38:I2C_EEPROM.c  ****         
  39:I2C_EEPROM.c  ****         }
  40:I2C_EEPROM.c  ****         
  41:I2C_EEPROM.c  ****     //now send another (re)start condition to initiate reading process
  42:I2C_EEPROM.c  ****     indicator = I2CM_I2CMasterSendRestart(EEPROM_ADDRESS, I2CM_I2C_READ_XFER_MODE);
  65              		.loc 1 42 0
  66 002a 5020     		mov	r0, #80
  67 002c 0121     		mov	r1, #1
  68 002e FFF7FEFF 		bl	I2CM_I2CMasterSendRestart
  69              	.LVL11:
  43:I2C_EEPROM.c  ****     //debugI2CTransfer(indicator);
  44:I2C_EEPROM.c  ****     
  45:I2C_EEPROM.c  ****     value = I2CM_I2CMasterReadByte(I2CM_I2C_NAK_DATA);
ARM GAS  C:\Users\Jannai\AppData\Local\Temp\cc9YXdAj.s 			page 3


  70              		.loc 1 45 0
  71 0032 0120     		mov	r0, #1
  72 0034 FFF7FEFF 		bl	I2CM_I2CMasterReadByte
  73              	.LVL12:
  74 0038 C4B2     		uxtb	r4, r0
  75              	.LVL13:
  46:I2C_EEPROM.c  ****     I2CM_I2CMasterSendStop();
  76              		.loc 1 46 0
  77 003a FFF7FEFF 		bl	I2CM_I2CMasterSendStop
  78              	.LVL14:
  47:I2C_EEPROM.c  ****     
  48:I2C_EEPROM.c  ****     return value;
  49:I2C_EEPROM.c  **** }
  79              		.loc 1 49 0
  80 003e 201C     		mov	r0, r4
  81              		@ sp needed
  82              	.LVL15:
  83 0040 10BD     		pop	{r4, pc}
  84              	.L5:
  85 0042 C046     		.align	2
  86              	.L4:
  87 0044 00000000 		.word	.LC0
  88              		.cfi_endproc
  89              	.LFE37:
  90              		.size	readOneByteFromEEPROM, .-readOneByteFromEEPROM
  91              		.section	.text.readFloat32FromEEPROM,"ax",%progbits
  92              		.align	2
  93              		.global	readFloat32FromEEPROM
  94              		.code	16
  95              		.thumb_func
  96              		.type	readFloat32FromEEPROM, %function
  97              	readFloat32FromEEPROM:
  98              	.LFB38:
  50:I2C_EEPROM.c  **** 
  51:I2C_EEPROM.c  **** float32 readFloat32FromEEPROM(uint8 regAdr)
  52:I2C_EEPROM.c  **** {
  99              		.loc 1 52 0
 100              		.cfi_startproc
 101              	.LVL16:
 102 0000 F8B5     		push	{r3, r4, r5, r6, r7, lr}
 103              		.cfi_def_cfa_offset 24
 104              		.cfi_offset 3, -24
 105              		.cfi_offset 4, -20
 106              		.cfi_offset 5, -16
 107              		.cfi_offset 6, -12
 108              		.cfi_offset 7, -8
 109              		.cfi_offset 14, -4
 110 0002 041C     		mov	r4, r0
  53:I2C_EEPROM.c  ****     CyDelay(5);
 111              		.loc 1 53 0
 112 0004 0520     		mov	r0, #5
 113              	.LVL17:
 114 0006 FFF7FEFF 		bl	CyDelay
 115              	.LVL18:
  54:I2C_EEPROM.c  ****     
  55:I2C_EEPROM.c  ****      //first do a dummy write to set current address to regAdr
  56:I2C_EEPROM.c  ****     uint8 byte1, byte2, byte3, byte4;
ARM GAS  C:\Users\Jannai\AppData\Local\Temp\cc9YXdAj.s 			page 4


  57:I2C_EEPROM.c  ****     
  58:I2C_EEPROM.c  ****     //clear master status
  59:I2C_EEPROM.c  ****     uint8 status = I2CM_I2CMasterClearStatus();  
 116              		.loc 1 59 0
 117 000a FFF7FEFF 		bl	I2CM_I2CMasterClearStatus
 118              	.LVL19:
  60:I2C_EEPROM.c  ****     //debugI2CMasterStatus(status);
  61:I2C_EEPROM.c  ****     uint8 indicator = I2CM_I2CMasterSendStart(EEPROM_ADDRESS, I2CM_I2C_WRITE_XFER_MODE);
 119              		.loc 1 61 0
 120 000e 5020     		mov	r0, #80
 121 0010 0021     		mov	r1, #0
 122 0012 FFF7FEFF 		bl	I2CM_I2CMasterSendStart
 123              	.LVL20:
 124 0016 C0B2     		uxtb	r0, r0
 125              	.LVL21:
  62:I2C_EEPROM.c  ****     //debugI2CTransfer(indicator);
  63:I2C_EEPROM.c  ****     
  64:I2C_EEPROM.c  ****     //do transfer if ready
  65:I2C_EEPROM.c  ****     if(indicator == I2CM_I2C_MSTR_NO_ERROR)
 126              		.loc 1 65 0
 127 0018 0028     		cmp	r0, #0
 128 001a 03D1     		bne	.L7
  66:I2C_EEPROM.c  ****     {
  67:I2C_EEPROM.c  ****         I2CM_I2CMasterWriteByte(regAdr);
 129              		.loc 1 67 0
 130 001c 201C     		mov	r0, r4
 131              	.LVL22:
 132 001e FFF7FEFF 		bl	I2CM_I2CMasterWriteByte
 133              	.LVL23:
 134 0022 04E0     		b	.L8
 135              	.LVL24:
 136              	.L7:
  68:I2C_EEPROM.c  ****     }
  69:I2C_EEPROM.c  ****     else
  70:I2C_EEPROM.c  ****     {
  71:I2C_EEPROM.c  ****         SW_TX_PutString("Could not beginn I2C transmittion (EEPROM, read), read aborted"); SW_TX_Pu
 137              		.loc 1 71 0
 138 0024 1348     		ldr	r0, .L9
 139              	.LVL25:
 140 0026 FFF7FEFF 		bl	SW_TX_PutString
 141              	.LVL26:
 142 002a FFF7FEFF 		bl	SW_TX_PutCRLF
 143              	.LVL27:
 144              	.L8:
  72:I2C_EEPROM.c  ****     }
  73:I2C_EEPROM.c  ****         
  74:I2C_EEPROM.c  ****     //now send another (re)start condition to initiate reading process
  75:I2C_EEPROM.c  ****     indicator = I2CM_I2CMasterSendRestart(EEPROM_ADDRESS, I2CM_I2C_READ_XFER_MODE);
 145              		.loc 1 75 0
 146 002e 5020     		mov	r0, #80
 147 0030 0121     		mov	r1, #1
 148 0032 FFF7FEFF 		bl	I2CM_I2CMasterSendRestart
 149              	.LVL28:
  76:I2C_EEPROM.c  ****     //debugI2CTransfer(indicator);
  77:I2C_EEPROM.c  ****     
  78:I2C_EEPROM.c  ****     byte1 = I2CM_I2CMasterReadByte(I2CM_I2C_ACK_DATA);
 150              		.loc 1 78 0
ARM GAS  C:\Users\Jannai\AppData\Local\Temp\cc9YXdAj.s 			page 5


 151 0036 0020     		mov	r0, #0
 152 0038 FFF7FEFF 		bl	I2CM_I2CMasterReadByte
 153              	.LVL29:
 154 003c 061C     		mov	r6, r0
 155              	.LVL30:
  79:I2C_EEPROM.c  ****     byte2 = I2CM_I2CMasterReadByte(I2CM_I2C_ACK_DATA);
 156              		.loc 1 79 0
 157 003e 0020     		mov	r0, #0
 158 0040 FFF7FEFF 		bl	I2CM_I2CMasterReadByte
 159              	.LVL31:
 160 0044 041C     		mov	r4, r0
 161              	.LVL32:
  80:I2C_EEPROM.c  ****     byte3 = I2CM_I2CMasterReadByte(I2CM_I2C_ACK_DATA);
 162              		.loc 1 80 0
 163 0046 0020     		mov	r0, #0
 164 0048 FFF7FEFF 		bl	I2CM_I2CMasterReadByte
 165              	.LVL33:
 166 004c 051C     		mov	r5, r0
 167              	.LVL34:
  81:I2C_EEPROM.c  ****     byte4 = I2CM_I2CMasterReadByte(I2CM_I2C_NAK_DATA);
 168              		.loc 1 81 0
 169 004e 0120     		mov	r0, #1
 170 0050 FFF7FEFF 		bl	I2CM_I2CMasterReadByte
 171              	.LVL35:
 172 0054 071C     		mov	r7, r0
 173              	.LVL36:
  82:I2C_EEPROM.c  ****     I2CM_I2CMasterSendStop();
 174              		.loc 1 82 0
 175 0056 FFF7FEFF 		bl	I2CM_I2CMasterSendStop
 176              	.LVL37:
 177 005a FF23     		mov	r3, #255
  83:I2C_EEPROM.c  ****     
  84:I2C_EEPROM.c  ****     //sprintf(debugStr, "float bytes: %i, %i, %i, %i", byte1, byte2, byte3, byte4);
  85:I2C_EEPROM.c  ****     //SW_TX_PutString(debugStr);
  86:I2C_EEPROM.c  ****     
  87:I2C_EEPROM.c  ****     //build float from four bytes
  88:I2C_EEPROM.c  ****     uint32_t iHelper = byte4<<24 | byte3<<16 | byte2<<8 | byte1;
 178              		.loc 1 88 0
 179 005c 3806     		lsl	r0, r7, #24
 180 005e 1D40     		and	r5, r3
 181              	.LVL38:
 182 0060 2D04     		lsl	r5, r5, #16
 183 0062 2843     		orr	r0, r5
 184 0064 1C40     		and	r4, r3
 185              	.LVL39:
 186 0066 2402     		lsl	r4, r4, #8
 187 0068 0443     		orr	r4, r0
 188 006a 3340     		and	r3, r6
 189 006c 181C     		mov	r0, r3
 190              	.LVL40:
  89:I2C_EEPROM.c  ****     float32 f = *((float32*)&iHelper);
 191              		.loc 1 89 0
 192 006e 2043     		orr	r0, r4
 193              	.LVL41:
  90:I2C_EEPROM.c  ****     
  91:I2C_EEPROM.c  ****     return f;
  92:I2C_EEPROM.c  **** }
ARM GAS  C:\Users\Jannai\AppData\Local\Temp\cc9YXdAj.s 			page 6


 194              		.loc 1 92 0
 195              		@ sp needed
 196              	.LVL42:
 197              	.LVL43:
 198 0070 F8BD     		pop	{r3, r4, r5, r6, r7, pc}
 199              	.L10:
 200 0072 C046     		.align	2
 201              	.L9:
 202 0074 00000000 		.word	.LC0
 203              		.cfi_endproc
 204              	.LFE38:
 205              		.size	readFloat32FromEEPROM, .-readFloat32FromEEPROM
 206              		.section	.text.readUint16FromEEPROM,"ax",%progbits
 207              		.align	2
 208              		.global	readUint16FromEEPROM
 209              		.code	16
 210              		.thumb_func
 211              		.type	readUint16FromEEPROM, %function
 212              	readUint16FromEEPROM:
 213              	.LFB39:
  93:I2C_EEPROM.c  **** 
  94:I2C_EEPROM.c  ****     
  95:I2C_EEPROM.c  **** 
  96:I2C_EEPROM.c  **** uint16 readUint16FromEEPROM(uint8 regAdr)
  97:I2C_EEPROM.c  **** {
 214              		.loc 1 97 0
 215              		.cfi_startproc
 216              	.LVL44:
 217 0000 38B5     		push	{r3, r4, r5, lr}
 218              		.cfi_def_cfa_offset 16
 219              		.cfi_offset 3, -16
 220              		.cfi_offset 4, -12
 221              		.cfi_offset 5, -8
 222              		.cfi_offset 14, -4
 223 0002 041C     		mov	r4, r0
  98:I2C_EEPROM.c  ****     CyDelay(5);
 224              		.loc 1 98 0
 225 0004 0520     		mov	r0, #5
 226              	.LVL45:
 227 0006 FFF7FEFF 		bl	CyDelay
 228              	.LVL46:
  99:I2C_EEPROM.c  ****     
 100:I2C_EEPROM.c  ****      //first do a dummy write to set current address to regAdr
 101:I2C_EEPROM.c  ****     uint8 byte1, byte2;
 102:I2C_EEPROM.c  ****     
 103:I2C_EEPROM.c  ****     //clear master status
 104:I2C_EEPROM.c  ****     uint8 status = I2CM_I2CMasterClearStatus();  
 229              		.loc 1 104 0
 230 000a FFF7FEFF 		bl	I2CM_I2CMasterClearStatus
 231              	.LVL47:
 105:I2C_EEPROM.c  ****     //debugI2CMasterStatus(status);
 106:I2C_EEPROM.c  ****     uint8 indicator = I2CM_I2CMasterSendStart(EEPROM_ADDRESS, I2CM_I2C_WRITE_XFER_MODE);
 232              		.loc 1 106 0
 233 000e 5020     		mov	r0, #80
 234 0010 0021     		mov	r1, #0
 235 0012 FFF7FEFF 		bl	I2CM_I2CMasterSendStart
 236              	.LVL48:
ARM GAS  C:\Users\Jannai\AppData\Local\Temp\cc9YXdAj.s 			page 7


 237 0016 C0B2     		uxtb	r0, r0
 238              	.LVL49:
 107:I2C_EEPROM.c  ****     //debugI2CTransfer(indicator);
 108:I2C_EEPROM.c  ****     
 109:I2C_EEPROM.c  ****     //do transfer if ready
 110:I2C_EEPROM.c  ****     if(indicator == I2CM_I2C_MSTR_NO_ERROR)
 239              		.loc 1 110 0
 240 0018 0028     		cmp	r0, #0
 241 001a 03D1     		bne	.L12
 111:I2C_EEPROM.c  ****     {
 112:I2C_EEPROM.c  ****         I2CM_I2CMasterWriteByte(regAdr);
 242              		.loc 1 112 0
 243 001c 201C     		mov	r0, r4
 244              	.LVL50:
 245 001e FFF7FEFF 		bl	I2CM_I2CMasterWriteByte
 246              	.LVL51:
 247 0022 04E0     		b	.L13
 248              	.LVL52:
 249              	.L12:
 113:I2C_EEPROM.c  ****     }
 114:I2C_EEPROM.c  ****     else
 115:I2C_EEPROM.c  ****     {
 116:I2C_EEPROM.c  ****         SW_TX_PutString("Could not beginn I2C transmittion (EEPROM, read), read aborted"); SW_TX_Pu
 250              		.loc 1 116 0
 251 0024 0B48     		ldr	r0, .L14
 252              	.LVL53:
 253 0026 FFF7FEFF 		bl	SW_TX_PutString
 254              	.LVL54:
 255 002a FFF7FEFF 		bl	SW_TX_PutCRLF
 256              	.LVL55:
 257              	.L13:
 117:I2C_EEPROM.c  ****         
 118:I2C_EEPROM.c  ****         }
 119:I2C_EEPROM.c  ****         
 120:I2C_EEPROM.c  ****     //now send another (re)start condition to initiate reading process
 121:I2C_EEPROM.c  ****     indicator = I2CM_I2CMasterSendRestart(EEPROM_ADDRESS, I2CM_I2C_READ_XFER_MODE);
 258              		.loc 1 121 0
 259 002e 5020     		mov	r0, #80
 260 0030 0121     		mov	r1, #1
 261 0032 FFF7FEFF 		bl	I2CM_I2CMasterSendRestart
 262              	.LVL56:
 122:I2C_EEPROM.c  ****     //debugI2CTransfer(indicator);
 123:I2C_EEPROM.c  ****     
 124:I2C_EEPROM.c  ****     byte1 = I2CM_I2CMasterReadByte(I2CM_I2C_ACK_DATA);
 263              		.loc 1 124 0
 264 0036 0020     		mov	r0, #0
 265 0038 FFF7FEFF 		bl	I2CM_I2CMasterReadByte
 266              	.LVL57:
 267 003c C4B2     		uxtb	r4, r0
 268              	.LVL58:
 125:I2C_EEPROM.c  ****     byte2 = I2CM_I2CMasterReadByte(I2CM_I2C_NAK_DATA);
 269              		.loc 1 125 0
 270 003e 0120     		mov	r0, #1
 271 0040 FFF7FEFF 		bl	I2CM_I2CMasterReadByte
 272              	.LVL59:
 273 0044 051C     		mov	r5, r0
 274              	.LVL60:
ARM GAS  C:\Users\Jannai\AppData\Local\Temp\cc9YXdAj.s 			page 8


 126:I2C_EEPROM.c  ****     I2CM_I2CMasterSendStop();
 275              		.loc 1 126 0
 276 0046 FFF7FEFF 		bl	I2CM_I2CMasterSendStop
 277              	.LVL61:
 278 004a FF20     		mov	r0, #255
 279 004c 2840     		and	r0, r5
 127:I2C_EEPROM.c  ****     
 128:I2C_EEPROM.c  ****     //build uint16 from two bytes
 129:I2C_EEPROM.c  ****     uint16 output = byte2<<8 | byte1;
 280              		.loc 1 129 0
 281 004e 0002     		lsl	r0, r0, #8
 282 0050 2043     		orr	r0, r4
 283              	.LVL62:
 130:I2C_EEPROM.c  ****     
 131:I2C_EEPROM.c  ****     
 132:I2C_EEPROM.c  ****     return output;
 133:I2C_EEPROM.c  **** }
 284              		.loc 1 133 0
 285              		@ sp needed
 286              	.LVL63:
 287              	.LVL64:
 288 0052 38BD     		pop	{r3, r4, r5, pc}
 289              	.L15:
 290              		.align	2
 291              	.L14:
 292 0054 00000000 		.word	.LC0
 293              		.cfi_endproc
 294              	.LFE39:
 295              		.size	readUint16FromEEPROM, .-readUint16FromEEPROM
 296              		.section	.text.writeOneByteToEEPROM,"ax",%progbits
 297              		.align	2
 298              		.global	writeOneByteToEEPROM
 299              		.code	16
 300              		.thumb_func
 301              		.type	writeOneByteToEEPROM, %function
 302              	writeOneByteToEEPROM:
 303              	.LFB40:
 134:I2C_EEPROM.c  **** 
 135:I2C_EEPROM.c  **** /*uint16 readint16FromEEPROM(uint8 regAdr)
 136:I2C_EEPROM.c  **** {
 137:I2C_EEPROM.c  ****     CyDelay(5);
 138:I2C_EEPROM.c  ****     
 139:I2C_EEPROM.c  ****      //first do a dummy write to set current address to regAdr
 140:I2C_EEPROM.c  ****     uint8 byte1, byte2;
 141:I2C_EEPROM.c  ****     
 142:I2C_EEPROM.c  ****     //clear master status
 143:I2C_EEPROM.c  ****     uint8 status = I2CM_I2CMasterClearStatus();  
 144:I2C_EEPROM.c  ****     //debugI2CMasterStatus(status);
 145:I2C_EEPROM.c  ****     uint8 indicator = I2CM_I2CMasterSendStart(EEPROM_ADDRESS, I2CM_I2C_WRITE_XFER_MODE);
 146:I2C_EEPROM.c  ****     //debugI2CTransfer(indicator);
 147:I2C_EEPROM.c  ****     
 148:I2C_EEPROM.c  ****     //do transfer if ready
 149:I2C_EEPROM.c  ****     if(indicator == I2CM_I2C_MSTR_NO_ERROR)
 150:I2C_EEPROM.c  ****     {
 151:I2C_EEPROM.c  ****         I2CM_I2CMasterWriteByte(regAdr);
 152:I2C_EEPROM.c  ****     }
 153:I2C_EEPROM.c  ****     else
ARM GAS  C:\Users\Jannai\AppData\Local\Temp\cc9YXdAj.s 			page 9


 154:I2C_EEPROM.c  ****     {
 155:I2C_EEPROM.c  ****         SW_TX_PutString("Could not beginn I2C transmittion (EEPROM, read), read aborted"); SW_TX_Pu
 156:I2C_EEPROM.c  ****     }
 157:I2C_EEPROM.c  ****         
 158:I2C_EEPROM.c  ****     //now send another (re)start condition to initiate reading process
 159:I2C_EEPROM.c  ****     indicator = I2CM_I2CMasterSendRestart(EEPROM_ADDRESS, I2CM_I2C_READ_XFER_MODE);
 160:I2C_EEPROM.c  ****     //debugI2CTransfer(indicator);
 161:I2C_EEPROM.c  ****     
 162:I2C_EEPROM.c  ****     byte1 = I2CM_I2CMasterReadByte(I2CM_I2C_ACK_DATA);
 163:I2C_EEPROM.c  ****     byte2 = I2CM_I2CMasterReadByte(I2CM_I2C_NAK_DATA);
 164:I2C_EEPROM.c  ****     I2CM_I2CMasterSendStop();
 165:I2C_EEPROM.c  ****     
 166:I2C_EEPROM.c  ****     //build uint16 from two bytes
 167:I2C_EEPROM.c  ****     int16 output = byte2<<8 | byte1;
 168:I2C_EEPROM.c  ****     
 169:I2C_EEPROM.c  ****     
 170:I2C_EEPROM.c  ****     return output;
 171:I2C_EEPROM.c  **** }*/
 172:I2C_EEPROM.c  **** 
 173:I2C_EEPROM.c  **** 
 174:I2C_EEPROM.c  **** void writeOneByteToEEPROM(uint8 regAdr, uint8 value)    
 175:I2C_EEPROM.c  **** {    
 304              		.loc 1 175 0
 305              		.cfi_startproc
 306              	.LVL65:
 307 0000 70B5     		push	{r4, r5, r6, lr}
 308              		.cfi_def_cfa_offset 16
 309              		.cfi_offset 4, -16
 310              		.cfi_offset 5, -12
 311              		.cfi_offset 6, -8
 312              		.cfi_offset 14, -4
 313 0002 061C     		mov	r6, r0
 314 0004 0D1C     		mov	r5, r1
 176:I2C_EEPROM.c  ****     CyDelay(5);
 315              		.loc 1 176 0
 316 0006 0520     		mov	r0, #5
 317              	.LVL66:
 318 0008 FFF7FEFF 		bl	CyDelay
 319              	.LVL67:
 177:I2C_EEPROM.c  ****     
 178:I2C_EEPROM.c  ****     //clear master status
 179:I2C_EEPROM.c  ****     uint8 status = I2CM_I2CMasterClearStatus();
 320              		.loc 1 179 0
 321 000c FFF7FEFF 		bl	I2CM_I2CMasterClearStatus
 322              	.LVL68:
 180:I2C_EEPROM.c  ****     //debugI2CMasterStatus(status);
 181:I2C_EEPROM.c  ****     
 182:I2C_EEPROM.c  ****     uint8 indicator = I2CM_I2CMasterSendStart(EEPROM_ADDRESS, I2CM_I2C_WRITE_XFER_MODE);
 323              		.loc 1 182 0
 324 0010 5020     		mov	r0, #80
 325 0012 0021     		mov	r1, #0
 326 0014 FFF7FEFF 		bl	I2CM_I2CMasterSendStart
 327              	.LVL69:
 328 0018 C4B2     		uxtb	r4, r0
 329              	.LVL70:
 183:I2C_EEPROM.c  ****     //debugI2CTransfer(indicator);
 184:I2C_EEPROM.c  ****     
ARM GAS  C:\Users\Jannai\AppData\Local\Temp\cc9YXdAj.s 			page 10


 185:I2C_EEPROM.c  ****     CyDelay(2);
 330              		.loc 1 185 0
 331 001a 0220     		mov	r0, #2
 332 001c FFF7FEFF 		bl	CyDelay
 333              	.LVL71:
 186:I2C_EEPROM.c  ****     //do transfer if ready
 187:I2C_EEPROM.c  ****     if(indicator == I2CM_I2C_MSTR_NO_ERROR)
 334              		.loc 1 187 0
 335 0020 002C     		cmp	r4, #0
 336 0022 03D1     		bne	.L17
 188:I2C_EEPROM.c  ****     {
 189:I2C_EEPROM.c  ****         I2CM_I2CMasterWriteByte(regAdr);
 337              		.loc 1 189 0
 338 0024 301C     		mov	r0, r6
 339 0026 FFF7FEFF 		bl	I2CM_I2CMasterWriteByte
 340              	.LVL72:
 341 002a 04E0     		b	.L18
 342              	.L17:
 190:I2C_EEPROM.c  ****         //debugI2CTransfer(indicator);
 191:I2C_EEPROM.c  ****     }
 192:I2C_EEPROM.c  ****     else
 193:I2C_EEPROM.c  ****     {
 194:I2C_EEPROM.c  ****         SW_TX_PutString("Could not beginn I2C transmittion (EEPROM), write aborted"); SW_TX_PutCRLF
 343              		.loc 1 194 0
 344 002c 0548     		ldr	r0, .L19
 345 002e FFF7FEFF 		bl	SW_TX_PutString
 346              	.LVL73:
 347 0032 FFF7FEFF 		bl	SW_TX_PutCRLF
 348              	.LVL74:
 349              	.L18:
 195:I2C_EEPROM.c  ****     }
 196:I2C_EEPROM.c  ****     
 197:I2C_EEPROM.c  ****     I2CM_I2CMasterWriteByte(value);
 350              		.loc 1 197 0
 351 0036 281C     		mov	r0, r5
 352 0038 FFF7FEFF 		bl	I2CM_I2CMasterWriteByte
 353              	.LVL75:
 198:I2C_EEPROM.c  ****     I2CM_I2CMasterSendStop();
 354              		.loc 1 198 0
 355 003c FFF7FEFF 		bl	I2CM_I2CMasterSendStop
 356              	.LVL76:
 199:I2C_EEPROM.c  ****     
 200:I2C_EEPROM.c  **** }
 357              		.loc 1 200 0
 358              		@ sp needed
 359              	.LVL77:
 360 0040 70BD     		pop	{r4, r5, r6, pc}
 361              	.L20:
 362 0042 C046     		.align	2
 363              	.L19:
 364 0044 40000000 		.word	.LC4
 365              		.cfi_endproc
 366              	.LFE40:
 367              		.size	writeOneByteToEEPROM, .-writeOneByteToEEPROM
 368              		.section	.text.writeUint16ToEEPROM,"ax",%progbits
 369              		.align	2
 370              		.global	writeUint16ToEEPROM
ARM GAS  C:\Users\Jannai\AppData\Local\Temp\cc9YXdAj.s 			page 11


 371              		.code	16
 372              		.thumb_func
 373              		.type	writeUint16ToEEPROM, %function
 374              	writeUint16ToEEPROM:
 375              	.LFB41:
 201:I2C_EEPROM.c  **** 
 202:I2C_EEPROM.c  **** void writeUint16ToEEPROM(uint8 regAdr, uint16 value)
 203:I2C_EEPROM.c  **** {    
 376              		.loc 1 203 0
 377              		.cfi_startproc
 378              	.LVL78:
 379 0000 30B5     		push	{r4, r5, lr}
 380              		.cfi_def_cfa_offset 12
 381              		.cfi_offset 4, -12
 382              		.cfi_offset 5, -8
 383              		.cfi_offset 14, -4
 384 0002 85B0     		sub	sp, sp, #20
 385              		.cfi_def_cfa_offset 32
 386 0004 041C     		mov	r4, r0
 204:I2C_EEPROM.c  ****     //first split uint16 into both bytes
 205:I2C_EEPROM.c  ****     uint8 helperTwoBytes[sizeof(uint16) ];
 206:I2C_EEPROM.c  ****     memcpy( helperTwoBytes, & value, sizeof(uint16) );
 387              		.loc 1 206 0
 388 0006 03AD     		add	r5, sp, #12
 389 0008 6B46     		mov	r3, sp
 390 000a D980     		strh	r1, [r3, #6]
 391 000c 2980     		strh	r1, [r5]
 207:I2C_EEPROM.c  ****     
 208:I2C_EEPROM.c  ****     //now write both bytes to EEPROM. This is done by single byte write operations to prevent page 
 209:I2C_EEPROM.c  ****     writeOneByteToEEPROM(regAdr, helperTwoBytes[0]); 
 392              		.loc 1 209 0
 393 000e C9B2     		uxtb	r1, r1
 394              	.LVL79:
 395 0010 FFF7FEFF 		bl	writeOneByteToEEPROM
 396              	.LVL80:
 210:I2C_EEPROM.c  ****     writeOneByteToEEPROM(regAdr + 1, helperTwoBytes[1]);
 397              		.loc 1 210 0
 398 0014 0134     		add	r4, r4, #1
 399 0016 E0B2     		uxtb	r0, r4
 400 0018 6978     		ldrb	r1, [r5, #1]
 401 001a FFF7FEFF 		bl	writeOneByteToEEPROM
 402              	.LVL81:
 211:I2C_EEPROM.c  **** }
 403              		.loc 1 211 0
 404 001e 05B0     		add	sp, sp, #20
 405              		@ sp needed
 406              	.LVL82:
 407 0020 30BD     		pop	{r4, r5, pc}
 408              		.cfi_endproc
 409              	.LFE41:
 410              		.size	writeUint16ToEEPROM, .-writeUint16ToEEPROM
 411 0022 C046     		.section	.text.writeFloat32ToEEPROM,"ax",%progbits
 412              		.align	2
 413              		.global	writeFloat32ToEEPROM
 414              		.code	16
 415              		.thumb_func
 416              		.type	writeFloat32ToEEPROM, %function
ARM GAS  C:\Users\Jannai\AppData\Local\Temp\cc9YXdAj.s 			page 12


 417              	writeFloat32ToEEPROM:
 418              	.LFB42:
 212:I2C_EEPROM.c  **** 
 213:I2C_EEPROM.c  **** void writeFloat32ToEEPROM(uint8 regAdr, float32 value)
 214:I2C_EEPROM.c  **** {
 419              		.loc 1 214 0
 420              		.cfi_startproc
 421              	.LVL83:
 422 0000 30B5     		push	{r4, r5, lr}
 423              		.cfi_def_cfa_offset 12
 424              		.cfi_offset 4, -12
 425              		.cfi_offset 5, -8
 426              		.cfi_offset 14, -4
 427 0002 85B0     		sub	sp, sp, #20
 428              		.cfi_def_cfa_offset 32
 429 0004 041C     		mov	r4, r0
 215:I2C_EEPROM.c  ****     //first split float32 into four bytes
 216:I2C_EEPROM.c  ****     uint8 helperTwoBytes[sizeof(float32) ];
 217:I2C_EEPROM.c  ****     memcpy( helperTwoBytes, & value, sizeof(float32) );
 430              		.loc 1 217 0
 431 0006 03AD     		add	r5, sp, #12
 432 0008 0191     		str	r1, [sp, #4]
 433 000a 019B     		ldr	r3, [sp, #4]
 434 000c 0393     		str	r3, [sp, #12]
 218:I2C_EEPROM.c  ****     
 219:I2C_EEPROM.c  ****     //now write both bytes to EEPROM. This is done by single byte write operations to prevent page 
 220:I2C_EEPROM.c  ****     writeOneByteToEEPROM(regAdr, helperTwoBytes[0]); 
 435              		.loc 1 220 0
 436 000e D9B2     		uxtb	r1, r3
 437              	.LVL84:
 438 0010 FFF7FEFF 		bl	writeOneByteToEEPROM
 439              	.LVL85:
 221:I2C_EEPROM.c  ****     writeOneByteToEEPROM(regAdr + 1, helperTwoBytes[1]);
 440              		.loc 1 221 0
 441 0014 601C     		add	r0, r4, #1
 442 0016 C0B2     		uxtb	r0, r0
 443 0018 6978     		ldrb	r1, [r5, #1]
 444 001a FFF7FEFF 		bl	writeOneByteToEEPROM
 445              	.LVL86:
 222:I2C_EEPROM.c  ****     writeOneByteToEEPROM(regAdr + 2, helperTwoBytes[2]);
 446              		.loc 1 222 0
 447 001e A01C     		add	r0, r4, #2
 448 0020 C0B2     		uxtb	r0, r0
 449 0022 A978     		ldrb	r1, [r5, #2]
 450 0024 FFF7FEFF 		bl	writeOneByteToEEPROM
 451              	.LVL87:
 223:I2C_EEPROM.c  ****     writeOneByteToEEPROM(regAdr + 3, helperTwoBytes[3]);
 452              		.loc 1 223 0
 453 0028 0334     		add	r4, r4, #3
 454 002a E0B2     		uxtb	r0, r4
 455 002c E978     		ldrb	r1, [r5, #3]
 456 002e FFF7FEFF 		bl	writeOneByteToEEPROM
 457              	.LVL88:
 224:I2C_EEPROM.c  **** }
 458              		.loc 1 224 0
 459 0032 05B0     		add	sp, sp, #20
 460              		@ sp needed
ARM GAS  C:\Users\Jannai\AppData\Local\Temp\cc9YXdAj.s 			page 13


 461 0034 30BD     		pop	{r4, r5, pc}
 462              		.cfi_endproc
 463              	.LFE42:
 464              		.size	writeFloat32ToEEPROM, .-writeFloat32ToEEPROM
 465 0036 C046     		.section	.text.debugI2CMasterStatus,"ax",%progbits
 466              		.align	2
 467              		.global	debugI2CMasterStatus
 468              		.code	16
 469              		.thumb_func
 470              		.type	debugI2CMasterStatus, %function
 471              	debugI2CMasterStatus:
 472              	.LFB43:
 225:I2C_EEPROM.c  **** 
 226:I2C_EEPROM.c  **** void debugI2CMasterStatus(uint32 status)
 227:I2C_EEPROM.c  **** {
 473              		.loc 1 227 0
 474              		.cfi_startproc
 475              	.LVL89:
 476 0000 08B5     		push	{r3, lr}
 477              		.cfi_def_cfa_offset 8
 478              		.cfi_offset 3, -8
 479              		.cfi_offset 14, -4
 228:I2C_EEPROM.c  ****     switch(status)
 480              		.loc 1 228 0
 481 0002 1028     		cmp	r0, #16
 482 0004 45D0     		beq	.L25
 483 0006 0CD8     		bhi	.L26
 484 0008 0228     		cmp	r0, #2
 485 000a 2BD0     		beq	.L27
 486 000c 04D8     		bhi	.L28
 487 000e 0028     		cmp	r0, #0
 488 0010 18D0     		beq	.L29
 489 0012 0128     		cmp	r0, #1
 490 0014 1BD0     		beq	.L30
 491 0016 65E0     		b	.L24
 492              	.L28:
 493 0018 0428     		cmp	r0, #4
 494 001a 2ED0     		beq	.L31
 495 001c 0828     		cmp	r0, #8
 496 001e 32D0     		beq	.L32
 497 0020 60E0     		b	.L24
 498              	.L26:
 499 0022 8028     		cmp	r0, #128
 500 0024 52D0     		beq	.L33
 501 0026 04D8     		bhi	.L34
 502 0028 2028     		cmp	r0, #32
 503 002a 3DD0     		beq	.L35
 504 002c 4028     		cmp	r0, #64
 505 002e 41D0     		beq	.L36
 506 0030 58E0     		b	.L24
 507              	.L34:
 508 0032 8023     		mov	r3, #128
 509 0034 5B00     		lsl	r3, r3, #1
 510 0036 9842     		cmp	r0, r3
 511 0038 42D0     		beq	.L37
 512 003a 0133     		add	r3, r3, #1
 513 003c FF33     		add	r3, r3, #255
ARM GAS  C:\Users\Jannai\AppData\Local\Temp\cc9YXdAj.s 			page 14


 514 003e 9842     		cmp	r0, r3
 515 0040 4AD0     		beq	.L38
 516 0042 4FE0     		b	.L24
 517              	.L29:
 229:I2C_EEPROM.c  ****     {        
 230:I2C_EEPROM.c  ****         case I2CM_I2C_MSTAT_CLEAR:
 231:I2C_EEPROM.c  ****             SW_TX_PutString("master status is cleared"); SW_TX_PutCRLF(); 
 518              		.loc 1 231 0
 519 0044 2A48     		ldr	r0, .L40
 520              	.LVL90:
 521 0046 FFF7FEFF 		bl	SW_TX_PutString
 522              	.LVL91:
 523 004a FFF7FEFF 		bl	SW_TX_PutCRLF
 524              	.LVL92:
 525              	.L30:
 232:I2C_EEPROM.c  ****         case I2CM_I2C_MSTAT_RD_CMPLT:
 233:I2C_EEPROM.c  ****             SW_TX_PutString("Read transfer complete."); SW_TX_PutCRLF(); 
 526              		.loc 1 233 0
 527 004e 2948     		ldr	r0, .L40+4
 528 0050 FFF7FEFF 		bl	SW_TX_PutString
 529              	.LVL93:
 530 0054 FFF7FEFF 		bl	SW_TX_PutCRLF
 531              	.LVL94:
 234:I2C_EEPROM.c  ****             SW_TX_PutString("The error condition status bits must be checked to ensure that read tr
 532              		.loc 1 234 0
 533 0058 2748     		ldr	r0, .L40+8
 534 005a FFF7FEFF 		bl	SW_TX_PutString
 535              	.LVL95:
 536 005e FFF7FEFF 		bl	SW_TX_PutCRLF
 537              	.LVL96:
 538 0062 44E0     		b	.L23
 539              	.LVL97:
 540              	.L27:
 235:I2C_EEPROM.c  ****         case I2CM_I2C_MSTAT_WR_CMPLT:
 236:I2C_EEPROM.c  ****             SW_TX_PutString("Write transfer complete."); SW_TX_PutCRLF();
 541              		.loc 1 236 0
 542 0064 2548     		ldr	r0, .L40+12
 543              	.LVL98:
 544 0066 FFF7FEFF 		bl	SW_TX_PutString
 545              	.LVL99:
 546 006a FFF7FEFF 		bl	SW_TX_PutCRLF
 547              	.LVL100:
 237:I2C_EEPROM.c  ****             SW_TX_PutString("The error condition status bits must be checked to ensure that write t
 548              		.loc 1 237 0
 549 006e 2448     		ldr	r0, .L40+16
 550 0070 FFF7FEFF 		bl	SW_TX_PutString
 551              	.LVL101:
 552 0074 FFF7FEFF 		bl	SW_TX_PutCRLF
 553              	.LVL102:
 554 0078 39E0     		b	.L23
 555              	.LVL103:
 556              	.L31:
 238:I2C_EEPROM.c  ****         case I2CM_I2C_MSTAT_XFER_INP:
 239:I2C_EEPROM.c  ****             SW_TX_PutString("Transfer in progress."); SW_TX_PutCRLF(); break;
 557              		.loc 1 239 0
 558 007a 2248     		ldr	r0, .L40+20
 559              	.LVL104:
ARM GAS  C:\Users\Jannai\AppData\Local\Temp\cc9YXdAj.s 			page 15


 560 007c FFF7FEFF 		bl	SW_TX_PutString
 561              	.LVL105:
 562 0080 FFF7FEFF 		bl	SW_TX_PutCRLF
 563              	.LVL106:
 564 0084 33E0     		b	.L23
 565              	.LVL107:
 566              	.L32:
 240:I2C_EEPROM.c  ****         case I2CM_I2C_MSTAT_XFER_HALT:
 241:I2C_EEPROM.c  ****             SW_TX_PutString("Transfer has been halted. The I2C bus is waiting for ReStart or Stop c
 567              		.loc 1 241 0
 568 0086 2048     		ldr	r0, .L40+24
 569              	.LVL108:
 570 0088 FFF7FEFF 		bl	SW_TX_PutString
 571              	.LVL109:
 572 008c FFF7FEFF 		bl	SW_TX_PutCRLF
 573              	.LVL110:
 574 0090 2DE0     		b	.L23
 575              	.LVL111:
 576              	.L25:
 242:I2C_EEPROM.c  ****         case I2CM_I2C_MSTAT_ERR_SHORT_XFER:
 243:I2C_EEPROM.c  ****             SW_TX_PutString("Error condition: Write transfer completed before all bytes were transf
 577              		.loc 1 243 0
 578 0092 1E48     		ldr	r0, .L40+28
 579              	.LVL112:
 580 0094 FFF7FEFF 		bl	SW_TX_PutString
 581              	.LVL113:
 582 0098 FFF7FEFF 		bl	SW_TX_PutCRLF
 583              	.LVL114:
 244:I2C_EEPROM.c  ****             SW_TX_PutString("The slave NAKed the byte which was expected to be ACKed."); SW_TX_PutC
 584              		.loc 1 244 0
 585 009c 1C48     		ldr	r0, .L40+32
 586 009e FFF7FEFF 		bl	SW_TX_PutString
 587              	.LVL115:
 588 00a2 FFF7FEFF 		bl	SW_TX_PutCRLF
 589              	.LVL116:
 590 00a6 22E0     		b	.L23
 591              	.LVL117:
 592              	.L35:
 245:I2C_EEPROM.c  ****         case I2CM_I2C_MSTAT_ERR_ADDR_NAK:
 246:I2C_EEPROM.c  ****             SW_TX_PutString("Error condition: Slave did not acknowledge address."); SW_TX_PutCRLF()
 593              		.loc 1 246 0
 594 00a8 1A48     		ldr	r0, .L40+36
 595              	.LVL118:
 596 00aa FFF7FEFF 		bl	SW_TX_PutString
 597              	.LVL119:
 598 00ae FFF7FEFF 		bl	SW_TX_PutCRLF
 599              	.LVL120:
 600 00b2 1CE0     		b	.L23
 601              	.LVL121:
 602              	.L36:
 247:I2C_EEPROM.c  ****         case I2CM_I2C_MSTAT_ERR_ARB_LOST:
 248:I2C_EEPROM.c  ****             SW_TX_PutString("Error condition: Master lost arbitration during communications with sl
 603              		.loc 1 248 0
 604 00b4 1848     		ldr	r0, .L40+40
 605              	.LVL122:
 606 00b6 FFF7FEFF 		bl	SW_TX_PutString
 607              	.LVL123:
ARM GAS  C:\Users\Jannai\AppData\Local\Temp\cc9YXdAj.s 			page 16


 608 00ba FFF7FEFF 		bl	SW_TX_PutCRLF
 609              	.LVL124:
 610 00be 16E0     		b	.L23
 611              	.LVL125:
 612              	.L37:
 249:I2C_EEPROM.c  ****         case I2CM_I2C_MSTAT_ERR_BUS_ERROR:
 250:I2C_EEPROM.c  ****             SW_TX_PutString("Error condition: bus error occurred during master transfer due to misp
 613              		.loc 1 250 0
 614 00c0 1648     		ldr	r0, .L40+44
 615              	.LVL126:
 616 00c2 FFF7FEFF 		bl	SW_TX_PutString
 617              	.LVL127:
 618 00c6 FFF7FEFF 		bl	SW_TX_PutCRLF
 619              	.LVL128:
 620 00ca 10E0     		b	.L23
 621              	.LVL129:
 622              	.L33:
 251:I2C_EEPROM.c  ****         case I2CM_I2C_MSTAT_ERR_ABORT_XFER:
 252:I2C_EEPROM.c  ****             SW_TX_PutString("Error condition: Slave was addressed by another master while master pe
 623              		.loc 1 252 0
 624 00cc 1448     		ldr	r0, .L40+48
 625              	.LVL130:
 626 00ce FFF7FEFF 		bl	SW_TX_PutString
 627              	.LVL131:
 628 00d2 FFF7FEFF 		bl	SW_TX_PutCRLF
 629              	.LVL132:
 630 00d6 0AE0     		b	.L23
 631              	.LVL133:
 632              	.L38:
 253:I2C_EEPROM.c  ****         case I2CM_I2C_MSTAT_ERR_XFER:
 254:I2C_EEPROM.c  ****             SW_TX_PutString("Error condition: This is the ORed value of all error conditions provid
 633              		.loc 1 254 0
 634 00d8 1248     		ldr	r0, .L40+52
 635              	.LVL134:
 636 00da FFF7FEFF 		bl	SW_TX_PutString
 637              	.LVL135:
 638 00de FFF7FEFF 		bl	SW_TX_PutCRLF
 639              	.LVL136:
 640 00e2 04E0     		b	.L23
 641              	.LVL137:
 642              	.L24:
 255:I2C_EEPROM.c  ****         default: SW_TX_PutString("unhandled 12c master status"); SW_TX_PutCRLF();
 643              		.loc 1 255 0
 644 00e4 1048     		ldr	r0, .L40+56
 645              	.LVL138:
 646 00e6 FFF7FEFF 		bl	SW_TX_PutString
 647              	.LVL139:
 648 00ea FFF7FEFF 		bl	SW_TX_PutCRLF
 649              	.LVL140:
 650              	.L23:
 256:I2C_EEPROM.c  ****     }//end switch status
 257:I2C_EEPROM.c  **** }
 651              		.loc 1 257 0
 652              		@ sp needed
 653 00ee 08BD     		pop	{r3, pc}
 654              	.L41:
 655              		.align	2
ARM GAS  C:\Users\Jannai\AppData\Local\Temp\cc9YXdAj.s 			page 17


 656              	.L40:
 657 00f0 7C000000 		.word	.LC6
 658 00f4 98000000 		.word	.LC8
 659 00f8 B0000000 		.word	.LC10
 660 00fc 1C010000 		.word	.LC12
 661 0100 38010000 		.word	.LC14
 662 0104 A4010000 		.word	.LC16
 663 0108 BC010000 		.word	.LC18
 664 010c 18020000 		.word	.LC20
 665 0110 68020000 		.word	.LC22
 666 0114 A4020000 		.word	.LC24
 667 0118 D8020000 		.word	.LC26
 668 011c 24030000 		.word	.LC28
 669 0120 94030000 		.word	.LC30
 670 0124 80040000 		.word	.LC32
 671 0128 D0040000 		.word	.LC34
 672              		.cfi_endproc
 673              	.LFE43:
 674              		.size	debugI2CMasterStatus, .-debugI2CMasterStatus
 675              		.section	.text.debugI2CTransfer,"ax",%progbits
 676              		.align	2
 677              		.global	debugI2CTransfer
 678              		.code	16
 679              		.thumb_func
 680              		.type	debugI2CTransfer, %function
 681              	debugI2CTransfer:
 682              	.LFB44:
 258:I2C_EEPROM.c  **** 
 259:I2C_EEPROM.c  **** 
 260:I2C_EEPROM.c  **** void debugI2CTransfer(uint32 inidicator)
 261:I2C_EEPROM.c  **** {
 683              		.loc 1 261 0
 684              		.cfi_startproc
 685              	.LVL141:
 686 0000 08B5     		push	{r3, lr}
 687              		.cfi_def_cfa_offset 8
 688              		.cfi_offset 3, -8
 689              		.cfi_offset 14, -4
 262:I2C_EEPROM.c  ****     switch(inidicator)
 690              		.loc 1 262 0
 691 0002 0428     		cmp	r0, #4
 692 0004 1CD0     		beq	.L44
 693 0006 06D8     		bhi	.L45
 694 0008 0128     		cmp	r0, #1
 695 000a 25D0     		beq	.L46
 696 000c 0028     		cmp	r0, #0
 697 000e 0BD0     		beq	.L47
 698 0010 0228     		cmp	r0, #2
 699 0012 1BD0     		beq	.L48
 700 0014 32E0     		b	.L43
 701              	.L45:
 702 0016 1028     		cmp	r0, #16
 703 0018 2AD0     		beq	.L49
 704 001a 8023     		mov	r3, #128
 705 001c 5B00     		lsl	r3, r3, #1
 706 001e 9842     		cmp	r0, r3
 707 0020 20D0     		beq	.L50
ARM GAS  C:\Users\Jannai\AppData\Local\Temp\cc9YXdAj.s 			page 18


 708 0022 0828     		cmp	r0, #8
 709 0024 2AD1     		bne	.L43
 710 0026 05E0     		b	.L51
 711              	.L47:
 263:I2C_EEPROM.c  ****     {
 264:I2C_EEPROM.c  ****         case I2CM_I2C_MSTR_NO_ERROR:
 265:I2C_EEPROM.c  ****             SW_TX_PutString("Function complete without error."); SW_TX_PutCRLF(); break;
 712              		.loc 1 265 0
 713 0028 1748     		ldr	r0, .L53
 714              	.LVL142:
 715 002a FFF7FEFF 		bl	SW_TX_PutString
 716              	.LVL143:
 717 002e FFF7FEFF 		bl	SW_TX_PutCRLF
 718              	.LVL144:
 719 0032 28E0     		b	.L42
 720              	.LVL145:
 721              	.L51:
 266:I2C_EEPROM.c  ****         case I2CM_I2C_MSTR_BUS_BUSY:
 267:I2C_EEPROM.c  ****             SW_TX_PutString("Bus is busy. Nothing was sent"); SW_TX_PutCRLF();break;
 722              		.loc 1 267 0
 723 0034 1548     		ldr	r0, .L53+4
 724              	.LVL146:
 725 0036 FFF7FEFF 		bl	SW_TX_PutString
 726              	.LVL147:
 727 003a FFF7FEFF 		bl	SW_TX_PutCRLF
 728              	.LVL148:
 729 003e 22E0     		b	.L42
 730              	.LVL149:
 731              	.L44:
 268:I2C_EEPROM.c  ****         case I2CM_I2C_MSTR_NOT_READY:
 269:I2C_EEPROM.c  ****             SW_TX_PutString("Master is not ready for to start transfer."); SW_TX_PutCRLF();break;
 732              		.loc 1 269 0
 733 0040 1348     		ldr	r0, .L53+8
 734              	.LVL150:
 735 0042 FFF7FEFF 		bl	SW_TX_PutString
 736              	.LVL151:
 737 0046 FFF7FEFF 		bl	SW_TX_PutCRLF
 738              	.LVL152:
 739 004a 1CE0     		b	.L42
 740              	.LVL153:
 741              	.L48:
 270:I2C_EEPROM.c  ****         case I2CM_I2C_MSTR_ERR_LB_NAK:
 271:I2C_EEPROM.c  ****             SW_TX_PutString("Error condition: Last byte was NAKed."); SW_TX_PutCRLF();break;
 742              		.loc 1 271 0
 743 004c 1148     		ldr	r0, .L53+12
 744              	.LVL154:
 745 004e FFF7FEFF 		bl	SW_TX_PutString
 746              	.LVL155:
 747 0052 FFF7FEFF 		bl	SW_TX_PutCRLF
 748              	.LVL156:
 749 0056 16E0     		b	.L42
 750              	.LVL157:
 751              	.L46:
 272:I2C_EEPROM.c  ****         case I2CM_I2C_MSTR_ERR_ARB_LOST:
 273:I2C_EEPROM.c  ****             SW_TX_PutString("Error condition: Master lost arbitration."); SW_TX_PutCRLF();break;
 752              		.loc 1 273 0
 753 0058 0F48     		ldr	r0, .L53+16
ARM GAS  C:\Users\Jannai\AppData\Local\Temp\cc9YXdAj.s 			page 19


 754              	.LVL158:
 755 005a FFF7FEFF 		bl	SW_TX_PutString
 756              	.LVL159:
 757 005e FFF7FEFF 		bl	SW_TX_PutCRLF
 758              	.LVL160:
 759 0062 10E0     		b	.L42
 760              	.LVL161:
 761              	.L50:
 274:I2C_EEPROM.c  ****         case I2CM_I2C_MSTR_ERR_BUS_ERR:
 275:I2C_EEPROM.c  ****             SW_TX_PutString("Error condition: Master encountered a bus error. Bus error is misplace
 762              		.loc 1 275 0
 763 0064 0D48     		ldr	r0, .L53+20
 764              	.LVL162:
 765 0066 FFF7FEFF 		bl	SW_TX_PutString
 766              	.LVL163:
 767 006a FFF7FEFF 		bl	SW_TX_PutCRLF
 768              	.LVL164:
 769 006e 0AE0     		b	.L42
 770              	.LVL165:
 771              	.L49:
 276:I2C_EEPROM.c  ****         case I2CM_I2C_MSTR_ERR_ABORT_START:
 277:I2C_EEPROM.c  ****             SW_TX_PutString("Error condition: The start condition generation was aborted due to beg
 772              		.loc 1 277 0
 773 0070 0B48     		ldr	r0, .L53+24
 774              	.LVL166:
 775 0072 FFF7FEFF 		bl	SW_TX_PutString
 776              	.LVL167:
 777 0076 FFF7FEFF 		bl	SW_TX_PutCRLF
 778              	.LVL168:
 779 007a 04E0     		b	.L42
 780              	.LVL169:
 781              	.L43:
 278:I2C_EEPROM.c  ****         default: SW_TX_PutString("unhandles I2C error condition"); SW_TX_PutCRLF();
 782              		.loc 1 278 0
 783 007c 0948     		ldr	r0, .L53+28
 784              	.LVL170:
 785 007e FFF7FEFF 		bl	SW_TX_PutString
 786              	.LVL171:
 787 0082 FFF7FEFF 		bl	SW_TX_PutCRLF
 788              	.LVL172:
 789              	.L42:
 279:I2C_EEPROM.c  ****     }
 280:I2C_EEPROM.c  **** }
 790              		.loc 1 280 0
 791              		@ sp needed
 792 0086 08BD     		pop	{r3, pc}
 793              	.L54:
 794              		.align	2
 795              	.L53:
 796 0088 EC040000 		.word	.LC36
 797 008c 10050000 		.word	.LC38
 798 0090 30050000 		.word	.LC40
 799 0094 5C050000 		.word	.LC42
 800 0098 84050000 		.word	.LC44
 801 009c B0050000 		.word	.LC46
 802 00a0 14060000 		.word	.LC48
 803 00a4 BC060000 		.word	.LC50
ARM GAS  C:\Users\Jannai\AppData\Local\Temp\cc9YXdAj.s 			page 20


 804              		.cfi_endproc
 805              	.LFE44:
 806              		.size	debugI2CTransfer, .-debugI2CTransfer
 807              		.comm	debugStr,50,4
 808              		.section	.rodata.str1.4,"aMS",%progbits,1
 809              		.align	2
 810              	.LC0:
 811 0000 436F756C 		.ascii	"Could not beginn I2C transmittion (EEPROM, read), r"
 811      64206E6F 
 811      74206265 
 811      67696E6E 
 811      20493243 
 812 0033 65616420 		.ascii	"ead aborted\000"
 812      61626F72 
 812      74656400 
 813 003f 00       		.space	1
 814              	.LC4:
 815 0040 436F756C 		.ascii	"Could not beginn I2C transmittion (EEPROM), write a"
 815      64206E6F 
 815      74206265 
 815      67696E6E 
 815      20493243 
 816 0073 626F7274 		.ascii	"borted\000"
 816      656400
 817 007a 0000     		.space	2
 818              	.LC6:
 819 007c 6D617374 		.ascii	"master status is cleared\000"
 819      65722073 
 819      74617475 
 819      73206973 
 819      20636C65 
 820 0095 000000   		.space	3
 821              	.LC8:
 822 0098 52656164 		.ascii	"Read transfer complete.\000"
 822      20747261 
 822      6E736665 
 822      7220636F 
 822      6D706C65 
 823              	.LC10:
 824 00b0 54686520 		.ascii	"The error condition status bits must be checked to "
 824      6572726F 
 824      7220636F 
 824      6E646974 
 824      696F6E20 
 825 00e3 656E7375 		.ascii	"ensure that read transfer was completed successfull"
 825      72652074 
 825      68617420 
 825      72656164 
 825      20747261 
 826 0116 792E00   		.ascii	"y.\000"
 827 0119 000000   		.space	3
 828              	.LC12:
 829 011c 57726974 		.ascii	"Write transfer complete.\000"
 829      65207472 
 829      616E7366 
 829      65722063 
 829      6F6D706C 
ARM GAS  C:\Users\Jannai\AppData\Local\Temp\cc9YXdAj.s 			page 21


 830 0135 000000   		.space	3
 831              	.LC14:
 832 0138 54686520 		.ascii	"The error condition status bits must be checked to "
 832      6572726F 
 832      7220636F 
 832      6E646974 
 832      696F6E20 
 833 016b 656E7375 		.ascii	"ensure that write transfer was completed successful"
 833      72652074 
 833      68617420 
 833      77726974 
 833      65207472 
 834 019e 6C792E00 		.ascii	"ly.\000"
 835 01a2 0000     		.space	2
 836              	.LC16:
 837 01a4 5472616E 		.ascii	"Transfer in progress.\000"
 837      73666572 
 837      20696E20 
 837      70726F67 
 837      72657373 
 838 01ba 0000     		.space	2
 839              	.LC18:
 840 01bc 5472616E 		.ascii	"Transfer has been halted. The I2C bus is waiting fo"
 840      73666572 
 840      20686173 
 840      20626565 
 840      6E206861 
 841 01ef 72205265 		.ascii	"r ReStart or Stop condition generation.\000"
 841      53746172 
 841      74206F72 
 841      2053746F 
 841      7020636F 
 842 0217 00       		.space	1
 843              	.LC20:
 844 0218 4572726F 		.ascii	"Error condition: Write transfer completed before al"
 844      7220636F 
 844      6E646974 
 844      696F6E3A 
 844      20577269 
 845 024b 6C206279 		.ascii	"l bytes were transferred.\000"
 845      74657320 
 845      77657265 
 845      20747261 
 845      6E736665 
 846 0265 000000   		.space	3
 847              	.LC22:
 848 0268 54686520 		.ascii	"The slave NAKed the byte which was expected to be A"
 848      736C6176 
 848      65204E41 
 848      4B656420 
 848      74686520 
 849 029b 434B6564 		.ascii	"CKed.\000"
 849      2E00
 850 02a1 000000   		.space	3
 851              	.LC24:
 852 02a4 4572726F 		.ascii	"Error condition: Slave did not acknowledge address."
 852      7220636F 
ARM GAS  C:\Users\Jannai\AppData\Local\Temp\cc9YXdAj.s 			page 22


 852      6E646974 
 852      696F6E3A 
 852      20536C61 
 853 02d7 00       		.ascii	"\000"
 854              	.LC26:
 855 02d8 4572726F 		.ascii	"Error condition: Master lost arbitration during com"
 855      7220636F 
 855      6E646974 
 855      696F6E3A 
 855      204D6173 
 856 030b 6D756E69 		.ascii	"munications with slave.\000"
 856      63617469 
 856      6F6E7320 
 856      77697468 
 856      20736C61 
 857 0323 00       		.space	1
 858              	.LC28:
 859 0324 4572726F 		.ascii	"Error condition: bus error occurred during master t"
 859      7220636F 
 859      6E646974 
 859      696F6E3A 
 859      20627573 
 860 0357 72616E73 		.ascii	"ransfer due to misplaced Start or Stop condition on"
 860      66657220 
 860      64756520 
 860      746F206D 
 860      6973706C 
 861 038a 20746865 		.ascii	" the bus.\000"
 861      20627573 
 861      2E00
 862              	.LC30:
 863 0394 4572726F 		.ascii	"Error condition: Slave was addressed by another mas"
 863      7220636F 
 863      6E646974 
 863      696F6E3A 
 863      20536C61 
 864 03c7 74657220 		.ascii	"ter while master performed the start condition gene"
 864      7768696C 
 864      65206D61 
 864      73746572 
 864      20706572 
 865 03fa 72617469 		.ascii	"ration. As a result, master has automatically switc"
 865      6F6E2E20 
 865      41732061 
 865      20726573 
 865      756C742C 
 866 042d 68656420 		.ascii	"hed to slave mode and is responding. The master tra"
 866      746F2073 
 866      6C617665 
 866      206D6F64 
 866      6520616E 
 867 0460 6E736163 		.ascii	"nsaction has not taken place\000"
 867      74696F6E 
 867      20686173 
 867      206E6F74 
 867      2074616B 
 868 047d 000000   		.space	3
ARM GAS  C:\Users\Jannai\AppData\Local\Temp\cc9YXdAj.s 			page 23


 869              	.LC32:
 870 0480 4572726F 		.ascii	"Error condition: This is the ORed value of all erro"
 870      7220636F 
 870      6E646974 
 870      696F6E3A 
 870      20546869 
 871 04b3 7220636F 		.ascii	"r conditions provided above.\000"
 871      6E646974 
 871      696F6E73 
 871      2070726F 
 871      76696465 
 872              	.LC34:
 873 04d0 756E6861 		.ascii	"unhandled 12c master status\000"
 873      6E646C65 
 873      64203132 
 873      63206D61 
 873      73746572 
 874              	.LC36:
 875 04ec 46756E63 		.ascii	"Function complete without error.\000"
 875      74696F6E 
 875      20636F6D 
 875      706C6574 
 875      65207769 
 876 050d 000000   		.space	3
 877              	.LC38:
 878 0510 42757320 		.ascii	"Bus is busy. Nothing was sent\000"
 878      69732062 
 878      7573792E 
 878      204E6F74 
 878      68696E67 
 879 052e 0000     		.space	2
 880              	.LC40:
 881 0530 4D617374 		.ascii	"Master is not ready for to start transfer.\000"
 881      65722069 
 881      73206E6F 
 881      74207265 
 881      61647920 
 882 055b 00       		.space	1
 883              	.LC42:
 884 055c 4572726F 		.ascii	"Error condition: Last byte was NAKed.\000"
 884      7220636F 
 884      6E646974 
 884      696F6E3A 
 884      204C6173 
 885 0582 0000     		.space	2
 886              	.LC44:
 887 0584 4572726F 		.ascii	"Error condition: Master lost arbitration.\000"
 887      7220636F 
 887      6E646974 
 887      696F6E3A 
 887      204D6173 
 888 05ae 0000     		.space	2
 889              	.LC46:
 890 05b0 4572726F 		.ascii	"Error condition: Master encountered a bus error. Bu"
 890      7220636F 
 890      6E646974 
 890      696F6E3A 
ARM GAS  C:\Users\Jannai\AppData\Local\Temp\cc9YXdAj.s 			page 24


 890      204D6173 
 891 05e3 73206572 		.ascii	"s error is misplaced start or stop detection.\000"
 891      726F7220 
 891      6973206D 
 891      6973706C 
 891      61636564 
 892 0611 000000   		.space	3
 893              	.LC48:
 894 0614 4572726F 		.ascii	"Error condition: The start condition generation was"
 894      7220636F 
 894      6E646974 
 894      696F6E3A 
 894      20546865 
 895 0647 2061626F 		.ascii	" aborted due to beginning of Slave operation. This "
 895      72746564 
 895      20647565 
 895      20746F20 
 895      62656769 
 896 067a 6572726F 		.ascii	"error condition is only applicable for Multi-Master"
 896      7220636F 
 896      6E646974 
 896      696F6E20 
 896      6973206F 
 897 06ad 2D536C61 		.ascii	"-Slave mode.\000"
 897      7665206D 
 897      6F64652E 
 897      00
 898 06ba 0000     		.space	2
 899              	.LC50:
 900 06bc 756E6861 		.ascii	"unhandles I2C error condition\000"
 900      6E646C65 
 900      73204932 
 900      43206572 
 900      726F7220 
 901 06da 0000     		.text
 902              	.Letext0:
 903              		.file 2 "c:\\program files (x86)\\cypress\\psoc creator\\4.0\\psoc creator\\import\\gnu\\arm\\4.9.
 904              		.file 3 "c:\\program files (x86)\\cypress\\psoc creator\\4.0\\psoc creator\\import\\gnu\\arm\\4.9.
 905              		.file 4 "Generated_Source\\PSoC4/cytypes.h"
 906              		.file 5 "Generated_Source\\PSoC4/I2CM_I2C.h"
 907              		.file 6 "Generated_Source\\PSoC4/CyLib.h"
 908              		.file 7 "Generated_Source\\PSoC4/SW_TX.h"
 909              		.file 8 "Generated_Source\\PSoC4/BLE_Stack.h"
 910              		.file 9 "common.h"