ARM GAS  C:\Users\Jannai\AppData\Local\Temp\ccyALZpC.s 			page 1


   1              		.cpu cortex-m0
   2              		.fpu softvfp
   3              		.eabi_attribute 20, 1
   4              		.eabi_attribute 21, 1
   5              		.eabi_attribute 23, 3
   6              		.eabi_attribute 24, 1
   7              		.eabi_attribute 25, 1
   8              		.eabi_attribute 26, 1
   9              		.eabi_attribute 30, 1
  10              		.eabi_attribute 34, 0
  11              		.eabi_attribute 18, 4
  12              		.code	16
  13              		.file	"main.c"
  14              		.text
  15              	.Ltext0:
  16              		.cfi_sections	.debug_frame
  17              		.section	.text.isrCombined,"ax",%progbits
  18              		.align	2
  19              		.global	isrCombined
  20              		.code	16
  21              		.thumb_func
  22              		.type	isrCombined, %function
  23              	isrCombined:
  24              	.LFB37:
  25              		.file 1 "main.c"
   1:main.c        **** /* ========================================
   2:main.c        ****  * Author:  Jannai Flaschberger, 2017
   3:main.c        ****  * Copyright (C)
   4:main.c        ****  * This program is free software; you can redistribute it and/or
   5:main.c        ****  * modify it under the terms of the GNU General Public License as
   6:main.c        ****  * published by the Free Software Foundation; either version 2 of
   7:main.c        ****  * the License, or (at your option) any later version.
   8:main.c        ****  *
   9:main.c        ****  * ========================================
  10:main.c        **** */
  11:main.c        **** #include <project.h>
  12:main.c        **** #include "BLE_functions.h"
  13:main.c        **** #include "common.h"
  14:main.c        **** #include "mainFunctions.h"
  15:main.c        **** 
  16:main.c        **** #define WDT_INTERVAL_2S             2000u                       /* millisecond */
  17:main.c        **** #define ILO_FREQ                    32000                       /* Hz */
  18:main.c        **** 
  19:main.c        **** 
  20:main.c        **** /***************************************
  21:main.c        **** *        function Dummies
  22:main.c        **** ***************************************/
  23:main.c        **** void handle_BLE_Statemachine();
  24:main.c        ****          
  25:main.c        **** 
  26:main.c        **** //ISR dummies
  27:main.c        **** CY_ISR(DoThisEverySecond);
  28:main.c        **** CY_ISR(ISR_hall_pulse);
  29:main.c        **** CY_ISR(ISR_button_press);
  30:main.c        **** CY_ISR(ISR_acc_movement);
  31:main.c        **** CY_ISR(ISR_anyInterrupt);
  32:main.c        **** CY_ISR(isrCombined);
ARM GAS  C:\Users\Jannai\AppData\Local\Temp\ccyALZpC.s 			page 2


  33:main.c        **** 
  34:main.c        **** 
  35:main.c        **** #define Pin_button_isr_IntrTrigger      ((uint32)((uint32)1u << Pin_button_isr__PORT))
  36:main.c        **** #define Pin_NoDPWakeup_IntrTrigger    ((uint32)((uint32)1u << Pin_NoDPWakeup__PORT))
  37:main.c        **** #define Pin_CombinedIntr_IntrTrigger  ((uint32)((uint32)1u << Pin_CombinedIntr__PORT))
  38:main.c        **** //delete later
  39:main.c        **** 
  40:main.c        **** 
  41:main.c        **** CY_ISR(isrCombined)
  42:main.c        **** {
  26              		.loc 1 42 0
  27              		.cfi_startproc
  28 0000 08B5     		push	{r3, lr}
  29              		.cfi_def_cfa_offset 8
  30              		.cfi_offset 3, -8
  31              		.cfi_offset 14, -4
  43:main.c        ****      if(Pin_button_isr_INTR_CAUSE & Pin_button_isr_IntrTrigger)
  32              		.loc 1 43 0
  33 0002 024B     		ldr	r3, .L2
  34 0004 1B68     		ldr	r3, [r3]
  44:main.c        ****     {
  45:main.c        ****     }
  46:main.c        ****     
  47:main.c        ****         Pin_CombinedIntr_ClearInterrupt();
  35              		.loc 1 47 0
  36 0006 FFF7FEFF 		bl	Pin_CombinedIntr_ClearInterrupt
  37              	.LVL0:
  48:main.c        **** }
  38              		.loc 1 48 0
  39              		@ sp needed
  40 000a 08BD     		pop	{r3, pc}
  41              	.L3:
  42              		.align	2
  43              	.L2:
  44 000c 00100440 		.word	1074008064
  45              		.cfi_endproc
  46              	.LFE37:
  47              		.size	isrCombined, .-isrCombined
  48              		.section	.text.main,"ax",%progbits
  49              		.align	2
  50              		.global	main
  51              		.code	16
  52              		.thumb_func
  53              		.type	main, %function
  54              	main:
  55              	.LFB38:
  49:main.c        **** 
  50:main.c        **** 
  51:main.c        **** int main()
  52:main.c        **** {
  56              		.loc 1 52 0
  57              		.cfi_startproc
  58 0000 10B5     		push	{r4, lr}
  59              		.cfi_def_cfa_offset 8
  60              		.cfi_offset 4, -8
  61              		.cfi_offset 14, -4
  53:main.c        ****     //start SW UART TX for debug
ARM GAS  C:\Users\Jannai\AppData\Local\Temp\ccyALZpC.s 			page 3


  54:main.c        ****     SW_TX_Start();
  62              		.loc 1 54 0
  63 0002 FFF7FEFF 		bl	SW_TX_Start
  64              	.LVL1:
  55:main.c        ****     SW_TX_PutCRLF();
  65              		.loc 1 55 0
  66 0006 FFF7FEFF 		bl	SW_TX_PutCRLF
  67              	.LVL2:
  56:main.c        ****     SW_TX_PutCRLF();
  68              		.loc 1 56 0
  69 000a FFF7FEFF 		bl	SW_TX_PutCRLF
  70              	.LVL3:
  57:main.c        ****     SW_TX_PutString("----------------UART debug started------------------------");   
  71              		.loc 1 57 0
  72 000e 3748     		ldr	r0, .L16
  73 0010 FFF7FEFF 		bl	SW_TX_PutString
  74              	.LVL4:
  58:main.c        ****     
  59:main.c        ****     //Start Analog Digital Converter
  60:main.c        ****     ADC_Start();
  75              		.loc 1 60 0
  76 0014 FFF7FEFF 		bl	ADC_Start
  77              	.LVL5:
  61:main.c        ****     
  62:main.c        ****     // DO NOT CHANGE 
  63:main.c        ****     // Change SCL and SDA pins drive mode to Resistive Pull Up --> no external components necessary
  64:main.c        ****     I2CM_scl_SetDriveMode(I2CM_scl_DM_RES_UP);
  78              		.loc 1 64 0
  79 0018 0220     		mov	r0, #2
  80 001a FFF7FEFF 		bl	I2CM_scl_SetDriveMode
  81              	.LVL6:
  65:main.c        ****     I2CM_sda_SetDriveMode(I2CM_sda_DM_RES_UP);
  82              		.loc 1 65 0
  83 001e 0220     		mov	r0, #2
  84 0020 FFF7FEFF 		bl	I2CM_sda_SetDriveMode
  85              	.LVL7:
  66:main.c        ****      
  67:main.c        ****     
  68:main.c        ****     /*************************************************************
  69:main.c        ****     *       Start Interrupts
  70:main.c        ****     ************************************************************/
  71:main.c        ****     
  72:main.c        ****     //Start secondly timer running the main routine
  73:main.c        ****     Timer_1_Start();
  86              		.loc 1 73 0
  87 0024 FFF7FEFF 		bl	Timer_1_Start
  88              	.LVL8:
  74:main.c        ****     
  75:main.c        ****     // Enable the Interrupt component connected to Timer interrupt 
  76:main.c        ****     ISR_everySecond_StartEx(DoThisEverySecond);
  89              		.loc 1 76 0
  90 0028 3148     		ldr	r0, .L16+4
  91 002a FFF7FEFF 		bl	ISR_everySecond_StartEx
  92              	.LVL9:
  77:main.c        ****     // Enable the Interrupt component connected to hall sensor
  78:main.c        ****     ISR_hall_StartEx(ISR_hall_pulse);
  93              		.loc 1 78 0
ARM GAS  C:\Users\Jannai\AppData\Local\Temp\ccyALZpC.s 			page 4


  94 002e 3148     		ldr	r0, .L16+8
  95 0030 FFF7FEFF 		bl	ISR_hall_StartEx
  96              	.LVL10:
  79:main.c        ****     //ISR_hall_SetVector(ISR_hall_pulse);
  80:main.c        ****     // Enable the Interrupt component connected to accellerometer
  81:main.c        ****     ISR_acc_StartEx(ISR_acc_movement);
  97              		.loc 1 81 0
  98 0034 3048     		ldr	r0, .L16+12
  99 0036 FFF7FEFF 		bl	ISR_acc_StartEx
 100              	.LVL11:
  82:main.c        ****     // Enable the Interrupt component connected to pushbutton
  83:main.c        ****     ISR_btn_StartEx(ISR_button_press);
 101              		.loc 1 83 0
 102 003a 3048     		ldr	r0, .L16+16
 103 003c FFF7FEFF 		bl	ISR_btn_StartEx
 104              	.LVL12:
  84:main.c        ****     //ISR_btn_SetVector(ISR_button_press);
  85:main.c        ****     
  86:main.c        ****     //ISR_wakeup_StartEx(ISR_anyInterrupt);
  87:main.c        ****     isr_CombinedPort_StartEx(isrCombined);
 105              		.loc 1 87 0
 106 0040 2F48     		ldr	r0, .L16+20
 107 0042 FFF7FEFF 		bl	isr_CombinedPort_StartEx
 108              	.LVL13:
  88:main.c        ****     
  89:main.c        ****     /* zaehler_pos is not resettet. Do manual reset if Reset Reason is not Hibernate*/
  90:main.c        ****     /* Values are safed if device wakes up from hibernate but not if it resetts of another reason*/
  91:main.c        ****     if( CySysPmGetResetReason() != CY_PM_RESET_REASON_WAKEUP_HIB )
 109              		.loc 1 91 0
 110 0046 FFF7FEFF 		bl	CySysPmGetResetReason
 111              	.LVL14:
 112 004a 0228     		cmp	r0, #2
 113 004c 04D0     		beq	.L5
  92:main.c        ****       {
  93:main.c        ****         overall_volume = 0;
 114              		.loc 1 93 0
 115 004e 0023     		mov	r3, #0
 116 0050 2C4A     		ldr	r2, .L16+24
 117 0052 1380     		strh	r3, [r2]
  94:main.c        ****         overall_pulses = 0;
 118              		.loc 1 94 0
 119 0054 2C4A     		ldr	r2, .L16+28
 120 0056 1380     		strh	r3, [r2]
 121              	.L5:
  95:main.c        ****       }
  96:main.c        ****     
  97:main.c        ****     uint32 reason = CySysPmGetResetReason();
 122              		.loc 1 97 0
 123 0058 FFF7FEFF 		bl	CySysPmGetResetReason
 124              	.LVL15:
 125 005c 041C     		mov	r4, r0
 126              	.LVL16:
  98:main.c        ****     SW_TX_PutString("Wakeup Reason = ");  
 127              		.loc 1 98 0
 128 005e 2B48     		ldr	r0, .L16+32
 129              	.LVL17:
 130 0060 FFF7FEFF 		bl	SW_TX_PutString
ARM GAS  C:\Users\Jannai\AppData\Local\Temp\ccyALZpC.s 			page 5


 131              	.LVL18:
  99:main.c        ****     switch(reason)
 132              		.loc 1 99 0
 133 0064 F12C     		cmp	r4, #241
 134 0066 07D0     		beq	.L7
 135 0068 F22C     		cmp	r4, #242
 136 006a 09D0     		beq	.L8
 137 006c 002C     		cmp	r4, #0
 138 006e 0BD1     		bne	.L15
 100:main.c        ****         {
 101:main.c        ****         /* Power up, XRES */
 102:main.c        ****         case CY_PM_PWR_STOP_TOKEN_XRES:
 103:main.c        ****             SW_TX_PutString("Reset");  
 139              		.loc 1 103 0
 140 0070 2748     		ldr	r0, .L16+36
 141 0072 FFF7FEFF 		bl	SW_TX_PutString
 142              	.LVL19:
 104:main.c        ****             break;
 143              		.loc 1 104 0
 144 0076 0AE0     		b	.L10
 145              	.L7:
 105:main.c        **** 
 106:main.c        ****         /* Wakeup from Hibernate */
 107:main.c        ****         case CY_PM_PWR_STOP_TOKEN_HIB:
 108:main.c        ****             SW_TX_PutString("wakeup from hibernate");  
 146              		.loc 1 108 0
 147 0078 2648     		ldr	r0, .L16+40
 148 007a FFF7FEFF 		bl	SW_TX_PutString
 149              	.LVL20:
 109:main.c        ****             break;
 150              		.loc 1 109 0
 151 007e 06E0     		b	.L10
 152              	.L8:
 110:main.c        **** 
 111:main.c        ****         /* Wakeup from Stop (through WAKEUP pin assert) */
 112:main.c        ****         case CY_PM_PWR_STOP_TOKEN_STOP:
 113:main.c        ****             SW_TX_PutString("wakeup from stop");  
 153              		.loc 1 113 0
 154 0080 2548     		ldr	r0, .L16+44
 155 0082 FFF7FEFF 		bl	SW_TX_PutString
 156              	.LVL21:
 114:main.c        ****             break;
 157              		.loc 1 114 0
 158 0086 02E0     		b	.L10
 159              	.L15:
 115:main.c        **** 
 116:main.c        ****         /* Unknown reason */
 117:main.c        ****         default:
 118:main.c        ****             SW_TX_PutString("Unknown reason");  
 160              		.loc 1 118 0
 161 0088 2448     		ldr	r0, .L16+48
 162 008a FFF7FEFF 		bl	SW_TX_PutString
 163              	.LVL22:
 164              	.L10:
 119:main.c        ****             break;
 120:main.c        ****         }
 121:main.c        ****         SW_TX_PutCRLF();
ARM GAS  C:\Users\Jannai\AppData\Local\Temp\ccyALZpC.s 			page 6


 165              		.loc 1 121 0
 166 008e FFF7FEFF 		bl	SW_TX_PutCRLF
 167              	.LVL23:
 122:main.c        ****     
 123:main.c        ****     //start I2C
 124:main.c        ****     //I2CM_Start();
 125:main.c        ****     
 126:main.c        ****        
 127:main.c        ****     
 128:main.c        ****     //start BLE component and wait for it to initialize
 129:main.c        ****     CyBle_Start(StackEventHandler);
 168              		.loc 1 129 0
 169 0092 2348     		ldr	r0, .L16+52
 170 0094 FFF7FEFF 		bl	CyBle_Start
 171              	.LVL24:
 130:main.c        ****     while (CyBle_GetState() == CYBLE_STATE_INITIALIZING)
 172              		.loc 1 130 0
 173 0098 04E0     		b	.L11
 174              	.L12:
 131:main.c        ****     {
 132:main.c        ****         CyBle_ProcessEvents();
 175              		.loc 1 132 0
 176 009a FFF7FEFF 		bl	CyBle_ProcessEvents
 177              	.LVL25:
 133:main.c        ****         CyDelay(10);
 178              		.loc 1 133 0
 179 009e 0A20     		mov	r0, #10
 180 00a0 FFF7FEFF 		bl	CyDelay
 181              	.LVL26:
 182              	.L11:
 130:main.c        ****     while (CyBle_GetState() == CYBLE_STATE_INITIALIZING)
 183              		.loc 1 130 0
 184 00a4 1F4B     		ldr	r3, .L16+56
 185 00a6 1B78     		ldrb	r3, [r3]
 186 00a8 012B     		cmp	r3, #1
 187 00aa F6D0     		beq	.L12
 134:main.c        ****     }
 135:main.c        ****     
 136:main.c        ****     // Enable global interrupts 
 137:main.c        ****     CyGlobalIntEnable;
 188              		.loc 1 137 0
 189              	@ 137 "main.c" 1
 190 00ac 62B6     		CPSIE   i
 191              	@ 0 "" 2
 138:main.c        ****     
 139:main.c        ****     
 140:main.c        ****     //switch on hall sensor
 141:main.c        ****     VCC_hall_Write(ON);
 192              		.loc 1 141 0
 193              		.code	16
 194 00ae 0120     		mov	r0, #1
 195 00b0 FFF7FEFF 		bl	VCC_hall_Write
 196              	.LVL27:
 142:main.c        ****     
 143:main.c        ****     //check if bat level has changed and if so, pack new value into ble database
 144:main.c        ****     uint8 newBatLevel = MeasureBattery();
 197              		.loc 1 144 0
ARM GAS  C:\Users\Jannai\AppData\Local\Temp\ccyALZpC.s 			page 7


 198 00b4 FFF7FEFF 		bl	MeasureBattery
 199              	.LVL28:
 145:main.c        ****     if(oldBatLevel != newBatLevel)
 200              		.loc 1 145 0
 201 00b8 1B4B     		ldr	r3, .L16+60
 202 00ba 1B78     		ldrb	r3, [r3]
 203 00bc 8342     		cmp	r3, r0
 204 00be 04D0     		beq	.L13
 146:main.c        ****     {
 147:main.c        ****         oldBatLevel = newBatLevel;
 205              		.loc 1 147 0
 206 00c0 194B     		ldr	r3, .L16+60
 207 00c2 1870     		strb	r0, [r3]
 148:main.c        ****         writeUint8ToBLEdb(oldBatLevel, CYBLE_BATTERY_BATTERY_LEVEL_CHAR_HANDLE);
 208              		.loc 1 148 0
 209 00c4 2221     		mov	r1, #34
 210 00c6 FFF7FEFF 		bl	writeUint8ToBLEdb
 211              	.LVL29:
 212              	.L13:
 149:main.c        ****     }
 150:main.c        ****     
 151:main.c        ****     //start I2C communication with eeprom and let it wake up
 152:main.c        ****     I2CM_Start(); CyDelay(5);
 213              		.loc 1 152 0
 214 00ca FFF7FEFF 		bl	I2CM_Start
 215              	.LVL30:
 216 00ce 0520     		mov	r0, #5
 217 00d0 FFF7FEFF 		bl	CyDelay
 218              	.LVL31:
 153:main.c        ****     //now init BLE characteristics with saved variables
 154:main.c        ****     initBLEcharacteristics();
 219              		.loc 1 154 0
 220 00d4 FFF7FEFF 		bl	initBLEcharacteristics
 221              	.LVL32:
 155:main.c        ****     initAcc();
 222              		.loc 1 155 0
 223 00d8 FFF7FEFF 		bl	initAcc
 224              	.LVL33:
 156:main.c        ****     //I2CM_Stop();
 157:main.c        ****     
 158:main.c        ****     SW_TX_PutString("---------------------INIT DONE. NOW LOOPING-------------------");SW_TX_PutCRLF
 225              		.loc 1 158 0
 226 00dc 1348     		ldr	r0, .L16+64
 227 00de FFF7FEFF 		bl	SW_TX_PutString
 228              	.LVL34:
 229 00e2 FFF7FEFF 		bl	SW_TX_PutCRLF
 230              	.LVL35:
 231              	.L14:
 159:main.c        ****     
 160:main.c        **** 
 161:main.c        ****     /*************************************************************
 162:main.c        ****     *       LOOP ROUTINE
 163:main.c        ****     ************************************************************/
 164:main.c        ****     for(;;)
 165:main.c        ****     {
 166:main.c        ****         //regularly update BLE Stack
 167:main.c        ****         CyBle_ProcessEvents();    
ARM GAS  C:\Users\Jannai\AppData\Local\Temp\ccyALZpC.s 			page 8


 232              		.loc 1 167 0 discriminator 1
 233 00e6 FFF7FEFF 		bl	CyBle_ProcessEvents
 234              	.LVL36:
 168:main.c        ****         //SW_TX_PutString(".");
 169:main.c        ****         //CyDelay(10);
 170:main.c        ****         
 171:main.c        ****             
 172:main.c        ****     }
 235              		.loc 1 172 0 discriminator 1
 236 00ea FCE7     		b	.L14
 237              	.L17:
 238              		.align	2
 239              	.L16:
 240 00ec 00000000 		.word	.LC0
 241 00f0 00000000 		.word	DoThisEverySecond
 242 00f4 00000000 		.word	ISR_hall_pulse
 243 00f8 00000000 		.word	ISR_acc_movement
 244 00fc 00000000 		.word	ISR_button_press
 245 0100 00000000 		.word	isrCombined
 246 0104 00000000 		.word	overall_volume
 247 0108 00000000 		.word	overall_pulses
 248 010c 3C000000 		.word	.LC9
 249 0110 50000000 		.word	.LC11
 250 0114 58000000 		.word	.LC13
 251 0118 70000000 		.word	.LC15
 252 011c 84000000 		.word	.LC17
 253 0120 00000000 		.word	StackEventHandler
 254 0124 00000000 		.word	cyBle_state
 255 0128 00000000 		.word	oldBatLevel
 256 012c 94000000 		.word	.LC22
 257              		.cfi_endproc
 258              	.LFE38:
 259              		.size	main, .-main
 260              		.comm	lpMode,1,1
 261              		.comm	apiResult,2,2
 262              		.comm	connectionHandle,2,4
 263              		.comm	debugStr,50,4
 264              		.section	.rodata.str1.4,"aMS",%progbits,1
 265              		.align	2
 266              	.LC0:
 267 0000 2D2D2D2D 		.ascii	"----------------UART debug started-----------------"
 267      2D2D2D2D 
 267      2D2D2D2D 
 267      2D2D2D2D 
 267      55415254 
 268 0033 2D2D2D2D 		.ascii	"-------\000"
 268      2D2D2D00 
 269 003b 00       		.space	1
 270              	.LC9:
 271 003c 57616B65 		.ascii	"Wakeup Reason = \000"
 271      75702052 
 271      6561736F 
 271      6E203D20 
 271      00
 272 004d 000000   		.space	3
 273              	.LC11:
 274 0050 52657365 		.ascii	"Reset\000"
ARM GAS  C:\Users\Jannai\AppData\Local\Temp\ccyALZpC.s 			page 9


 274      7400
 275 0056 0000     		.space	2
 276              	.LC13:
 277 0058 77616B65 		.ascii	"wakeup from hibernate\000"
 277      75702066 
 277      726F6D20 
 277      68696265 
 277      726E6174 
 278 006e 0000     		.space	2
 279              	.LC15:
 280 0070 77616B65 		.ascii	"wakeup from stop\000"
 280      75702066 
 280      726F6D20 
 280      73746F70 
 280      00
 281 0081 000000   		.space	3
 282              	.LC17:
 283 0084 556E6B6E 		.ascii	"Unknown reason\000"
 283      6F776E20 
 283      72656173 
 283      6F6E00
 284 0093 00       		.space	1
 285              	.LC22:
 286 0094 2D2D2D2D 		.ascii	"---------------------INIT DONE. NOW LOOPING--------"
 286      2D2D2D2D 
 286      2D2D2D2D 
 286      2D2D2D2D 
 286      2D2D2D2D 
 287 00c7 2D2D2D2D 		.ascii	"-----------\000"
 287      2D2D2D2D 
 287      2D2D2D00 
 288 00d3 00       		.text
 289              	.Letext0:
 290              		.file 2 "Generated_Source\\PSoC4/cytypes.h"
 291              		.file 3 "Generated_Source\\PSoC4/BLE_Stack.h"
 292              		.file 4 "Generated_Source\\PSoC4/BLE_StackGatt.h"
 293              		.file 5 "Generated_Source\\PSoC4/BLE.h"
 294              		.file 6 "Generated_Source\\PSoC4/BLE_eventHandler.h"
 295              		.file 7 "common.h"
 296              		.file 8 "BLE_functions.h"
 297              		.file 9 "Generated_Source\\PSoC4/SW_TX.h"
 298              		.file 10 "Generated_Source\\PSoC4/ADC.h"
 299              		.file 11 "Generated_Source\\PSoC4/I2CM_scl.h"
 300              		.file 12 "Generated_Source\\PSoC4/I2CM_sda.h"
 301              		.file 13 "Generated_Source\\PSoC4/Timer_1.h"
 302              		.file 14 "Generated_Source\\PSoC4/ISR_everySecond.h"
 303              		.file 15 "Generated_Source\\PSoC4/ISR_hall.h"
 304              		.file 16 "Generated_Source\\PSoC4/ISR_acc.h"
 305              		.file 17 "Generated_Source\\PSoC4/ISR_btn.h"
 306              		.file 18 "Generated_Source\\PSoC4/isr_CombinedPort.h"
 307              		.file 19 "Generated_Source\\PSoC4/Pin_CombinedIntr.h"
 308              		.file 20 "Generated_Source\\PSoC4/cyPm.h"
 309              		.file 21 "Generated_Source\\PSoC4/CyLib.h"
 310              		.file 22 "Generated_Source\\PSoC4/VCC_hall.h"
 311              		.file 23 "mainFunctions.h"
 312              		.file 24 "Generated_Source\\PSoC4/I2CM.h"